
b210f0df-8a68-4b24-880a-8713586c4d10.elf:     file format elf32-littlearm
b210f0df-8a68-4b24-880a-8713586c4d10.elf
architecture: armv7, flags 0x00000150:
HAS_SYMS, DYNAMIC, D_PAGED
start address 0x0000216c

Program Header:
0x70000001 off    0x00018270 vaddr 0x00017270 paddr 0x00017270 align 2**2
         filesz 0x00000b58 memsz 0x00000b58 flags r--
    LOAD off    0x00001000 vaddr 0x00000000 paddr 0x00000000 align 2**12
         filesz 0x00017e84 memsz 0x00017e84 flags r-x
    LOAD off    0x00019000 vaddr 0x00018000 paddr 0x00018000 align 2**12
         filesz 0x0000070c memsz 0x0000b770 flags rw-
 DYNAMIC off    0x00019000 vaddr 0x00018000 paddr 0x00018000 align 2**2
         filesz 0x00000088 memsz 0x00000088 flags rw-
   STACK off    0x00000000 vaddr 0x00000000 paddr 0x00000000 align 2**4
         filesz 0x00000000 memsz 0x00000000 flags rwx

Dynamic Section:
  HASH                 0x00017e58
  GNU_HASH             0x00016298
  STRTAB               0x00017e28
  SYMTAB               0x00017dc8
  STRSZ                0x0000002e
  SYMENT               0x00000010
  DEBUG                0x00000000
  REL                  0x000180dc
  RELSZ                0x00000128
  RELENT               0x00000008
  FLAGS_1              0x08000000
  RELCOUNT             0x00000013
private flags = 5000400: [Version5 EABI] [hard-float ABI]

Sections:
Idx Name          Size      VMA       LMA       File off  Algn
  0 .ta_head      00000020  00000000  00000000  00001000  2**3
                  CONTENTS, ALLOC, LOAD, READONLY, DATA
  1 .text         00014b18  00000020  00000020  00001020  2**2
                  CONTENTS, ALLOC, LOAD, READONLY, CODE
  2 .rodata       0000175e  00014b38  00014b38  00015b38  2**2
                  CONTENTS, ALLOC, LOAD, READONLY, DATA
  3 .gnu.hash     0000002c  00016298  00016298  00017298  2**2
                  CONTENTS, ALLOC, LOAD, READONLY, DATA
  4 .ARM.extab    00000fac  000162c4  000162c4  000172c4  2**2
                  CONTENTS, ALLOC, LOAD, READONLY, DATA
  5 .ARM.exidx    00000b58  00017270  00017270  00018270  2**2
                  CONTENTS, ALLOC, LOAD, READONLY, DATA
  6 .dynsym       00000060  00017dc8  00017dc8  00018dc8  2**2
                  CONTENTS, ALLOC, LOAD, READONLY, DATA
  7 .dynstr       0000002e  00017e28  00017e28  00018e28  2**0
                  CONTENTS, ALLOC, LOAD, READONLY, DATA
  8 .hash         0000002c  00017e58  00017e58  00018e58  2**2
                  CONTENTS, ALLOC, LOAD, READONLY, DATA
  9 .dynamic      00000088  00018000  00018000  00019000  2**2
                  CONTENTS, ALLOC, LOAD, DATA
 10 .got          00000054  00018088  00018088  00019088  2**2
                  CONTENTS, ALLOC, LOAD, DATA
 11 .rel.got      00000090  00018174  00018174  00019174  2**2
                  CONTENTS, ALLOC, LOAD, READONLY, DATA
 12 .data         00000508  00018204  00018204  00019204  2**2
                  CONTENTS, ALLOC, LOAD, DATA
 13 .bss          0000b064  0001870c  0001870c  0001970c  2**2
                  ALLOC
 14 .debug_info   0000d69a  00000000  00000000  0001970c  2**0
                  CONTENTS, READONLY, DEBUGGING, OCTETS
 15 .debug_abbrev 00002c17  00000000  00000000  00026da6  2**0
                  CONTENTS, READONLY, DEBUGGING, OCTETS
 16 .debug_aranges 000005e8  00000000  00000000  000299c0  2**3
                  CONTENTS, READONLY, DEBUGGING, OCTETS
 17 .debug_macro  000199a8  00000000  00000000  00029fa8  2**0
                  CONTENTS, READONLY, DEBUGGING, OCTETS
 18 .debug_line   0000ab4f  00000000  00000000  00043950  2**0
                  CONTENTS, READONLY, DEBUGGING, OCTETS
 19 .debug_str    00017ef8  00000000  00000000  0004e49f  2**0
                  CONTENTS, READONLY, DEBUGGING, OCTETS
 20 .comment      0000005d  00000000  00000000  00066397  2**0
                  CONTENTS, READONLY
 21 .ARM.attributes 00000033  00000000  00000000  000663f4  2**0
                  CONTENTS, READONLY
 22 .debug_frame  0000399c  00000000  00000000  00066428  2**2
                  CONTENTS, READONLY, DEBUGGING, OCTETS
 23 .rel.dyn      00000098  000180dc  000180dc  000190dc  2**2
                  CONTENTS, ALLOC, LOAD, READONLY, DATA
 24 .debug_ranges 00000228  00000000  00000000  00069dc8  2**3
                  CONTENTS, READONLY, DEBUGGING, OCTETS
SYMBOL TABLE:
00000000 l    d  .ta_head	00000000 .ta_head
00000020 l    d  .text	00000000 .text
00014b38 l    d  .rodata	00000000 .rodata
00016298 l    d  .gnu.hash	00000000 .gnu.hash
000162c4 l    d  .ARM.extab	00000000 .ARM.extab
00017270 l    d  .ARM.exidx	00000000 .ARM.exidx
00017dc8 l    d  .dynsym	00000000 .dynsym
00017e28 l    d  .dynstr	00000000 .dynstr
00017e58 l    d  .hash	00000000 .hash
00018000 l    d  .dynamic	00000000 .dynamic
00018088 l    d  .got	00000000 .got
00018174 l    d  .rel.got	00000000 .rel.got
00018204 l    d  .data	00000000 .data
0001870c l    d  .bss	00000000 .bss
00000000 l    d  .debug_info	00000000 .debug_info
00000000 l    d  .debug_abbrev	00000000 .debug_abbrev
00000000 l    d  .debug_aranges	00000000 .debug_aranges
00000000 l    d  .debug_macro	00000000 .debug_macro
00000000 l    d  .debug_line	00000000 .debug_line
00000000 l    d  .debug_str	00000000 .debug_str
00000000 l    d  .comment	00000000 .comment
00000000 l    d  .ARM.attributes	00000000 .ARM.attributes
00000000 l    d  .debug_frame	00000000 .debug_frame
000180dc l    d  .rel.dyn	00000000 .rel.dyn
00000000 l    d  .debug_ranges	00000000 .debug_ranges
00000000 l    df *ABS*	00000000 user_ta_header.c
00015190 l     O .rodata	00000001 __compound_literal.0
00015191 l     O .rodata	00000001 __compound_literal.1
00015192 l     O .rodata	00000001 __compound_literal.2
00015194 l     O .rodata	00000004 __compound_literal.3
00015198 l     O .rodata	00000004 __compound_literal.4
00000000 l    df *ABS*	00000000 ta2.c
00014b38 l     O .rodata	00000010 pta_attestation_uuid
00018720 l     O .bss	00000004 connections_head
00000200 l     F .text	00000094 ta2tee_algo_id
00015094 l     O .rodata	0000000f __func__.12
00000294 l     F .text	00000058 ta2tee_key_size
000150a4 l     O .rodata	00000010 __func__.11
000002ec l     F .text	0000006c ta2tee_mode_id
000150b4 l     O .rodata	0000000f __func__.10
00000358 l     F .text	00000240 alloc_resources
000150c4 l     O .rodata	00000010 __func__.9
00000598 l     F .text	0000016c set_aes_key
000150d4 l     O .rodata	0000000c __func__.8
00000704 l     F .text	00000110 reset_aes_iv
000150e0 l     O .rodata	0000000d __func__.7
00000814 l     F .text	000002bc set_key
000150f0 l     O .rodata	00000008 __func__.6
00000ad0 l     F .text	000001f0 attest
000150f8 l     O .rodata	00000007 __func__.5
00015100 l     O .rodata	00000014 __func__.4
00015114 l     O .rodata	00000015 __func__.3
0001512c l     O .rodata	00000019 __func__.2
00015148 l     O .rodata	0000001a __func__.1
00015164 l     O .rodata	0000001b __func__.0
00000000 l    df *ABS*	00000000 spongent.c
00000000 l    df *ABS*	00000000 ./ta_entry_a32.o
00000000 l    df *ABS*	00000000 bget_malloc.c
00002170 l     F .text	0000001a tag_asan_free
0000218a l     F .text	0000001a tag_asan_alloced
000021a4 l     F .text	00000024 memset_unchecked
000021c8 l     F .text	00000024 memcpy_unchecked
000021ec l     F .text	00000090 buf_get_pos
00015544 l     O .rodata	00000005 __func__.8
0001554c l     O .rodata	00000006 __func__.7
00015554 l     O .rodata	00000006 __func__.6
0001555c l     O .rodata	00000005 __func__.5
00015564 l     O .rodata	00000006 __func__.4
0001556c l     O .rodata	00000007 __func__.3
00002c54 l     F .text	0000001c malloc_lock
00002c70 l     F .text	0000001a malloc_unlock
0001869c l     O .data	0000005c malloc_ctx
00002c8a l     F .text	0000001a print_oom
00002ca4 l     F .text	00000064 raw_malloc_return_hook
00002d08 l     F .text	00000044 gen_malloc_reset_stats
00002d68 l     F .text	00000042 gen_malloc_get_stats
00002dd0 l     F .text	00000018 raw_malloc_validate_pools
00002de8 l     F .text	0000002c bpool_foreach_iterator_init
00002e14 l     F .text	000000d8 bpool_foreach_pool
00015574 l     O .rodata	00000013 __func__.2
00002eec l     F .text	00000076 bpool_foreach
00002f62 l     F .text	0000009c raw_memalign
00002ffe l     F .text	0000002e raw_malloc
0000302c l     F .text	00000032 raw_free
0000305e l     F .text	000000ca raw_calloc
00003128 l     F .text	000000ac raw_realloc
000031d4 l     F .text	0000005c bget_buf_size
00015588 l     O .rodata	0000000e __func__.1
00003280 l     F .text	0000004c free_helper
00003320 l     F .text	0000002e realloc_unlocked
000033f0 l     F .text	00000026 get_payload_start_size
00003452 l     F .text	00000122 gen_malloc_add_pool
00015598 l     O .rodata	00000014 __func__.0
00003574 l     F .text	000000a8 gen_malloc_buffer_is_within_alloced
0000361c l     F .text	000000ba gen_malloc_buffer_overlaps_heap
00000000 l    df *ABS*	00000000 trace.c
000037c4 l     F .text	00000054 trace_level_to_string
000155d0 l     O .rodata	00000005 lvl_strs.0
00003818 l     F .text	00000060 print_thread_id
00003878 l     F .text	0000001e print_core_id
00000000 l    df *ABS*	00000000 snprintk.c
000155d8 l     O .rodata	00000011 hexdigits
000155ec l     O .rodata	00000011 HEXDIGITS
00003da0 l     F .text	00000fe0 kprintf
00003d02 l     F .text	0000009e uuid2str
00000000 l    df *ABS*	00000000 arm32_aeabi_ldivmod_a32.o
00000000 l    df *ABS*	00000000 assert.c
00000000 l    df *ABS*	00000000 trace_ext.c
00000000 l    df *ABS*	00000000 tee_api.c
00020724 l     O .bss	00000004 tee_api_instance_data
00004f28 l     F .text	000002fe copy_param
00005226 l     F .text	00000110 update_out_param
00015698 l     O .rodata	0000000b __func__.0
00000000 l    df *ABS*	00000000 tee_api_operations.c
00005970 l     F .text	0000006e __tee_alg_get_class
000059de l     F .text	00000046 __tee_alg_get_main_alg
00005a24 l     F .text	00000036 __tee_alg_get_key_type
00005a5a l     F .text	0000022e __tee_alg_get_digest_size
00007248 l     F .text	00000048 init_hash_operation
00007442 l     F .text	00000330 tee_buffer_update
00000000 l    df *ABS*	00000000 tee_api_panic.c
00009456 l     F .text	00000024 check_res
0000947a l     F .text	00000040 check_access
00000000 l    df *ABS*	00000000 tee_system_pta.c
00009658 l     F .text	00000064 reg_pair_to_64
000096bc l     F .text	0000003a reg_pair_from_64
000096f6 l     F .text	0000007e invoke_system_pta
00020728 l     O .bss	00000004 sess.3
00015764 l     O .rodata	00000010 uuid.2
00015774 l     O .rodata	0000000a __func__.1
00015780 l     O .rodata	00000017 __func__.0
00000000 l    df *ABS*	00000000 utee_syscalls_a32.o
00000000 l    df *ABS*	00000000 user_ta_entry.c
00009e38 l     F .text	00000010 __utee_gprof_init
00009e48 l     F .text	00000010 __utee_gprof_fini
000186f8 l     O .data	00000008 ta_sessions
0002075c l     O .bss	00000001 init_done
00018700 l     O .data	00000008 __phdr_info_head
00020760 l     O .bss	00000004 _num_mod_init
00009e58 l     F .text	000000cc _init_iterate_phdr_cb
000157b4 l     O .rodata	00000016 __func__.0
00009f24 l     F .text	000000fc _get_fn_array
0000a16c l     F .text	00000074 _fini_iterate_phdr_cb
0000a200 l     F .text	0000005c init_instance
0000a25c l     F .text	00000018 uninit_instance
0000a274 l     F .text	00000058 ta_header_save_params
0000a2cc l     F .text	00000044 ta_header_get_session
0000a310 l     F .text	000000c0 ta_header_add_session
0000a3d0 l     F .text	000000d4 ta_header_remove_session
0000a4a4 l     F .text	00000182 to_utee_params
0000a626 l     F .text	000000e2 from_utee_params
0000a708 l     F .text	0000008e entry_open_session
0000a796 l     F .text	00000040 entry_close_session
0000a7d6 l     F .text	00000070 entry_invoke_command
00000000 l    df *ABS*	00000000 abort.c
00000000 l    df *ABS*	00000000 tee_api_arith_mpi.c
0000a8dc l     F .text	00000030 api_panic
0000a90c l     F .text	00000030 mpi_panic
00020764 l     O .bss	00003000 data.17
00015898 l     O .rodata	00000012 __func__.16
0000a9a4 l     F .text	00000090 copy_mpi_to_bigint
0000aa34 l     F .text	000000a0 get_mpi
000158ac l     O .rodata	00000008 __func__.15
000158b4 l     O .rodata	0000000f __func__.14
000158c4 l     O .rodata	0000001f __func__.13
000158e4 l     O .rodata	00000019 __func__.12
00015900 l     O .rodata	00000015 __func__.11
0000b05e l     F .text	000000fe bigint_binary
00015918 l     O .rodata	0000000e __func__.10
0000b15c l     F .text	00000184 bigint_binary_mod
00015928 l     O .rodata	00000012 __func__.9
0001593c l     O .rodata	0000000e __func__.8
0001594c l     O .rodata	0000000e __func__.7
0001595c l     O .rodata	0000000e __func__.6
0001596c l     O .rodata	00000011 __func__.5
00015980 l     O .rodata	00000018 __func__.4
0000b970 l     F .text	0000002a mpi_is_odd
0000b99a l     F .text	00000032 mpi_is_even
0000b9cc l     F .text	00000794 mpi_egcd
00015998 l     O .rodata	00000009 __func__.3
000159a4 l     O .rodata	0000001d __func__.2
0000c3f0 l     F .text	00000030 rng_read
000159c4 l     O .rodata	00000019 __func__.1
000159e0 l     O .rodata	00000015 __func__.0
00000000 l    df *ABS*	00000000 tcb.c
00023764 l     O .bss	00000004 _tcb
00023768 l     O .bss	00000004 _tls_size
00015a94 l     O .rodata	00000010 __func__.1
00015aa4 l     O .rodata	00000010 __func__.0
00000000 l    df *ABS*	00000000 bignum.c
0000cb0c l     F .text	00000024 mbedtls_mpi_zeroize
0000cb30 l     F .text	0000003a mpi_init
0000d450 l     F .text	0000004e mbedtls_clz
0000d53a l     F .text	00000082 mpi_get_digit
0000d7ce l     F .text	000000da mpi_write_hlp
0000daa0 l     F .text	0000005a mpi_uint_bigendian_to_host_c
0000dafa l     F .text	0000001c mpi_uint_bigendian_to_host
0000db16 l     F .text	00000072 mpi_bigendian_to_host
0000e458 l     F .text	00000052 ct_lt_mpi_uint
0000e7c0 l     F .text	000000c8 mpi_sub_hlp
0000eb5c l     F .text	00001a1e mpi_mul_hlp
0001074a l     F .text	000000d6 mbedtls_int_div_int
00015ac8 l     O .rodata	000002a0 small_prime
00012118 l     F .text	000000a8 mpi_check_small_factors
000121c0 l     F .text	000002d2 mpi_miller_rabin
00015d68 l     O .rodata	00000024 gcd_pairs
00000000 l    df *ABS*	00000000 platform_util.c
00018708 l     O .data	00000004 memset_func
00000000 l    df *ABS*	00000000 mempool.c
00012dc8 l     F .text	00000018 get_pool
00012de0 l     F .text	00000018 put_pool
00016274 l     O .rodata	00000013 __func__.1
00016288 l     O .rodata	0000000e __func__.0
00000000 l    df *ABS*	00000000 memcmp.c
00000000 l    df *ABS*	00000000 memcpy.c
00000000 l    df *ABS*	00000000 memset.c
00000000 l    df *ABS*	00000000 aeabi_unwind.c
00000000 l    df *ABS*	00000000 memchr.c
00000000 l    df *ABS*	00000000 strlen.c
00000000 l    df *ABS*	00000000 arm32_aeabi_ldivmod.c
00013524 l     F .text	0000012a division_lqr
0001364e l     F .text	0000007c ul_div_qr
00000000 l    df *ABS*	00000000 tee_api_objects.c
00000000 l    df *ABS*	00000000 snprintf.c
00000000 l    df *ABS*	00000000 memmove.c
00000000 l    df *ABS*	00000000 consttime_memcmp.c
00000000 l    df *ABS*	00000000 
00018000 l     O *ABS*	00000000 _DYNAMIC
00018088 l     O *ABS*	00000000 _GLOBAL_OFFSET_TABLE_
00004ef0 g     F .text	00000038 putchar
00013df6 g     F .text	00000164 TEE_PopulateTransientObject
0000c4f0 g     F .text	00000024 TEE_BigIntConvertToFMM
0000b778 g     F .text	00000024 TEE_BigIntSquareMod
0000ae26 g     F .text	000001ba TEE_BigIntShiftRight
000098bc g     F .text	000000cc tee_invoke_supp_plugin
0000cc50 g     F .text	00000108 mbedtls_mpi_grow
0001372c g     F .text	000000e0 __l_divmod
00007290 g     F .text	0000005c TEE_DigestUpdate
000058c8 g     F .text	00000020 TEE_Realloc
00006ed2 g     F .text	00000232 TEE_SetOperationKey2
00009624 g     F .text	00000034 __utee_check_inout_annotation
00004e44 g     F .text	00000074 printf
00013f5a g     F .text	00000048 TEE_InitRefAttribute
000099b0 g     F .text	00000014 _utee_log
00005454 g     F .text	00000126 TEE_InvokeTACommand
000094ba g     F .text	0000005a __utee_check_outbuf_annotation
0000cb88 g     F .text	0000003c mbedtls_mpi_init_mempool
00009c4c g     F .text	00000014 _utee_cryp_random_number_generate
0000dde8 g     F .text	000000e4 mbedtls_mpi_write_binary
000081b0 g     F .text	00000224 TEE_AEEncryptFinal
000013de g     F .text	000000c0 retnuoCl
00003c2e g     F .text	0000002e vsnprintk
0000eb0c g     F .text	00000050 mbedtls_mpi_sub_int
000016f4 g     F .text	0000004e Init
00014946 g     F .text	0000013e memmove
000148dc g     F .text	0000003c snprintf
0000adea g     F .text	0000003c TEE_BigIntCmpS32
00013fa2 g     F .text	00000048 TEE_InitValueAttribute
0000cd58 g     F .text	00000154 mbedtls_mpi_shrink
00013356 g     F .text	00000010 __aeabi_unwind_cpp_pr0
0000b2e0 g     F .text	00000034 TEE_BigIntAdd
0000016c g     F .text	00000094 find_connections
000012de g     F .text	00000046 copy_n
00009bac g     F .text	00000014 _utee_cryp_obj_restrict_usage
0001518c g     O .rodata	00000004 ta_heap_size
00013d96 g     F .text	00000060 TEE_ResetTransientObject
00009cd4 g     F .text	00000018 _utee_asymm_operate
0000d5bc g     F .text	00000212 mbedtls_mpi_read_string
000073aa g     F .text	00000098 TEE_CipherInit
0000b348 g     F .text	000000b0 TEE_BigIntNeg
00009d70 g     F .text	00000014 _utee_storage_free_enum
00000020 g       .text	00000000 __text_start
00014550 g     F .text	0000005a TEE_StartPersistentObjectEnumerator
0000e04e g     F .text	0000016a mbedtls_mpi_shift_r
0000372c g     F .text	0000002c malloc_buffer_overlaps_heap
00009b14 g     F .text	00000014 _utee_hash_init
0000b708 g     F .text	00000038 TEE_BigIntSubMod
00012566 g     F .text	00000314 mbedtls_mpi_gen_prime
0000d2ba g     F .text	0000004e mbedtls_mpi_get_bit
0000dc52 g     F .text	000000c0 mbedtls_mpi_read_binary
00007ea2 g     F .text	000000ee TEE_AEInit
00003896 g     F .text	00000036 trace_printf
000110de g     F .text	00000130 mbedtls_mpi_montmul
00009e24 g     F .text	00000014 _utee_cache_operation
00013148 g     F .text	000000f2 memcpy
0000c514 g     F .text	0000009c TEE_BigIntConvertFromFMM
0001870c g     O .bss	00000004 total_node
0000943c g     F .text	0000001a TEE_Panic
00001ae0 g     F .text	000005d8 SpongentWrap
00004d98 g     F .text	00000018 __aeabi_uldivmod
00007104 g     F .text	00000144 TEE_CopyOperation
00004eb8 g     F .text	00000038 puts
0000c5b0 g     F .text	00000110 TEE_BigIntComputeFMM
00002daa g     F .text	00000026 malloc_get_stats
00005834 g     F .text	0000002c TEE_GetREETime
00014492 g     F .text	0000005a TEE_AllocatePersistentObjectEnumerator
00018648 g     O .data	00000054 ta_props
000085b4 g     F .text	000001c2 TEE_AsymmetricEncrypt
00009514 g     F .text	00000040 __utee_check_instring_annotation
00003230 g     F .text	00000050 malloc
00013058 g     F .text	00000024 __ta_entry_c
000140ee g     F .text	00000126 TEE_GenerateKey
00014918 g     F .text	0000002e vsnprintf
00018644 g     O .data	00000004 trace_level
00000cc0 g     F .text	0000002c input
0000ad94 g     F .text	00000056 TEE_BigIntCmp
00015258 g     O .rodata	00000004 ta_num_props
000026b0 g     F .text	000000c8 bgetr
00009d04 g     F .text	00000018 _utee_storage_obj_open
00012fdc g     F .text	0000007c mempool_free
00007772 g     F .text	000001b6 TEE_CipherUpdate
00009b28 g     F .text	00000014 _utee_hash_update
0000abba g     F .text	00000086 TEE_BigIntConvertToOctetString
00006b3c g     F .text	000001cc TEE_GetOperationInfoMultiple
0000d49e g     F .text	00000078 mbedtls_mpi_bitlen
0000afe0 g     F .text	00000046 TEE_BigIntGetBit
00015188 g     O .rodata	00000003 trace_ext_prefix
00009dac g     F .text	00000014 _utee_storage_next_enum
00002608 g     F .text	000000a8 bgetz
0000567c g     F .text	0000001c TEE_GetInstanceData
00005732 g     F .text	00000038 TEE_Wait
0001057a g     F .text	00000192 mbedtls_mpi_mul_mpi
00001370 g     F .text	0000006e lCounter
00013376 g     F .text	00000010 __aeabi_unwind_cpp_pr2
00005926 g     F .text	00000024 TEE_CacheFlush
000038cc g     F .text	0000030c trace_vprintf
000010a4 g     F .text	00000030 TA_DestroyEntryPoint
0000cb6a g     F .text	0000001e mbedtls_mpi_init
00009d34 g     F .text	00000014 _utee_storage_obj_del
0000d3d6 g     F .text	0000007a mbedtls_mpi_lsb
00004db0 g     F .text	00000048 _assert_log
00009aec g     F .text	00000014 _utee_cryp_state_copy
0000c4d4 g     F .text	0000001c TEE_BigIntFMMContextSizeInU32
0000980c g     F .text	000000b0 tee_unmap
00007dc8 g     F .text	000000da TEE_MACCompareFinal
000017ca g     F .text	000000e8 Pad
00014422 g     F .text	00000070 TEE_RenamePersistentObject
000072ec g     F .text	000000be TEE_DigestDoFinal
0000a93c g     F .text	00000068 _TEE_MathAPI_Init
0000c6c0 g     F .text	0000030c __utee_tcb_init
0000e964 g     F .text	000000ac mbedtls_mpi_add_mpi
0000a8bc g     F .text	00000020 abort
000015ee g     F .text	00000106 Permute
000095ac g     F .text	00000034 __utee_check_out_annotation
00018724 g     O .bss	00008000 ta_heap
0000b79c g     F .text	0000010c TEE_BigIntInvMod
0000a020 g     F .text	0000014c __utee_call_elf_init_fn
00018204 g     O .data	00000040 S
00001170 g     F .text	0000008c TA_CloseSessionEntryPoint
00009a1c g     F .text	00000014 _utee_close_ta_session
00000048 g     F .text	0000009c connections_add
00008776 g     F .text	000001c2 TEE_AsymmetricDecrypt
00014214 g     F .text	000000be TEE_OpenPersistentObject
0000ea10 g     F .text	000000ac mbedtls_mpi_sub_mpi
00014a84 g     F .text	000000b4 consttime_memcmp
0000999c g     F .text	00000014 _utee_return
000099c4 g     F .text	00000014 __utee_panic
0000c9cc g     F .text	00000038 __tls_get_addr
000011fc g     F .text	000000a8 TA_InvokeCommandEntryPoint
0000a1e0 g     F .text	00000020 __utee_call_elf_fini_fn
00003434 g     F .text	0000001e free_wipe
00012e6c g     F .text	000000f4 mempool_alloc
00009988 g     F .text	00000014 _utee_panic
00012f60 g     F .text	0000007c mempool_calloc
00009e10 g     F .text	00000014 _utee_cryp_obj_generate_key
00009de8 g     F .text	00000014 _utee_storage_obj_trunc
00013fea g     F .text	0000004c TEE_CopyObjectAttributes
00009a70 g     F .text	00000014 _utee_unmask_cancellation
000032cc g     F .text	00000054 calloc
00005860 g     F .text	00000068 TEE_Malloc
00005616 g     F .text	00000042 TEE_CheckMemoryAccessRights
00002126 g     F .text	00000046 SpongentMac
000136ca g     F .text	00000062 __ul_divmod
000099d8 g     F .text	00000018 _utee_get_property
0000d24c g     F .text	0000006e mbedtls_mpi_lset
0001466c g     F .text	00000092 TEE_ReadObjectData
00013adc g     F .text	000000cc TEE_GetObjectBufferAttribute
000010d4 g     F .text	0000009c TA_OpenSessionEntryPoint
00006a84 g     F .text	0000004a TEE_FreeOperation
0000ca04 g     F .text	00000108 dl_iterate_phdr
00023770 g       .bss	00000000 __ftrace_buf_end
0002072c g     O .bss	00000004 ta_param_types
00010e66 g     F .text	00000052 mbedtls_mpi_div_int
0001380c g     F .text	0000017e __utee_from_attr
00012492 g     F .text	000000ac mbedtls_mpi_is_prime_ext
0000c420 g     F .text	00000054 TEE_BigIntIsProbablePrime
0001070c g     F .text	0000003e mbedtls_mpi_mul_int
000143dc g     F .text	00000046 TEE_CloseAndDeletePersistentObject1
00011254 g     F .text	00000760 mbedtls_mpi_exp_mod
0000cfc6 g     F .text	00000114 mbedtls_mpi_safe_cond_assign
000020b8 g     F .text	0000006e SpongentUnwrap
0000e4aa g     F .text	0000013e mbedtls_mpi_lt_mpi_ct
000083d4 g     F .text	000001e0 TEE_AEDecryptFinal
0000aad4 g     F .text	0000006c TEE_BigIntInit
00009554 g     F .text	00000058 __utee_check_outstring_annotation
00005698 g     F .text	00000024 TEE_MemMove
00012d98 g     F .text	00000030 mbedtls_platform_zeroize
0000ab40 g     F .text	0000007a TEE_BigIntConvertFromOctetString
00009cbc g     F .text	00000018 _utee_authenc_dec_final
0000e1b8 g     F .text	0000012e mbedtls_mpi_cmp_abs
00009dc0 g     F .text	00000014 _utee_storage_obj_read
00007be0 g     F .text	00000072 TEE_MACInit
00008938 g     F .text	000001b4 TEE_AsymmetricSignDigest
00013386 g     F .text	00000114 memchr
000055ae g     F .text	00000034 TEE_UnmaskCancellation
0001398a g     F .text	0000006e TEE_GetObjectInfo
0001287a g     F .text	0000051e mbedtls_mpi_self_test
00001742 g     F .text	00000058 Absorb
000014f8 g     F .text	000000f6 pLayer
00009dfc g     F .text	00000014 _utee_storage_obj_seek
0000800a g     F .text	000001a6 TEE_AEUpdate
00013d36 g     F .text	00000060 TEE_FreeTransientObject
00009a5c g     F .text	00000014 _utee_check_access_rights
0000e5e8 g     F .text	0000004c mbedtls_mpi_cmp_int
00009d84 g     F .text	00000014 _utee_storage_reset_enum
00008e68 g     F .text	00000026 rand
000095e0 g     F .text	00000044 __utee_check_attr_in_annotation
00009c8c g     F .text	00000018 _utee_authenc_update_payload
00006ace g     F .text	0000006e TEE_GetOperationInfo
0000b664 g     F .text	0000006c TEE_BigIntMod
00010f56 g     F .text	0000011a mbedtls_mpi_mod_int
0000db88 g     F .text	000000ca mbedtls_mpi_read_binary_le
0000b4f8 g     F .text	0000016c TEE_BigIntDiv
00009bd4 g     F .text	00000014 _utee_cryp_obj_alloc
00001324 g     F .text	0000004c PrintState
00023770 g       .bss	00000000 __ftrace_buf_start
0000ceac g     F .text	000000d8 mbedtls_mpi_copy
00008e8e g     F .text	000005ae TEE_IsAlgorithmSupported
00002d4c g     F .text	0000001c malloc_reset_stats
00003cce g     F .text	00000034 __vsprintf
00001a1c g     F .text	000000c4 Duplexing
0000179a g     F .text	00000030 Squeeze
00009ac0 g     F .text	00000014 _utee_set_ta_time
00009a30 g     F .text	00000018 _utee_invoke_ta_command
00013a90 g     F .text	0000004c TEE_RestrictObjectUsage1
0000334e g     F .text	0000004e realloc
0000cf84 g     F .text	00000042 mbedtls_mpi_swap
00012df8 g     F .text	00000074 mempool_alloc_pool
0000b3f8 g     F .text	000000e0 TEE_BigIntMul
00006d08 g     F .text	00000080 TEE_ResetOperation
0000decc g     F .text	00000182 mbedtls_mpi_shift_l
0000e2e6 g     F .text	00000172 mbedtls_mpi_cmp_mpi
000056e0 g     F .text	00000026 TEE_MemFill
00013090 g     F .text	000000b8 memcmp
000036d6 g     F .text	0000002a malloc_add_pool
00007c52 g     F .text	00000082 TEE_MACUpdate
0000149e g     F .text	0000005a Pi
000037a0 g     F .text	00000024 trace_get_level
0000e634 g     F .text	0000018c mbedtls_mpi_add_abs
00013a44 g     F .text	0000004c TEE_RestrictObjectUsage
0000c4ae g     F .text	00000026 TEE_BigIntFMMSizeInU32
0000c474 g     F .text	0000001e TEE_BigIntInitFMM
00013c9a g     F .text	00000032 TEE_CloseObject
00009b54 g     F .text	00000014 _utee_cipher_init
0000a846 g     F .text	00000076 __utee_entry
00014b38 g       .text	00000000 __text_end
0000b8a8 g     F .text	000000c8 TEE_BigIntRelativePrime
00010eb8 g     F .text	0000009e mbedtls_mpi_mod_mpi
000000e4 g     F .text	00000088 connections_get
00009b98 g     F .text	00000014 _utee_cryp_obj_get_info
00002ab0 g     F .text	000000fc bpool
00009ad4 g     F .text	00000018 _utee_cryp_state_alloc
0000557a g     F .text	00000034 TEE_GetCancellationFlag
000119b4 g     F .text	000001ec mbedtls_mpi_gcd
000057ee g     F .text	00000046 TEE_SetTAPersistentTime
0000dd12 g     F .text	000000d6 mbedtls_mpi_write_binary_le
0001323a g     F .text	0000011c memset
0000576a g     F .text	00000084 TEE_GetTAPersistentTime
00003bd8 g     F .text	0000001e dhex_dump
000142d2 g     F .text	000000d8 TEE_CreatePersistentObject
000055e2 g     F .text	00000034 TEE_MaskCancellation
00007f90 g     F .text	0000007a TEE_AEUpdateAAD
0001477c g     F .text	0000006c TEE_TruncateObjectData
00009bc0 g     F .text	00000014 _utee_cryp_obj_get_attr
000139f8 g     F .text	0000004c TEE_GetObjectInfo1
00009b80 g     F .text	00000018 _utee_cipher_final
00003758 g     F .text	00000048 trace_set_level
00013ba8 g     F .text	000000f2 TEE_GetObjectValueAttribute
00006d88 g     F .text	0000014a TEE_SetOperationKey
00009b00 g     F .text	00000014 _utee_cryp_state_free
00009a04 g     F .text	00000018 _utee_open_ta_session
0000acc0 g     F .text	000000d4 TEE_BigIntConvertToS32
0000b314 g     F .text	00000034 TEE_BigIntSub
000012a4 g     F .text	0000003a min
0001307c g     F .text	00000014 tahead_get_trace_level
00009d98 g     F .text	00000014 _utee_storage_start_enum
000147e8 g     F .text	000000f4 TEE_SeekObjectData
00009774 g     F .text	00000098 tee_map_zi
0001120e g     F .text	00000046 mbedtls_mpi_montred
0000339c g     F .text	00000054 memalign
00007928 g     F .text	000002b8 TEE_CipherDoFinal
0000ac40 g     F .text	00000080 TEE_BigIntConvertFromS32
0000eabc g     F .text	00000050 mbedtls_mpi_add_int
00009ca4 g     F .text	00000018 _utee_authenc_enc_final
00003700 g     F .text	0000002c malloc_buffer_is_within_alloced
00009be8 g     F .text	00000014 _utee_cryp_obj_close
0000c492 g     F .text	0000001c TEE_BigIntInitFMMContext
00009a84 g     F .text	00000014 _utee_mask_cancellation
00009d48 g     F .text	00000014 _utee_storage_obj_rename
000146fe g     F .text	0000007e TEE_WriteObjectData
0001451e g     F .text	00000032 TEE_ResetPersistentObjectEnumerator
0000b4d8 g     F .text	00000020 TEE_BigIntSquare
00009dd4 g     F .text	00000014 _utee_storage_obj_write
00001070 g     F .text	00000034 TA_CreateEntryPoint
0000216c g     F .text	00000004 __ta_entry
00009c78 g     F .text	00000014 _utee_authenc_update_aad
00011070 g     F .text	0000006e mbedtls_mpi_montg_init
00003bf8 g     F .text	00000036 snprintk
0000b026 g     F .text	00000038 TEE_BigIntGetBitCount
00009c24 g     F .text	00000014 _utee_cryp_obj_copy
0000b740 g     F .text	00000038 TEE_BigIntMulMod
00011c4c g     F .text	000004cc mbedtls_mpi_inv_mod
00008c76 g     F .text	000001c6 TEE_DeriveKey
00020730 g     O .bss	00000020 ta_params
00010820 g     F .text	00000646 mbedtls_mpi_div_mpi
0000d516 g     F .text	00000024 mbedtls_mpi_size
0000227c g     F .text	0000038c bget
00013ccc g     F .text	0000006a TEE_AllocateTransientObject
00009a98 g     F .text	00000014 _utee_wait
0000d308 g     F .text	000000ce mbedtls_mpi_set_bit
000058e8 g     F .text	0000001a TEE_Free
0001253e g     F .text	00000028 mbedtls_mpi_is_prime
00000020 g     F .text	00000028 malloc_aligned
0000594a g     F .text	00000024 TEE_CacheInvalidate
00004df8 g     F .text	00000014 _assert_break
0000b6d0 g     F .text	00000038 TEE_BigIntAddMod
00009aac g     F .text	00000014 _utee_get_time
00005c88 g     F .text	00000dfc TEE_AllocateOperation
00009c10 g     F .text	00000014 _utee_cryp_obj_populate
00008e3c g     F .text	0000002c TEE_GenerateRandom
000056bc g     F .text	00000024 TEE_MemCompare
00009b68 g     F .text	00000018 _utee_cipher_update
00003c5c g     F .text	00000072 __vsnprintf
00020750 g     O .bss	0000000c __elf_phdr_info
000144ec g     F .text	00000032 TEE_FreePersistentObjectEnumerator
00000cec g     F .text	00000384 handle_input
00005336 g     F .text	000000ee TEE_OpenTASession
00004e0c g     F .text	00000024 trace_ext_puts
00018710 g     O .bss	00000010 module_key
00004e30 g     F .text	00000014 trace_ext_get_thread_id
000143aa g     F .text	00000032 TEE_CloseAndDeletePersistentObject
00009c38 g     F .text	00000014 _utee_cryp_derive_key
0000cbc4 g     F .text	0000008c mbedtls_mpi_free
00009bfc g     F .text	00000014 _utee_cryp_obj_reset
00005902 g     F .text	00000024 TEE_CacheClean
000099f0 g     F .text	00000014 _utee_get_property_name_to_index
0000d0da g     F .text	00000172 mbedtls_mpi_safe_cond_swap
00009c60 g     F .text	00000018 _utee_authenc_init
00014036 g     F .text	000000b8 TEE_CopyObjectAttributes1
0001349a g     F .text	0000008a strlen
0000c160 g     F .text	00000290 TEE_BigIntComputeExtendedGcd
00013366 g     F .text	00000010 __aeabi_unwind_cpp_pr1
00009d5c g     F .text	00000014 _utee_storage_alloc_enum
000018b2 g     F .text	0000016a SpongentHash
00005706 g     F .text	0000002c TEE_GetSystemTime
00009cec g     F .text	00000018 _utee_asymm_verify
00000000 g     O .ta_head	00000020 ta_head
00002778 g     F .text	00000338 brel
0000e888 g     F .text	000000dc mbedtls_mpi_sub_abs
00011ba0 g     F .text	000000ac mbedtls_mpi_fill_random
00018244 g     O .data	00000400 sBoxLayer
00005658 g     F .text	00000024 TEE_SetInstanceData
00009a48 g     F .text	00000014 _utee_get_cancellation_flag
00004d80 g     F .text	00000018 __aeabi_ldivmod
0000d8a8 g     F .text	000001f8 mbedtls_mpi_write_string
000145aa g     F .text	000000c2 TEE_GetNextPersistentObject
00005424 g     F .text	00000030 TEE_CloseTASession
00008aec g     F .text	0000018a TEE_AsymmetricVerifyDigest
00009d1c g     F .text	00000018 _utee_storage_obj_create
00003416 g     F .text	0000001e free
00002bac g     F .text	000000a8 bstats
00007cd4 g     F .text	000000f4 TEE_MACComputeFinal
0002376c g     O .bss	00000004 mbedtls_mpi_mempool
00009b3c g     F .text	00000018 _utee_hash_final



Disassembly of section .text:

00000020 <malloc_aligned>:
malloc_aligned():
/usr/src/app/examples/example_trustzone/ta2/ta2.c:15
      20:	e96d 7e02 	strd	r7, lr, [sp, #-8]!
      24:	b082      	sub	sp, #8
      26:	af00      	add	r7, sp, #0
      28:	6078      	str	r0, [r7, #4]
/usr/src/app/examples/example_trustzone/ta2/ta2.c:16
      2a:	687b      	ldr	r3, [r7, #4]
      2c:	f103 0301 	add.w	r3, r3, #1
      30:	f023 0301 	bic.w	r3, r3, #1
      34:	607b      	str	r3, [r7, #4]
/usr/src/app/examples/example_trustzone/ta2/ta2.c:18
      36:	6878      	ldr	r0, [r7, #4]
      38:	f003 f8fa 	bl	3230 <malloc>
      3c:	4603      	mov	r3, r0
/usr/src/app/examples/example_trustzone/ta2/ta2.c:19
      3e:	4618      	mov	r0, r3
      40:	f107 0708 	add.w	r7, r7, #8
      44:	46bd      	mov	sp, r7
      46:	bd80      	pop	{r7, pc}

00000048 <connections_add>:
connections_add():
/usr/src/app/examples/example_trustzone/ta2/ta2.c:41
      48:	e96d 7e02 	strd	r7, lr, [sp, #-8]!
      4c:	b084      	sub	sp, #16
      4e:	af00      	add	r7, sp, #0
      50:	6078      	str	r0, [r7, #4]
/usr/src/app/examples/example_trustzone/ta2/ta2.c:42
      52:	f04f 001c 	mov.w	r0, #28
      56:	f7ff ffe3 	bl	20 <malloc_aligned>
      5a:	60b8      	str	r0, [r7, #8]
/usr/src/app/examples/example_trustzone/ta2/ta2.c:44
      5c:	68bb      	ldr	r3, [r7, #8]
      5e:	2b00      	cmp	r3, #0
      60:	d102      	bne.n	68 <connections_add+0x20>
/usr/src/app/examples/example_trustzone/ta2/ta2.c:45
      62:	f04f 0300 	mov.w	r3, #0
      66:	e02f      	b.n	c8 <connections_add+0x80>
/usr/src/app/examples/example_trustzone/ta2/ta2.c:47
      68:	4b1a      	ldr	r3, [pc, #104]	; (d4 <connections_add+0x8c>)
      6a:	447b      	add	r3, pc
      6c:	4618      	mov	r0, r3
      6e:	f004 ff23 	bl	4eb8 <puts>
/usr/src/app/examples/example_trustzone/ta2/ta2.c:48
      72:	f04f 0300 	mov.w	r3, #0
      76:	60fb      	str	r3, [r7, #12]
      78:	e00f      	b.n	9a <connections_add+0x52>
/usr/src/app/examples/example_trustzone/ta2/ta2.c:49 (discriminator 3)
      7a:	687a      	ldr	r2, [r7, #4]
      7c:	68fb      	ldr	r3, [r7, #12]
      7e:	4413      	add	r3, r2
      80:	f103 0308 	add.w	r3, r3, #8
      84:	781b      	ldrb	r3, [r3, #0]
      86:	4619      	mov	r1, r3
      88:	4b13      	ldr	r3, [pc, #76]	; (d8 <connections_add+0x90>)
      8a:	447b      	add	r3, pc
      8c:	4618      	mov	r0, r3
      8e:	f004 fed9 	bl	4e44 <printf>
/usr/src/app/examples/example_trustzone/ta2/ta2.c:48 (discriminator 3)
      92:	68fb      	ldr	r3, [r7, #12]
      94:	f103 0301 	add.w	r3, r3, #1
      98:	60fb      	str	r3, [r7, #12]
/usr/src/app/examples/example_trustzone/ta2/ta2.c:48 (discriminator 1)
      9a:	68fb      	ldr	r3, [r7, #12]
      9c:	2b0f      	cmp	r3, #15
      9e:	ddec      	ble.n	7a <connections_add+0x32>
/usr/src/app/examples/example_trustzone/ta2/ta2.c:52
      a0:	68ba      	ldr	r2, [r7, #8]
      a2:	687b      	ldr	r3, [r7, #4]
      a4:	4610      	mov	r0, r2
      a6:	4619      	mov	r1, r3
      a8:	f04f 0318 	mov.w	r3, #24
      ac:	461a      	mov	r2, r3
      ae:	f013 f84b 	bl	13148 <memcpy>
/usr/src/app/examples/example_trustzone/ta2/ta2.c:53
      b2:	4b0a      	ldr	r3, [pc, #40]	; (dc <connections_add+0x94>)
      b4:	447b      	add	r3, pc
      b6:	681a      	ldr	r2, [r3, #0]
      b8:	68bb      	ldr	r3, [r7, #8]
      ba:	619a      	str	r2, [r3, #24]
/usr/src/app/examples/example_trustzone/ta2/ta2.c:54
      bc:	4b08      	ldr	r3, [pc, #32]	; (e0 <connections_add+0x98>)
      be:	447b      	add	r3, pc
      c0:	68ba      	ldr	r2, [r7, #8]
      c2:	601a      	str	r2, [r3, #0]
/usr/src/app/examples/example_trustzone/ta2/ta2.c:55
      c4:	f04f 0301 	mov.w	r3, #1
/usr/src/app/examples/example_trustzone/ta2/ta2.c:56
      c8:	4618      	mov	r0, r3
      ca:	f107 0710 	add.w	r7, r7, #16
      ce:	46bd      	mov	sp, r7
      d0:	bd80      	pop	{r7, pc}
      d2:	bf00      	nop
      d4:	00014ada 	.word	0x00014ada
      d8:	00014ae2 	.word	0x00014ae2
      dc:	00018668 	.word	0x00018668
      e0:	0001865e 	.word	0x0001865e

000000e4 <connections_get>:
connections_get():
/usr/src/app/examples/example_trustzone/ta2/ta2.c:59
      e4:	e96d 7e02 	strd	r7, lr, [sp, #-8]!
      e8:	b086      	sub	sp, #24
      ea:	af00      	add	r7, sp, #0
      ec:	4603      	mov	r3, r0
      ee:	80fb      	strh	r3, [r7, #6]
/usr/src/app/examples/example_trustzone/ta2/ta2.c:60
      f0:	4b1b      	ldr	r3, [pc, #108]	; (160 <connections_get+0x7c>)
      f2:	447b      	add	r3, pc
      f4:	4618      	mov	r0, r3
      f6:	f004 fedf 	bl	4eb8 <puts>
/usr/src/app/examples/example_trustzone/ta2/ta2.c:61
      fa:	4b1a      	ldr	r3, [pc, #104]	; (164 <connections_get+0x80>)
      fc:	447b      	add	r3, pc
      fe:	681b      	ldr	r3, [r3, #0]
     100:	617b      	str	r3, [r7, #20]
/usr/src/app/examples/example_trustzone/ta2/ta2.c:63
     102:	e022      	b.n	14a <connections_get+0x66>
/usr/src/app/examples/example_trustzone/ta2/ta2.c:64
     104:	697b      	ldr	r3, [r7, #20]
     106:	60fb      	str	r3, [r7, #12]
/usr/src/app/examples/example_trustzone/ta2/ta2.c:66
     108:	68fb      	ldr	r3, [r7, #12]
     10a:	885b      	ldrh	r3, [r3, #2]
     10c:	88fa      	ldrh	r2, [r7, #6]
     10e:	429a      	cmp	r2, r3
     110:	d118      	bne.n	144 <connections_get+0x60>
/usr/src/app/examples/example_trustzone/ta2/ta2.c:67
     112:	f04f 0300 	mov.w	r3, #0
     116:	613b      	str	r3, [r7, #16]
     118:	e00f      	b.n	13a <connections_get+0x56>
/usr/src/app/examples/example_trustzone/ta2/ta2.c:68 (discriminator 3)
     11a:	68fa      	ldr	r2, [r7, #12]
     11c:	693b      	ldr	r3, [r7, #16]
     11e:	4413      	add	r3, r2
     120:	f103 0308 	add.w	r3, r3, #8
     124:	781b      	ldrb	r3, [r3, #0]
     126:	4619      	mov	r1, r3
     128:	4b0f      	ldr	r3, [pc, #60]	; (168 <connections_get+0x84>)
     12a:	447b      	add	r3, pc
     12c:	4618      	mov	r0, r3
     12e:	f004 fe89 	bl	4e44 <printf>
/usr/src/app/examples/example_trustzone/ta2/ta2.c:67 (discriminator 3)
     132:	693b      	ldr	r3, [r7, #16]
     134:	f103 0301 	add.w	r3, r3, #1
     138:	613b      	str	r3, [r7, #16]
/usr/src/app/examples/example_trustzone/ta2/ta2.c:67 (discriminator 1)
     13a:	693b      	ldr	r3, [r7, #16]
     13c:	2b0f      	cmp	r3, #15
     13e:	ddec      	ble.n	11a <connections_get+0x36>
/usr/src/app/examples/example_trustzone/ta2/ta2.c:69
     140:	68fb      	ldr	r3, [r7, #12]
     142:	e007      	b.n	154 <connections_get+0x70>
/usr/src/app/examples/example_trustzone/ta2/ta2.c:72
     144:	697b      	ldr	r3, [r7, #20]
     146:	699b      	ldr	r3, [r3, #24]
     148:	617b      	str	r3, [r7, #20]
/usr/src/app/examples/example_trustzone/ta2/ta2.c:63
     14a:	697b      	ldr	r3, [r7, #20]
     14c:	2b00      	cmp	r3, #0
     14e:	d1d9      	bne.n	104 <connections_get+0x20>
/usr/src/app/examples/example_trustzone/ta2/ta2.c:75
     150:	f04f 0300 	mov.w	r3, #0
/usr/src/app/examples/example_trustzone/ta2/ta2.c:76
     154:	4618      	mov	r0, r3
     156:	f107 0718 	add.w	r7, r7, #24
     15a:	46bd      	mov	sp, r7
     15c:	bd80      	pop	{r7, pc}
     15e:	bf00      	nop
     160:	00014a82 	.word	0x00014a82
     164:	00018620 	.word	0x00018620
     168:	00014a42 	.word	0x00014a42

0000016c <find_connections>:
find_connections():
/usr/src/app/examples/example_trustzone/ta2/ta2.c:79
     16c:	e96d 7e02 	strd	r7, lr, [sp, #-8]!
     170:	b086      	sub	sp, #24
     172:	af00      	add	r7, sp, #0
     174:	4603      	mov	r3, r0
     176:	60b9      	str	r1, [r7, #8]
     178:	607a      	str	r2, [r7, #4]
     17a:	81fb      	strh	r3, [r7, #14]
/usr/src/app/examples/example_trustzone/ta2/ta2.c:80
     17c:	4b1d      	ldr	r3, [pc, #116]	; (1f4 <find_connections+0x88>)
     17e:	447b      	add	r3, pc
     180:	4618      	mov	r0, r3
     182:	f004 fe5f 	bl	4e44 <printf>
/usr/src/app/examples/example_trustzone/ta2/ta2.c:81
     186:	4b1c      	ldr	r3, [pc, #112]	; (1f8 <find_connections+0x8c>)
     188:	447b      	add	r3, pc
     18a:	681b      	ldr	r3, [r3, #0]
     18c:	617b      	str	r3, [r7, #20]
/usr/src/app/examples/example_trustzone/ta2/ta2.c:83
     18e:	e027      	b.n	1e0 <find_connections+0x74>
/usr/src/app/examples/example_trustzone/ta2/ta2.c:84
     190:	697b      	ldr	r3, [r7, #20]
     192:	613b      	str	r3, [r7, #16]
/usr/src/app/examples/example_trustzone/ta2/ta2.c:86
     194:	693b      	ldr	r3, [r7, #16]
     196:	889b      	ldrh	r3, [r3, #4]
     198:	89fa      	ldrh	r2, [r7, #14]
     19a:	429a      	cmp	r2, r3
     19c:	d11d      	bne.n	1da <find_connections+0x6e>
/usr/src/app/examples/example_trustzone/ta2/ta2.c:87
     19e:	693b      	ldr	r3, [r7, #16]
     1a0:	8859      	ldrh	r1, [r3, #2]
     1a2:	687b      	ldr	r3, [r7, #4]
     1a4:	781b      	ldrb	r3, [r3, #0]
     1a6:	ea4f 0383 	mov.w	r3, r3, lsl #2
     1aa:	68ba      	ldr	r2, [r7, #8]
     1ac:	4413      	add	r3, r2
     1ae:	460a      	mov	r2, r1
     1b0:	601a      	str	r2, [r3, #0]
/usr/src/app/examples/example_trustzone/ta2/ta2.c:88
     1b2:	687b      	ldr	r3, [r7, #4]
     1b4:	781b      	ldrb	r3, [r3, #0]
     1b6:	ea4f 0383 	mov.w	r3, r3, lsl #2
     1ba:	68ba      	ldr	r2, [r7, #8]
     1bc:	4413      	add	r3, r2
     1be:	681b      	ldr	r3, [r3, #0]
     1c0:	4619      	mov	r1, r3
     1c2:	4b0e      	ldr	r3, [pc, #56]	; (1fc <find_connections+0x90>)
     1c4:	447b      	add	r3, pc
     1c6:	4618      	mov	r0, r3
     1c8:	f004 fe3c 	bl	4e44 <printf>
/usr/src/app/examples/example_trustzone/ta2/ta2.c:89
     1cc:	687b      	ldr	r3, [r7, #4]
     1ce:	781b      	ldrb	r3, [r3, #0]
     1d0:	f103 0301 	add.w	r3, r3, #1
     1d4:	b2da      	uxtb	r2, r3
     1d6:	687b      	ldr	r3, [r7, #4]
     1d8:	701a      	strb	r2, [r3, #0]
/usr/src/app/examples/example_trustzone/ta2/ta2.c:92
     1da:	697b      	ldr	r3, [r7, #20]
     1dc:	699b      	ldr	r3, [r3, #24]
     1de:	617b      	str	r3, [r7, #20]
/usr/src/app/examples/example_trustzone/ta2/ta2.c:83
     1e0:	697b      	ldr	r3, [r7, #20]
     1e2:	2b00      	cmp	r3, #0
     1e4:	d1d4      	bne.n	190 <find_connections+0x24>
/usr/src/app/examples/example_trustzone/ta2/ta2.c:95
     1e6:	bf00      	nop
     1e8:	bf00      	nop
     1ea:	f107 0718 	add.w	r7, r7, #24
     1ee:	46bd      	mov	sp, r7
     1f0:	bd80      	pop	{r7, pc}
     1f2:	bf00      	nop
     1f4:	00014a26 	.word	0x00014a26
     1f8:	00018594 	.word	0x00018594
     1fc:	00014a18 	.word	0x00014a18

00000200 <ta2tee_algo_id>:
ta2tee_algo_id():
/usr/src/app/examples/example_trustzone/ta2/ta2.c:112
     200:	e96d 7e02 	strd	r7, lr, [sp, #-8]!
     204:	b084      	sub	sp, #16
     206:	af02      	add	r7, sp, #8
     208:	6078      	str	r0, [r7, #4]
     20a:	6039      	str	r1, [r7, #0]
/usr/src/app/examples/example_trustzone/ta2/ta2.c:113
     20c:	687b      	ldr	r3, [r7, #4]
     20e:	2b02      	cmp	r3, #2
     210:	d01b      	beq.n	24a <ta2tee_algo_id+0x4a>
     212:	687b      	ldr	r3, [r7, #4]
     214:	2b02      	cmp	r3, #2
     216:	d821      	bhi.n	25c <ta2tee_algo_id+0x5c>
     218:	687b      	ldr	r3, [r7, #4]
     21a:	2b00      	cmp	r3, #0
     21c:	d003      	beq.n	226 <ta2tee_algo_id+0x26>
     21e:	687b      	ldr	r3, [r7, #4]
     220:	2b01      	cmp	r3, #1
     222:	d009      	beq.n	238 <ta2tee_algo_id+0x38>
     224:	e01a      	b.n	25c <ta2tee_algo_id+0x5c>
/usr/src/app/examples/example_trustzone/ta2/ta2.c:115
     226:	683a      	ldr	r2, [r7, #0]
     228:	f04f 0310 	mov.w	r3, #16
     22c:	f2c1 0300 	movt	r3, #4096	; 0x1000
     230:	6013      	str	r3, [r2, #0]
/usr/src/app/examples/example_trustzone/ta2/ta2.c:116
     232:	f04f 0300 	mov.w	r3, #0
     236:	e024      	b.n	282 <ta2tee_algo_id+0x82>
/usr/src/app/examples/example_trustzone/ta2/ta2.c:118
     238:	683a      	ldr	r2, [r7, #0]
     23a:	f44f 7388 	mov.w	r3, #272	; 0x110
     23e:	f2c1 0300 	movt	r3, #4096	; 0x1000
     242:	6013      	str	r3, [r2, #0]
/usr/src/app/examples/example_trustzone/ta2/ta2.c:119
     244:	f04f 0300 	mov.w	r3, #0
     248:	e01b      	b.n	282 <ta2tee_algo_id+0x82>
/usr/src/app/examples/example_trustzone/ta2/ta2.c:121
     24a:	683a      	ldr	r2, [r7, #0]
     24c:	f44f 6301 	mov.w	r3, #2064	; 0x810
     250:	f2c4 0300 	movt	r3, #16384	; 0x4000
     254:	6013      	str	r3, [r2, #0]
/usr/src/app/examples/example_trustzone/ta2/ta2.c:122
     256:	f04f 0300 	mov.w	r3, #0
     25a:	e012      	b.n	282 <ta2tee_algo_id+0x82>
/usr/src/app/examples/example_trustzone/ta2/ta2.c:124
     25c:	687b      	ldr	r3, [r7, #4]
     25e:	9301      	str	r3, [sp, #4]
     260:	4b0a      	ldr	r3, [pc, #40]	; (28c <ta2tee_algo_id+0x8c>)
     262:	447b      	add	r3, pc
     264:	9300      	str	r3, [sp, #0]
     266:	f04f 0301 	mov.w	r3, #1
     26a:	f04f 0201 	mov.w	r2, #1
     26e:	f04f 017c 	mov.w	r1, #124	; 0x7c
     272:	4807      	ldr	r0, [pc, #28]	; (290 <ta2tee_algo_id+0x90>)
     274:	4478      	add	r0, pc
     276:	f003 fb0e 	bl	3896 <trace_printf>
/usr/src/app/examples/example_trustzone/ta2/ta2.c:125
     27a:	f04f 0306 	mov.w	r3, #6
     27e:	f6cf 73ff 	movt	r3, #65535	; 0xffff
/usr/src/app/examples/example_trustzone/ta2/ta2.c:127
     282:	4618      	mov	r0, r3
     284:	f107 0708 	add.w	r7, r7, #8
     288:	46bd      	mov	sp, r7
     28a:	bd80      	pop	{r7, pc}
     28c:	00014986 	.word	0x00014986
     290:	00014e1c 	.word	0x00014e1c

00000294 <ta2tee_key_size>:
ta2tee_key_size():
/usr/src/app/examples/example_trustzone/ta2/ta2.c:129
     294:	e96d 7e02 	strd	r7, lr, [sp, #-8]!
     298:	b084      	sub	sp, #16
     29a:	af02      	add	r7, sp, #8
     29c:	6078      	str	r0, [r7, #4]
     29e:	6039      	str	r1, [r7, #0]
/usr/src/app/examples/example_trustzone/ta2/ta2.c:130
     2a0:	687b      	ldr	r3, [r7, #4]
     2a2:	2b10      	cmp	r3, #16
     2a4:	d105      	bne.n	2b2 <ta2tee_key_size+0x1e>
/usr/src/app/examples/example_trustzone/ta2/ta2.c:132
     2a6:	683b      	ldr	r3, [r7, #0]
     2a8:	687a      	ldr	r2, [r7, #4]
     2aa:	601a      	str	r2, [r3, #0]
/usr/src/app/examples/example_trustzone/ta2/ta2.c:133
     2ac:	f04f 0300 	mov.w	r3, #0
     2b0:	e012      	b.n	2d8 <ta2tee_key_size+0x44>
/usr/src/app/examples/example_trustzone/ta2/ta2.c:135
     2b2:	687b      	ldr	r3, [r7, #4]
     2b4:	9301      	str	r3, [sp, #4]
     2b6:	4b0b      	ldr	r3, [pc, #44]	; (2e4 <ta2tee_key_size+0x50>)
     2b8:	447b      	add	r3, pc
     2ba:	9300      	str	r3, [sp, #0]
     2bc:	f04f 0301 	mov.w	r3, #1
     2c0:	f04f 0201 	mov.w	r2, #1
     2c4:	f04f 0187 	mov.w	r1, #135	; 0x87
     2c8:	4807      	ldr	r0, [pc, #28]	; (2e8 <ta2tee_key_size+0x54>)
     2ca:	4478      	add	r0, pc
     2cc:	f003 fae3 	bl	3896 <trace_printf>
/usr/src/app/examples/example_trustzone/ta2/ta2.c:136
     2d0:	f04f 0306 	mov.w	r3, #6
     2d4:	f6cf 73ff 	movt	r3, #65535	; 0xffff
/usr/src/app/examples/example_trustzone/ta2/ta2.c:138
     2d8:	4618      	mov	r0, r3
     2da:	f107 0708 	add.w	r7, r7, #8
     2de:	46bd      	mov	sp, r7
     2e0:	bd80      	pop	{r7, pc}
     2e2:	bf00      	nop
     2e4:	00014940 	.word	0x00014940
     2e8:	00014dd6 	.word	0x00014dd6

000002ec <ta2tee_mode_id>:
ta2tee_mode_id():
/usr/src/app/examples/example_trustzone/ta2/ta2.c:140
     2ec:	e96d 7e02 	strd	r7, lr, [sp, #-8]!
     2f0:	b084      	sub	sp, #16
     2f2:	af02      	add	r7, sp, #8
     2f4:	6078      	str	r0, [r7, #4]
     2f6:	6039      	str	r1, [r7, #0]
/usr/src/app/examples/example_trustzone/ta2/ta2.c:141
     2f8:	687b      	ldr	r3, [r7, #4]
     2fa:	2b00      	cmp	r3, #0
     2fc:	d009      	beq.n	312 <ta2tee_mode_id+0x26>
     2fe:	687b      	ldr	r3, [r7, #4]
     300:	2b01      	cmp	r3, #1
     302:	d10d      	bne.n	320 <ta2tee_mode_id+0x34>
/usr/src/app/examples/example_trustzone/ta2/ta2.c:143
     304:	683b      	ldr	r3, [r7, #0]
     306:	f04f 0200 	mov.w	r2, #0
     30a:	601a      	str	r2, [r3, #0]
/usr/src/app/examples/example_trustzone/ta2/ta2.c:144
     30c:	f04f 0300 	mov.w	r3, #0
     310:	e019      	b.n	346 <ta2tee_mode_id+0x5a>
/usr/src/app/examples/example_trustzone/ta2/ta2.c:146
     312:	683b      	ldr	r3, [r7, #0]
     314:	f04f 0201 	mov.w	r2, #1
     318:	601a      	str	r2, [r3, #0]
/usr/src/app/examples/example_trustzone/ta2/ta2.c:147
     31a:	f04f 0300 	mov.w	r3, #0
     31e:	e012      	b.n	346 <ta2tee_mode_id+0x5a>
/usr/src/app/examples/example_trustzone/ta2/ta2.c:149
     320:	687b      	ldr	r3, [r7, #4]
     322:	9301      	str	r3, [sp, #4]
     324:	4b0a      	ldr	r3, [pc, #40]	; (350 <ta2tee_mode_id+0x64>)
     326:	447b      	add	r3, pc
     328:	9300      	str	r3, [sp, #0]
     32a:	f04f 0301 	mov.w	r3, #1
     32e:	f04f 0201 	mov.w	r2, #1
     332:	f04f 0195 	mov.w	r1, #149	; 0x95
     336:	4807      	ldr	r0, [pc, #28]	; (354 <ta2tee_mode_id+0x68>)
     338:	4478      	add	r0, pc
     33a:	f003 faac 	bl	3896 <trace_printf>
/usr/src/app/examples/example_trustzone/ta2/ta2.c:150
     33e:	f04f 0306 	mov.w	r3, #6
     342:	f6cf 73ff 	movt	r3, #65535	; 0xffff
/usr/src/app/examples/example_trustzone/ta2/ta2.c:152
     346:	4618      	mov	r0, r3
     348:	f107 0708 	add.w	r7, r7, #8
     34c:	46bd      	mov	sp, r7
     34e:	bd80      	pop	{r7, pc}
     350:	000148e6 	.word	0x000148e6
     354:	00014d78 	.word	0x00014d78

00000358 <alloc_resources>:
alloc_resources():
/usr/src/app/examples/example_trustzone/ta2/ta2.c:155
     358:	e96d 7e02 	strd	r7, lr, [sp, #-8]!
     35c:	b08c      	sub	sp, #48	; 0x30
     35e:	af02      	add	r7, sp, #8
     360:	60f8      	str	r0, [r7, #12]
     362:	60b9      	str	r1, [r7, #8]
     364:	607a      	str	r2, [r7, #4]
     366:	603b      	str	r3, [r7, #0]
/usr/src/app/examples/example_trustzone/ta2/ta2.c:163
     368:	68fb      	ldr	r3, [r7, #12]
     36a:	9301      	str	r3, [sp, #4]
     36c:	4b80      	ldr	r3, [pc, #512]	; (570 <alloc_resources+0x218>)
     36e:	447b      	add	r3, pc
     370:	9300      	str	r3, [sp, #0]
     372:	f04f 0301 	mov.w	r3, #1
     376:	f04f 0203 	mov.w	r2, #3
     37a:	f04f 01a3 	mov.w	r1, #163	; 0xa3
     37e:	487d      	ldr	r0, [pc, #500]	; (574 <alloc_resources+0x21c>)
     380:	4478      	add	r0, pc
     382:	f003 fa88 	bl	3896 <trace_printf>
/usr/src/app/examples/example_trustzone/ta2/ta2.c:164
     386:	68fb      	ldr	r3, [r7, #12]
     388:	623b      	str	r3, [r7, #32]
/usr/src/app/examples/example_trustzone/ta2/ta2.c:166
     38a:	6a3b      	ldr	r3, [r7, #32]
     38c:	4619      	mov	r1, r3
     38e:	68b8      	ldr	r0, [r7, #8]
     390:	f7ff ff36 	bl	200 <ta2tee_algo_id>
     394:	6278      	str	r0, [r7, #36]	; 0x24
/usr/src/app/examples/example_trustzone/ta2/ta2.c:167
     396:	6a7b      	ldr	r3, [r7, #36]	; 0x24
     398:	2b00      	cmp	r3, #0
     39a:	d001      	beq.n	3a0 <alloc_resources+0x48>
/usr/src/app/examples/example_trustzone/ta2/ta2.c:168
     39c:	6a7b      	ldr	r3, [r7, #36]	; 0x24
     39e:	e0e2      	b.n	566 <alloc_resources+0x20e>
/usr/src/app/examples/example_trustzone/ta2/ta2.c:170
     3a0:	6a3b      	ldr	r3, [r7, #32]
     3a2:	f103 0308 	add.w	r3, r3, #8
     3a6:	4619      	mov	r1, r3
     3a8:	6878      	ldr	r0, [r7, #4]
     3aa:	f7ff ff73 	bl	294 <ta2tee_key_size>
     3ae:	6278      	str	r0, [r7, #36]	; 0x24
/usr/src/app/examples/example_trustzone/ta2/ta2.c:171
     3b0:	6a7b      	ldr	r3, [r7, #36]	; 0x24
     3b2:	2b00      	cmp	r3, #0
     3b4:	d001      	beq.n	3ba <alloc_resources+0x62>
/usr/src/app/examples/example_trustzone/ta2/ta2.c:172
     3b6:	6a7b      	ldr	r3, [r7, #36]	; 0x24
     3b8:	e0d5      	b.n	566 <alloc_resources+0x20e>
/usr/src/app/examples/example_trustzone/ta2/ta2.c:174
     3ba:	6a3b      	ldr	r3, [r7, #32]
     3bc:	f103 0304 	add.w	r3, r3, #4
     3c0:	4619      	mov	r1, r3
     3c2:	6838      	ldr	r0, [r7, #0]
     3c4:	f7ff ff92 	bl	2ec <ta2tee_mode_id>
     3c8:	6278      	str	r0, [r7, #36]	; 0x24
/usr/src/app/examples/example_trustzone/ta2/ta2.c:175
     3ca:	6a7b      	ldr	r3, [r7, #36]	; 0x24
     3cc:	2b00      	cmp	r3, #0
     3ce:	d001      	beq.n	3d4 <alloc_resources+0x7c>
/usr/src/app/examples/example_trustzone/ta2/ta2.c:176
     3d0:	6a7b      	ldr	r3, [r7, #36]	; 0x24
     3d2:	e0c8      	b.n	566 <alloc_resources+0x20e>
/usr/src/app/examples/example_trustzone/ta2/ta2.c:178
     3d4:	6a3b      	ldr	r3, [r7, #32]
     3d6:	68db      	ldr	r3, [r3, #12]
     3d8:	2b00      	cmp	r3, #0
     3da:	d004      	beq.n	3e6 <alloc_resources+0x8e>
/usr/src/app/examples/example_trustzone/ta2/ta2.c:179
     3dc:	6a3b      	ldr	r3, [r7, #32]
     3de:	68db      	ldr	r3, [r3, #12]
     3e0:	4618      	mov	r0, r3
     3e2:	f006 fb4f 	bl	6a84 <TEE_FreeOperation>
/usr/src/app/examples/example_trustzone/ta2/ta2.c:182
     3e6:	6a3b      	ldr	r3, [r7, #32]
     3e8:	f103 000c 	add.w	r0, r3, #12
     3ec:	6a3b      	ldr	r3, [r7, #32]
     3ee:	6819      	ldr	r1, [r3, #0]
     3f0:	6a3b      	ldr	r3, [r7, #32]
     3f2:	685a      	ldr	r2, [r3, #4]
/usr/src/app/examples/example_trustzone/ta2/ta2.c:185
     3f4:	6a3b      	ldr	r3, [r7, #32]
     3f6:	689b      	ldr	r3, [r3, #8]
/usr/src/app/examples/example_trustzone/ta2/ta2.c:182
     3f8:	ea4f 03c3 	mov.w	r3, r3, lsl #3
     3fc:	f005 fc44 	bl	5c88 <TEE_AllocateOperation>
     400:	6278      	str	r0, [r7, #36]	; 0x24
/usr/src/app/examples/example_trustzone/ta2/ta2.c:186
     402:	6a7b      	ldr	r3, [r7, #36]	; 0x24
     404:	2b00      	cmp	r3, #0
     406:	d011      	beq.n	42c <alloc_resources+0xd4>
/usr/src/app/examples/example_trustzone/ta2/ta2.c:187
     408:	4b5b      	ldr	r3, [pc, #364]	; (578 <alloc_resources+0x220>)
     40a:	447b      	add	r3, pc
     40c:	9300      	str	r3, [sp, #0]
     40e:	f04f 0301 	mov.w	r3, #1
     412:	f04f 0201 	mov.w	r2, #1
     416:	f04f 01bb 	mov.w	r1, #187	; 0xbb
     41a:	4858      	ldr	r0, [pc, #352]	; (57c <alloc_resources+0x224>)
     41c:	4478      	add	r0, pc
     41e:	f003 fa3a 	bl	3896 <trace_printf>
/usr/src/app/examples/example_trustzone/ta2/ta2.c:188
     422:	6a3b      	ldr	r3, [r7, #32]
     424:	f04f 0200 	mov.w	r2, #0
     428:	60da      	str	r2, [r3, #12]
/usr/src/app/examples/example_trustzone/ta2/ta2.c:189
     42a:	e081      	b.n	530 <alloc_resources+0x1d8>
/usr/src/app/examples/example_trustzone/ta2/ta2.c:193
     42c:	6a3b      	ldr	r3, [r7, #32]
     42e:	691b      	ldr	r3, [r3, #16]
     430:	2b00      	cmp	r3, #0
     432:	d004      	beq.n	43e <alloc_resources+0xe6>
/usr/src/app/examples/example_trustzone/ta2/ta2.c:194
     434:	6a3b      	ldr	r3, [r7, #32]
     436:	691b      	ldr	r3, [r3, #16]
     438:	4618      	mov	r0, r3
     43a:	f013 fc7c 	bl	13d36 <TEE_FreeTransientObject>
/usr/src/app/examples/example_trustzone/ta2/ta2.c:198
     43e:	6a3b      	ldr	r3, [r7, #32]
     440:	689b      	ldr	r3, [r3, #8]
/usr/src/app/examples/example_trustzone/ta2/ta2.c:197
     442:	ea4f 01c3 	mov.w	r1, r3, lsl #3
     446:	6a3b      	ldr	r3, [r7, #32]
     448:	f103 0310 	add.w	r3, r3, #16
     44c:	461a      	mov	r2, r3
     44e:	f04f 0010 	mov.w	r0, #16
     452:	f2ca 0000 	movt	r0, #40960	; 0xa000
     456:	f013 fc39 	bl	13ccc <TEE_AllocateTransientObject>
     45a:	6278      	str	r0, [r7, #36]	; 0x24
/usr/src/app/examples/example_trustzone/ta2/ta2.c:200
     45c:	6a7b      	ldr	r3, [r7, #36]	; 0x24
     45e:	2b00      	cmp	r3, #0
     460:	d011      	beq.n	486 <alloc_resources+0x12e>
/usr/src/app/examples/example_trustzone/ta2/ta2.c:201
     462:	4b47      	ldr	r3, [pc, #284]	; (580 <alloc_resources+0x228>)
     464:	447b      	add	r3, pc
     466:	9300      	str	r3, [sp, #0]
     468:	f04f 0301 	mov.w	r3, #1
     46c:	f04f 0201 	mov.w	r2, #1
     470:	f04f 01c9 	mov.w	r1, #201	; 0xc9
     474:	4843      	ldr	r0, [pc, #268]	; (584 <alloc_resources+0x22c>)
     476:	4478      	add	r0, pc
     478:	f003 fa0d 	bl	3896 <trace_printf>
/usr/src/app/examples/example_trustzone/ta2/ta2.c:202
     47c:	6a3b      	ldr	r3, [r7, #32]
     47e:	f04f 0200 	mov.w	r2, #0
     482:	611a      	str	r2, [r3, #16]
/usr/src/app/examples/example_trustzone/ta2/ta2.c:203
     484:	e054      	b.n	530 <alloc_resources+0x1d8>
/usr/src/app/examples/example_trustzone/ta2/ta2.c:206
     486:	6a3b      	ldr	r3, [r7, #32]
     488:	689b      	ldr	r3, [r3, #8]
     48a:	f04f 0100 	mov.w	r1, #0
     48e:	4618      	mov	r0, r3
     490:	f005 f9e6 	bl	5860 <TEE_Malloc>
     494:	61f8      	str	r0, [r7, #28]
/usr/src/app/examples/example_trustzone/ta2/ta2.c:207
     496:	69fb      	ldr	r3, [r7, #28]
     498:	2b00      	cmp	r3, #0
     49a:	d105      	bne.n	4a8 <alloc_resources+0x150>
/usr/src/app/examples/example_trustzone/ta2/ta2.c:208
     49c:	f04f 030c 	mov.w	r3, #12
     4a0:	f6cf 73ff 	movt	r3, #65535	; 0xffff
     4a4:	627b      	str	r3, [r7, #36]	; 0x24
/usr/src/app/examples/example_trustzone/ta2/ta2.c:209
     4a6:	e043      	b.n	530 <alloc_resources+0x1d8>
/usr/src/app/examples/example_trustzone/ta2/ta2.c:212
     4a8:	6a3b      	ldr	r3, [r7, #32]
     4aa:	689b      	ldr	r3, [r3, #8]
     4ac:	f107 0010 	add.w	r0, r7, #16
     4b0:	69fa      	ldr	r2, [r7, #28]
     4b2:	f04f 4140 	mov.w	r1, #3221225472	; 0xc0000000
     4b6:	f013 fd50 	bl	13f5a <TEE_InitRefAttribute>
/usr/src/app/examples/example_trustzone/ta2/ta2.c:214
     4ba:	6a3b      	ldr	r3, [r7, #32]
     4bc:	691b      	ldr	r3, [r3, #16]
     4be:	f107 0110 	add.w	r1, r7, #16
     4c2:	f04f 0201 	mov.w	r2, #1
     4c6:	4618      	mov	r0, r3
     4c8:	f013 fc95 	bl	13df6 <TEE_PopulateTransientObject>
     4cc:	6278      	str	r0, [r7, #36]	; 0x24
/usr/src/app/examples/example_trustzone/ta2/ta2.c:215
     4ce:	6a7b      	ldr	r3, [r7, #36]	; 0x24
     4d0:	2b00      	cmp	r3, #0
     4d2:	d00f      	beq.n	4f4 <alloc_resources+0x19c>
/usr/src/app/examples/example_trustzone/ta2/ta2.c:216
     4d4:	6a7b      	ldr	r3, [r7, #36]	; 0x24
     4d6:	9301      	str	r3, [sp, #4]
     4d8:	4b2b      	ldr	r3, [pc, #172]	; (588 <alloc_resources+0x230>)
     4da:	447b      	add	r3, pc
     4dc:	9300      	str	r3, [sp, #0]
     4de:	f04f 0301 	mov.w	r3, #1
     4e2:	f04f 0201 	mov.w	r2, #1
     4e6:	f04f 01d8 	mov.w	r1, #216	; 0xd8
     4ea:	4828      	ldr	r0, [pc, #160]	; (58c <alloc_resources+0x234>)
     4ec:	4478      	add	r0, pc
     4ee:	f003 f9d2 	bl	3896 <trace_printf>
/usr/src/app/examples/example_trustzone/ta2/ta2.c:217
     4f2:	e01d      	b.n	530 <alloc_resources+0x1d8>
/usr/src/app/examples/example_trustzone/ta2/ta2.c:220
     4f4:	6a3b      	ldr	r3, [r7, #32]
     4f6:	68da      	ldr	r2, [r3, #12]
     4f8:	6a3b      	ldr	r3, [r7, #32]
     4fa:	691b      	ldr	r3, [r3, #16]
     4fc:	4619      	mov	r1, r3
     4fe:	4610      	mov	r0, r2
     500:	f006 fc42 	bl	6d88 <TEE_SetOperationKey>
     504:	6278      	str	r0, [r7, #36]	; 0x24
/usr/src/app/examples/example_trustzone/ta2/ta2.c:221
     506:	6a7b      	ldr	r3, [r7, #36]	; 0x24
     508:	2b00      	cmp	r3, #0
     50a:	d00f      	beq.n	52c <alloc_resources+0x1d4>
/usr/src/app/examples/example_trustzone/ta2/ta2.c:222
     50c:	6a7b      	ldr	r3, [r7, #36]	; 0x24
     50e:	9301      	str	r3, [sp, #4]
     510:	4b1f      	ldr	r3, [pc, #124]	; (590 <alloc_resources+0x238>)
     512:	447b      	add	r3, pc
     514:	9300      	str	r3, [sp, #0]
     516:	f04f 0301 	mov.w	r3, #1
     51a:	f04f 0201 	mov.w	r2, #1
     51e:	f04f 01de 	mov.w	r1, #222	; 0xde
     522:	481c      	ldr	r0, [pc, #112]	; (594 <alloc_resources+0x23c>)
     524:	4478      	add	r0, pc
     526:	f003 f9b6 	bl	3896 <trace_printf>
/usr/src/app/examples/example_trustzone/ta2/ta2.c:223
     52a:	e001      	b.n	530 <alloc_resources+0x1d8>
/usr/src/app/examples/example_trustzone/ta2/ta2.c:226
     52c:	6a7b      	ldr	r3, [r7, #36]	; 0x24
     52e:	e01a      	b.n	566 <alloc_resources+0x20e>
/usr/src/app/examples/example_trustzone/ta2/ta2.c:229
     530:	6a3b      	ldr	r3, [r7, #32]
     532:	68db      	ldr	r3, [r3, #12]
     534:	2b00      	cmp	r3, #0
     536:	d004      	beq.n	542 <alloc_resources+0x1ea>
/usr/src/app/examples/example_trustzone/ta2/ta2.c:230
     538:	6a3b      	ldr	r3, [r7, #32]
     53a:	68db      	ldr	r3, [r3, #12]
     53c:	4618      	mov	r0, r3
     53e:	f006 faa1 	bl	6a84 <TEE_FreeOperation>
/usr/src/app/examples/example_trustzone/ta2/ta2.c:231
     542:	6a3b      	ldr	r3, [r7, #32]
     544:	f04f 0200 	mov.w	r2, #0
     548:	60da      	str	r2, [r3, #12]
/usr/src/app/examples/example_trustzone/ta2/ta2.c:233
     54a:	6a3b      	ldr	r3, [r7, #32]
     54c:	691b      	ldr	r3, [r3, #16]
     54e:	2b00      	cmp	r3, #0
     550:	d004      	beq.n	55c <alloc_resources+0x204>
/usr/src/app/examples/example_trustzone/ta2/ta2.c:234
     552:	6a3b      	ldr	r3, [r7, #32]
     554:	691b      	ldr	r3, [r3, #16]
     556:	4618      	mov	r0, r3
     558:	f013 fbed 	bl	13d36 <TEE_FreeTransientObject>
/usr/src/app/examples/example_trustzone/ta2/ta2.c:235
     55c:	6a3b      	ldr	r3, [r7, #32]
     55e:	f04f 0200 	mov.w	r2, #0
     562:	611a      	str	r2, [r3, #16]
/usr/src/app/examples/example_trustzone/ta2/ta2.c:237
     564:	6a7b      	ldr	r3, [r7, #36]	; 0x24
/usr/src/app/examples/example_trustzone/ta2/ta2.c:238 (discriminator 1)
     566:	4618      	mov	r0, r3
     568:	f107 0728 	add.w	r7, r7, #40	; 0x28
     56c:	46bd      	mov	sp, r7
     56e:	bd80      	pop	{r7, pc}
     570:	000148ae 	.word	0x000148ae
     574:	00014d40 	.word	0x00014d40
     578:	00014836 	.word	0x00014836
     57c:	00014ca4 	.word	0x00014ca4
     580:	000147fc 	.word	0x000147fc
     584:	00014c4a 	.word	0x00014c4a
     588:	000147aa 	.word	0x000147aa
     58c:	00014bd4 	.word	0x00014bd4
     590:	0001479a 	.word	0x0001479a
     594:	00014b9c 	.word	0x00014b9c

00000598 <set_aes_key>:
set_aes_key():
/usr/src/app/examples/example_trustzone/ta2/ta2.c:240
     598:	e96d 7e02 	strd	r7, lr, [sp, #-8]!
     59c:	b08e      	sub	sp, #56	; 0x38
     59e:	af04      	add	r7, sp, #16
     5a0:	60f8      	str	r0, [r7, #12]
     5a2:	60b9      	str	r1, [r7, #8]
     5a4:	607a      	str	r2, [r7, #4]
/usr/src/app/examples/example_trustzone/ta2/ta2.c:247
     5a6:	68fb      	ldr	r3, [r7, #12]
     5a8:	9301      	str	r3, [sp, #4]
     5aa:	4b4c      	ldr	r3, [pc, #304]	; (6dc <set_aes_key+0x144>)
     5ac:	447b      	add	r3, pc
     5ae:	9300      	str	r3, [sp, #0]
     5b0:	f04f 0301 	mov.w	r3, #1
     5b4:	f04f 0203 	mov.w	r2, #3
     5b8:	f04f 01f7 	mov.w	r1, #247	; 0xf7
     5bc:	4848      	ldr	r0, [pc, #288]	; (6e0 <set_aes_key+0x148>)
     5be:	4478      	add	r0, pc
     5c0:	f003 f969 	bl	3896 <trace_printf>
/usr/src/app/examples/example_trustzone/ta2/ta2.c:248
     5c4:	68fb      	ldr	r3, [r7, #12]
     5c6:	623b      	str	r3, [r7, #32]
/usr/src/app/examples/example_trustzone/ta2/ta2.c:252
     5c8:	4b46      	ldr	r3, [pc, #280]	; (6e4 <set_aes_key+0x14c>)
     5ca:	447b      	add	r3, pc
     5cc:	4618      	mov	r0, r3
     5ce:	f004 fc73 	bl	4eb8 <puts>
/usr/src/app/examples/example_trustzone/ta2/ta2.c:253
     5d2:	f04f 0300 	mov.w	r3, #0
     5d6:	627b      	str	r3, [r7, #36]	; 0x24
     5d8:	e00d      	b.n	5f6 <set_aes_key+0x5e>
/usr/src/app/examples/example_trustzone/ta2/ta2.c:254 (discriminator 3)
     5da:	6a7b      	ldr	r3, [r7, #36]	; 0x24
     5dc:	68ba      	ldr	r2, [r7, #8]
     5de:	4413      	add	r3, r2
     5e0:	781b      	ldrb	r3, [r3, #0]
     5e2:	4619      	mov	r1, r3
     5e4:	4b40      	ldr	r3, [pc, #256]	; (6e8 <set_aes_key+0x150>)
     5e6:	447b      	add	r3, pc
     5e8:	4618      	mov	r0, r3
     5ea:	f004 fc2b 	bl	4e44 <printf>
/usr/src/app/examples/example_trustzone/ta2/ta2.c:253 (discriminator 3)
     5ee:	6a7b      	ldr	r3, [r7, #36]	; 0x24
     5f0:	f103 0301 	add.w	r3, r3, #1
     5f4:	627b      	str	r3, [r7, #36]	; 0x24
/usr/src/app/examples/example_trustzone/ta2/ta2.c:253 (discriminator 1)
     5f6:	6a7b      	ldr	r3, [r7, #36]	; 0x24
     5f8:	2b0f      	cmp	r3, #15
     5fa:	ddee      	ble.n	5da <set_aes_key+0x42>
/usr/src/app/examples/example_trustzone/ta2/ta2.c:257
     5fc:	6a3b      	ldr	r3, [r7, #32]
     5fe:	689b      	ldr	r3, [r3, #8]
     600:	687a      	ldr	r2, [r7, #4]
     602:	429a      	cmp	r2, r3
     604:	d016      	beq.n	634 <set_aes_key+0x9c>
/usr/src/app/examples/example_trustzone/ta2/ta2.c:258
     606:	6a3b      	ldr	r3, [r7, #32]
     608:	689b      	ldr	r3, [r3, #8]
     60a:	9302      	str	r3, [sp, #8]
     60c:	687b      	ldr	r3, [r7, #4]
     60e:	9301      	str	r3, [sp, #4]
     610:	4b36      	ldr	r3, [pc, #216]	; (6ec <set_aes_key+0x154>)
     612:	447b      	add	r3, pc
     614:	9300      	str	r3, [sp, #0]
     616:	f04f 0301 	mov.w	r3, #1
     61a:	f04f 0201 	mov.w	r2, #1
     61e:	f44f 7181 	mov.w	r1, #258	; 0x102
     622:	4833      	ldr	r0, [pc, #204]	; (6f0 <set_aes_key+0x158>)
     624:	4478      	add	r0, pc
     626:	f003 f936 	bl	3896 <trace_printf>
/usr/src/app/examples/example_trustzone/ta2/ta2.c:260
     62a:	f04f 0306 	mov.w	r3, #6
     62e:	f6cf 73ff 	movt	r3, #65535	; 0xffff
     632:	e04d      	b.n	6d0 <set_aes_key+0x138>
/usr/src/app/examples/example_trustzone/ta2/ta2.c:263
     634:	f107 0010 	add.w	r0, r7, #16
     638:	687b      	ldr	r3, [r7, #4]
     63a:	68ba      	ldr	r2, [r7, #8]
     63c:	f04f 4140 	mov.w	r1, #3221225472	; 0xc0000000
     640:	f013 fc8b 	bl	13f5a <TEE_InitRefAttribute>
/usr/src/app/examples/example_trustzone/ta2/ta2.c:265
     644:	6a3b      	ldr	r3, [r7, #32]
     646:	691b      	ldr	r3, [r3, #16]
     648:	4618      	mov	r0, r3
     64a:	f013 fba4 	bl	13d96 <TEE_ResetTransientObject>
/usr/src/app/examples/example_trustzone/ta2/ta2.c:266
     64e:	6a3b      	ldr	r3, [r7, #32]
     650:	691b      	ldr	r3, [r3, #16]
     652:	f107 0110 	add.w	r1, r7, #16
     656:	f04f 0201 	mov.w	r2, #1
     65a:	4618      	mov	r0, r3
     65c:	f013 fbcb 	bl	13df6 <TEE_PopulateTransientObject>
     660:	61f8      	str	r0, [r7, #28]
/usr/src/app/examples/example_trustzone/ta2/ta2.c:267
     662:	69fb      	ldr	r3, [r7, #28]
     664:	2b00      	cmp	r3, #0
     666:	d010      	beq.n	68a <set_aes_key+0xf2>
/usr/src/app/examples/example_trustzone/ta2/ta2.c:268
     668:	69fb      	ldr	r3, [r7, #28]
     66a:	9301      	str	r3, [sp, #4]
     66c:	4b21      	ldr	r3, [pc, #132]	; (6f4 <set_aes_key+0x15c>)
     66e:	447b      	add	r3, pc
     670:	9300      	str	r3, [sp, #0]
     672:	f04f 0301 	mov.w	r3, #1
     676:	f04f 0201 	mov.w	r2, #1
     67a:	f44f 7186 	mov.w	r1, #268	; 0x10c
     67e:	481e      	ldr	r0, [pc, #120]	; (6f8 <set_aes_key+0x160>)
     680:	4478      	add	r0, pc
     682:	f003 f908 	bl	3896 <trace_printf>
/usr/src/app/examples/example_trustzone/ta2/ta2.c:269
     686:	69fb      	ldr	r3, [r7, #28]
     688:	e022      	b.n	6d0 <set_aes_key+0x138>
/usr/src/app/examples/example_trustzone/ta2/ta2.c:272
     68a:	6a3b      	ldr	r3, [r7, #32]
     68c:	68db      	ldr	r3, [r3, #12]
     68e:	4618      	mov	r0, r3
     690:	f006 fb3a 	bl	6d08 <TEE_ResetOperation>
/usr/src/app/examples/example_trustzone/ta2/ta2.c:273
     694:	6a3b      	ldr	r3, [r7, #32]
     696:	68da      	ldr	r2, [r3, #12]
     698:	6a3b      	ldr	r3, [r7, #32]
     69a:	691b      	ldr	r3, [r3, #16]
     69c:	4619      	mov	r1, r3
     69e:	4610      	mov	r0, r2
     6a0:	f006 fb72 	bl	6d88 <TEE_SetOperationKey>
     6a4:	61f8      	str	r0, [r7, #28]
/usr/src/app/examples/example_trustzone/ta2/ta2.c:274
     6a6:	69fb      	ldr	r3, [r7, #28]
     6a8:	2b00      	cmp	r3, #0
     6aa:	d010      	beq.n	6ce <set_aes_key+0x136>
/usr/src/app/examples/example_trustzone/ta2/ta2.c:275
     6ac:	69fb      	ldr	r3, [r7, #28]
     6ae:	9301      	str	r3, [sp, #4]
     6b0:	4b12      	ldr	r3, [pc, #72]	; (6fc <set_aes_key+0x164>)
     6b2:	447b      	add	r3, pc
     6b4:	9300      	str	r3, [sp, #0]
     6b6:	f04f 0301 	mov.w	r3, #1
     6ba:	f04f 0201 	mov.w	r2, #1
     6be:	f240 1113 	movw	r1, #275	; 0x113
     6c2:	480f      	ldr	r0, [pc, #60]	; (700 <set_aes_key+0x168>)
     6c4:	4478      	add	r0, pc
     6c6:	f003 f8e6 	bl	3896 <trace_printf>
/usr/src/app/examples/example_trustzone/ta2/ta2.c:276
     6ca:	69fb      	ldr	r3, [r7, #28]
     6cc:	e000      	b.n	6d0 <set_aes_key+0x138>
/usr/src/app/examples/example_trustzone/ta2/ta2.c:279
     6ce:	69fb      	ldr	r3, [r7, #28]
/usr/src/app/examples/example_trustzone/ta2/ta2.c:280 (discriminator 1)
     6d0:	4618      	mov	r0, r3
     6d2:	f107 0728 	add.w	r7, r7, #40	; 0x28
     6d6:	46bd      	mov	sp, r7
     6d8:	bd80      	pop	{r7, pc}
     6da:	bf00      	nop
     6dc:	00014720 	.word	0x00014720
     6e0:	00014b12 	.word	0x00014b12
     6e4:	00014722 	.word	0x00014722
     6e8:	00014586 	.word	0x00014586
     6ec:	00014706 	.word	0x00014706
     6f0:	00014aac 	.word	0x00014aac
     6f4:	00014616 	.word	0x00014616
     6f8:	00014a50 	.word	0x00014a50
     6fc:	000145fa 	.word	0x000145fa
     700:	00014a0c 	.word	0x00014a0c

00000704 <reset_aes_iv>:
reset_aes_iv():
/usr/src/app/examples/example_trustzone/ta2/ta2.c:283
     704:	e96d 7e02 	strd	r7, lr, [sp, #-8]!
     708:	b08a      	sub	sp, #40	; 0x28
     70a:	af02      	add	r7, sp, #8
     70c:	60f8      	str	r0, [r7, #12]
     70e:	60b9      	str	r1, [r7, #8]
     710:	607a      	str	r2, [r7, #4]
     712:	603b      	str	r3, [r7, #0]
/usr/src/app/examples/example_trustzone/ta2/ta2.c:288
     714:	68fb      	ldr	r3, [r7, #12]
     716:	9301      	str	r3, [sp, #4]
     718:	4b36      	ldr	r3, [pc, #216]	; (7f4 <reset_aes_iv+0xf0>)
     71a:	447b      	add	r3, pc
     71c:	9300      	str	r3, [sp, #0]
     71e:	f04f 0301 	mov.w	r3, #1
     722:	f04f 0203 	mov.w	r2, #3
     726:	f44f 7190 	mov.w	r1, #288	; 0x120
     72a:	4833      	ldr	r0, [pc, #204]	; (7f8 <reset_aes_iv+0xf4>)
     72c:	4478      	add	r0, pc
     72e:	f003 f8b2 	bl	3896 <trace_printf>
/usr/src/app/examples/example_trustzone/ta2/ta2.c:289
     732:	68fb      	ldr	r3, [r7, #12]
     734:	617b      	str	r3, [r7, #20]
/usr/src/app/examples/example_trustzone/ta2/ta2.c:291
     736:	4b31      	ldr	r3, [pc, #196]	; (7fc <reset_aes_iv+0xf8>)
     738:	447b      	add	r3, pc
     73a:	4618      	mov	r0, r3
     73c:	f004 fbbc 	bl	4eb8 <puts>
/usr/src/app/examples/example_trustzone/ta2/ta2.c:292
     740:	f04f 0300 	mov.w	r3, #0
     744:	61fb      	str	r3, [r7, #28]
     746:	e00d      	b.n	764 <reset_aes_iv+0x60>
/usr/src/app/examples/example_trustzone/ta2/ta2.c:293 (discriminator 3)
     748:	69fb      	ldr	r3, [r7, #28]
     74a:	68ba      	ldr	r2, [r7, #8]
     74c:	4413      	add	r3, r2
     74e:	781b      	ldrb	r3, [r3, #0]
     750:	4619      	mov	r1, r3
     752:	4b2b      	ldr	r3, [pc, #172]	; (800 <reset_aes_iv+0xfc>)
     754:	447b      	add	r3, pc
     756:	4618      	mov	r0, r3
     758:	f004 fb74 	bl	4e44 <printf>
/usr/src/app/examples/example_trustzone/ta2/ta2.c:292 (discriminator 3)
     75c:	69fb      	ldr	r3, [r7, #28]
     75e:	f103 0301 	add.w	r3, r3, #1
     762:	61fb      	str	r3, [r7, #28]
/usr/src/app/examples/example_trustzone/ta2/ta2.c:292 (discriminator 1)
     764:	69fb      	ldr	r3, [r7, #28]
     766:	687a      	ldr	r2, [r7, #4]
     768:	429a      	cmp	r2, r3
     76a:	d8ed      	bhi.n	748 <reset_aes_iv+0x44>
/usr/src/app/examples/example_trustzone/ta2/ta2.c:294
     76c:	f04f 000a 	mov.w	r0, #10
     770:	f004 fbbe 	bl	4ef0 <putchar>
/usr/src/app/examples/example_trustzone/ta2/ta2.c:295
     774:	f04f 0300 	mov.w	r3, #0
     778:	61bb      	str	r3, [r7, #24]
     77a:	e00d      	b.n	798 <reset_aes_iv+0x94>
/usr/src/app/examples/example_trustzone/ta2/ta2.c:296 (discriminator 3)
     77c:	69bb      	ldr	r3, [r7, #24]
     77e:	683a      	ldr	r2, [r7, #0]
     780:	4413      	add	r3, r2
     782:	781b      	ldrb	r3, [r3, #0]
     784:	4619      	mov	r1, r3
     786:	4b1f      	ldr	r3, [pc, #124]	; (804 <reset_aes_iv+0x100>)
     788:	447b      	add	r3, pc
     78a:	4618      	mov	r0, r3
     78c:	f004 fb5a 	bl	4e44 <printf>
/usr/src/app/examples/example_trustzone/ta2/ta2.c:295 (discriminator 3)
     790:	69bb      	ldr	r3, [r7, #24]
     792:	f103 0301 	add.w	r3, r3, #1
     796:	61bb      	str	r3, [r7, #24]
/usr/src/app/examples/example_trustzone/ta2/ta2.c:295 (discriminator 1)
     798:	69bb      	ldr	r3, [r7, #24]
     79a:	6aba      	ldr	r2, [r7, #40]	; 0x28
     79c:	429a      	cmp	r2, r3
     79e:	d8ed      	bhi.n	77c <reset_aes_iv+0x78>
/usr/src/app/examples/example_trustzone/ta2/ta2.c:298
     7a0:	4b19      	ldr	r3, [pc, #100]	; (808 <reset_aes_iv+0x104>)
     7a2:	447b      	add	r3, pc
     7a4:	4618      	mov	r0, r3
     7a6:	f004 fb4d 	bl	4e44 <printf>
/usr/src/app/examples/example_trustzone/ta2/ta2.c:300
     7aa:	697b      	ldr	r3, [r7, #20]
     7ac:	68d8      	ldr	r0, [r3, #12]
     7ae:	f04f 0310 	mov.w	r3, #16
     7b2:	9301      	str	r3, [sp, #4]
     7b4:	687b      	ldr	r3, [r7, #4]
     7b6:	9300      	str	r3, [sp, #0]
     7b8:	f04f 0380 	mov.w	r3, #128	; 0x80
     7bc:	6aba      	ldr	r2, [r7, #40]	; 0x28
     7be:	6839      	ldr	r1, [r7, #0]
     7c0:	f007 fb6f 	bl	7ea2 <TEE_AEInit>
/usr/src/app/examples/example_trustzone/ta2/ta2.c:302
     7c4:	4b11      	ldr	r3, [pc, #68]	; (80c <reset_aes_iv+0x108>)
     7c6:	447b      	add	r3, pc
     7c8:	4618      	mov	r0, r3
     7ca:	f004 fb3b 	bl	4e44 <printf>
/usr/src/app/examples/example_trustzone/ta2/ta2.c:304
     7ce:	697b      	ldr	r3, [r7, #20]
     7d0:	68db      	ldr	r3, [r3, #12]
     7d2:	687a      	ldr	r2, [r7, #4]
     7d4:	68b9      	ldr	r1, [r7, #8]
     7d6:	4618      	mov	r0, r3
     7d8:	f007 fbda 	bl	7f90 <TEE_AEUpdateAAD>
/usr/src/app/examples/example_trustzone/ta2/ta2.c:306
     7dc:	4b0c      	ldr	r3, [pc, #48]	; (810 <reset_aes_iv+0x10c>)
     7de:	447b      	add	r3, pc
     7e0:	4618      	mov	r0, r3
     7e2:	f004 fb2f 	bl	4e44 <printf>
/usr/src/app/examples/example_trustzone/ta2/ta2.c:308
     7e6:	f04f 0300 	mov.w	r3, #0
/usr/src/app/examples/example_trustzone/ta2/ta2.c:309
     7ea:	4618      	mov	r0, r3
     7ec:	f107 0720 	add.w	r7, r7, #32
     7f0:	46bd      	mov	sp, r7
     7f2:	bd80      	pop	{r7, pc}
     7f4:	00014622 	.word	0x00014622
     7f8:	000149b0 	.word	0x000149b0
     7fc:	00014628 	.word	0x00014628
     800:	00014418 	.word	0x00014418
     804:	000143e4 	.word	0x000143e4
     808:	000145f6 	.word	0x000145f6
     80c:	000145fa 	.word	0x000145fa
     810:	0001460a 	.word	0x0001460a

00000814 <set_key>:
set_key():
/usr/src/app/examples/example_trustzone/ta2/ta2.c:313
     814:	e96d 4504 	strd	r4, r5, [sp, #-16]!
     818:	e9cd 7e02 	strd	r7, lr, [sp, #8]
     81c:	b0a0      	sub	sp, #128	; 0x80
     81e:	af04      	add	r7, sp, #16
     820:	60f8      	str	r0, [r7, #12]
     822:	60b9      	str	r1, [r7, #8]
     824:	607a      	str	r2, [r7, #4]
     826:	4ca2      	ldr	r4, [pc, #648]	; (ab0 <set_key+0x29c>)
     828:	447c      	add	r4, pc
/usr/src/app/examples/example_trustzone/ta2/ta2.c:314
     82a:	f04f 030c 	mov.w	r3, #12
     82e:	f6cf 73ff 	movt	r3, #65535	; 0xffff
     832:	66fb      	str	r3, [r7, #108]	; 0x6c
/usr/src/app/examples/example_trustzone/ta2/ta2.c:315
     834:	f240 5355 	movw	r3, #1365	; 0x555
     838:	657b      	str	r3, [r7, #84]	; 0x54
/usr/src/app/examples/example_trustzone/ta2/ta2.c:322
     83a:	68fb      	ldr	r3, [r7, #12]
     83c:	9301      	str	r3, [sp, #4]
     83e:	4b9d      	ldr	r3, [pc, #628]	; (ab4 <set_key+0x2a0>)
     840:	447b      	add	r3, pc
     842:	9300      	str	r3, [sp, #0]
     844:	f04f 0301 	mov.w	r3, #1
     848:	f04f 0203 	mov.w	r2, #3
     84c:	f44f 71a1 	mov.w	r1, #322	; 0x142
     850:	4899      	ldr	r0, [pc, #612]	; (ab8 <set_key+0x2a4>)
     852:	4478      	add	r0, pc
     854:	f003 f81f 	bl	3896 <trace_printf>
/usr/src/app/examples/example_trustzone/ta2/ta2.c:323
     858:	68fb      	ldr	r3, [r7, #12]
     85a:	653b      	str	r3, [r7, #80]	; 0x50
/usr/src/app/examples/example_trustzone/ta2/ta2.c:324
     85c:	f04f 0300 	mov.w	r3, #0
     860:	617b      	str	r3, [r7, #20]
     862:	f107 0318 	add.w	r3, r7, #24
     866:	efc0 0010 	vmov.i32	d16, #0	; 0x00000000
     86a:	edc3 0b00 	vstr	d16, [r3]
     86e:	edc3 0b01 	vstr	d16, [r3, #4]
/usr/src/app/examples/example_trustzone/ta2/ta2.c:325
     872:	f04f 0310 	mov.w	r3, #16
     876:	64fb      	str	r3, [r7, #76]	; 0x4c
/usr/src/app/examples/example_trustzone/ta2/ta2.c:327
     878:	f04f 0300 	mov.w	r3, #0
     87c:	f04f 0210 	mov.w	r2, #16
     880:	f04f 0102 	mov.w	r1, #2
     884:	6d38      	ldr	r0, [r7, #80]	; 0x50
     886:	f7ff fd67 	bl	358 <alloc_resources>
/usr/src/app/examples/example_trustzone/ta2/ta2.c:328
     88a:	f04f 0210 	mov.w	r2, #16
     88e:	4b8b      	ldr	r3, [pc, #556]	; (abc <set_key+0x2a8>)
     890:	58e3      	ldr	r3, [r4, r3]
     892:	4619      	mov	r1, r3
     894:	6d38      	ldr	r0, [r7, #80]	; 0x50
     896:	f7ff fe7f 	bl	598 <set_aes_key>
/usr/src/app/examples/example_trustzone/ta2/ta2.c:330
     89a:	687b      	ldr	r3, [r7, #4]
     89c:	6819      	ldr	r1, [r3, #0]
     89e:	687b      	ldr	r3, [r7, #4]
     8a0:	685a      	ldr	r2, [r3, #4]
     8a2:	f107 0014 	add.w	r0, r7, #20
     8a6:	6cfb      	ldr	r3, [r7, #76]	; 0x4c
     8a8:	9300      	str	r3, [sp, #0]
     8aa:	4603      	mov	r3, r0
     8ac:	6d38      	ldr	r0, [r7, #80]	; 0x50
     8ae:	f7ff ff29 	bl	704 <reset_aes_iv>
/usr/src/app/examples/example_trustzone/ta2/ta2.c:333
     8b2:	687b      	ldr	r3, [r7, #4]
     8b4:	681b      	ldr	r3, [r3, #0]
     8b6:	64bb      	str	r3, [r7, #72]	; 0x48
/usr/src/app/examples/example_trustzone/ta2/ta2.c:336
     8b8:	f04f 0300 	mov.w	r3, #0
     8bc:	647b      	str	r3, [r7, #68]	; 0x44
/usr/src/app/examples/example_trustzone/ta2/ta2.c:337
     8be:	f04f 0300 	mov.w	r3, #0
     8c2:	643b      	str	r3, [r7, #64]	; 0x40
/usr/src/app/examples/example_trustzone/ta2/ta2.c:340
     8c4:	f04f 0100 	mov.w	r1, #0
     8c8:	f04f 0010 	mov.w	r0, #16
     8cc:	f004 ffc8 	bl	5860 <TEE_Malloc>
     8d0:	6478      	str	r0, [r7, #68]	; 0x44
/usr/src/app/examples/example_trustzone/ta2/ta2.c:341
     8d2:	687b      	ldr	r3, [r7, #4]
     8d4:	f103 0310 	add.w	r3, r3, #16
     8d8:	685b      	ldr	r3, [r3, #4]
     8da:	f04f 0100 	mov.w	r1, #0
     8de:	4618      	mov	r0, r3
     8e0:	f004 ffbe 	bl	5860 <TEE_Malloc>
     8e4:	6438      	str	r0, [r7, #64]	; 0x40
/usr/src/app/examples/example_trustzone/ta2/ta2.c:342
     8e6:	6c7b      	ldr	r3, [r7, #68]	; 0x44
     8e8:	2b00      	cmp	r3, #0
     8ea:	f000 80cf 	beq.w	a8c <set_key+0x278>
/usr/src/app/examples/example_trustzone/ta2/ta2.c:342 (discriminator 1)
     8ee:	6c3b      	ldr	r3, [r7, #64]	; 0x40
     8f0:	2b00      	cmp	r3, #0
     8f2:	f000 80cb 	beq.w	a8c <set_key+0x278>
/usr/src/app/examples/example_trustzone/ta2/ta2.c:345
     8f6:	687b      	ldr	r3, [r7, #4]
     8f8:	f103 0310 	add.w	r3, r3, #16
     8fc:	6819      	ldr	r1, [r3, #0]
     8fe:	687b      	ldr	r3, [r7, #4]
     900:	f103 0310 	add.w	r3, r3, #16
     904:	685b      	ldr	r3, [r3, #4]
     906:	461a      	mov	r2, r3
     908:	6c38      	ldr	r0, [r7, #64]	; 0x40
     90a:	f004 fec5 	bl	5698 <TEE_MemMove>
/usr/src/app/examples/example_trustzone/ta2/ta2.c:347
     90e:	6d3b      	ldr	r3, [r7, #80]	; 0x50
     910:	68d8      	ldr	r0, [r3, #12]
     912:	687b      	ldr	r3, [r7, #4]
     914:	f103 0308 	add.w	r3, r3, #8
     918:	6819      	ldr	r1, [r3, #0]
/usr/src/app/examples/example_trustzone/ta2/ta2.c:348
     91a:	687b      	ldr	r3, [r7, #4]
     91c:	f103 0308 	add.w	r3, r3, #8
/usr/src/app/examples/example_trustzone/ta2/ta2.c:347
     920:	685d      	ldr	r5, [r3, #4]
/usr/src/app/examples/example_trustzone/ta2/ta2.c:348
     922:	687b      	ldr	r3, [r7, #4]
     924:	f103 0310 	add.w	r3, r3, #16
/usr/src/app/examples/example_trustzone/ta2/ta2.c:347
     928:	f103 0304 	add.w	r3, r3, #4
/usr/src/app/examples/example_trustzone/ta2/ta2.c:349
     92c:	687a      	ldr	r2, [r7, #4]
     92e:	f102 0210 	add.w	r2, r2, #16
/usr/src/app/examples/example_trustzone/ta2/ta2.c:347
     932:	6852      	ldr	r2, [r2, #4]
     934:	9202      	str	r2, [sp, #8]
     936:	6c3a      	ldr	r2, [r7, #64]	; 0x40
     938:	9201      	str	r2, [sp, #4]
     93a:	9300      	str	r3, [sp, #0]
     93c:	6c7b      	ldr	r3, [r7, #68]	; 0x44
     93e:	462a      	mov	r2, r5
     940:	f007 fd48 	bl	83d4 <TEE_AEDecryptFinal>
     944:	66f8      	str	r0, [r7, #108]	; 0x6c
/usr/src/app/examples/example_trustzone/ta2/ta2.c:351
     946:	6efb      	ldr	r3, [r7, #108]	; 0x6c
     948:	2b00      	cmp	r3, #0
     94a:	f040 80a1 	bne.w	a90 <set_key+0x27c>
/usr/src/app/examples/example_trustzone/ta2/ta2.c:352
     94e:	4b5c      	ldr	r3, [pc, #368]	; (ac0 <set_key+0x2ac>)
     950:	447b      	add	r3, pc
     952:	4618      	mov	r0, r3
     954:	f004 fab0 	bl	4eb8 <puts>
/usr/src/app/examples/example_trustzone/ta2/ta2.c:353
     958:	6c7b      	ldr	r3, [r7, #68]	; 0x44
     95a:	63fb      	str	r3, [r7, #60]	; 0x3c
/usr/src/app/examples/example_trustzone/ta2/ta2.c:354
     95c:	f04f 0300 	mov.w	r3, #0
     960:	66bb      	str	r3, [r7, #104]	; 0x68
     962:	e00d      	b.n	980 <set_key+0x16c>
/usr/src/app/examples/example_trustzone/ta2/ta2.c:355 (discriminator 3)
     964:	6ebb      	ldr	r3, [r7, #104]	; 0x68
     966:	6bfa      	ldr	r2, [r7, #60]	; 0x3c
     968:	4413      	add	r3, r2
     96a:	7819      	ldrb	r1, [r3, #0]
     96c:	f107 022c 	add.w	r2, r7, #44	; 0x2c
     970:	6ebb      	ldr	r3, [r7, #104]	; 0x68
     972:	4413      	add	r3, r2
     974:	460a      	mov	r2, r1
     976:	701a      	strb	r2, [r3, #0]
/usr/src/app/examples/example_trustzone/ta2/ta2.c:354 (discriminator 3)
     978:	6ebb      	ldr	r3, [r7, #104]	; 0x68
     97a:	f103 0301 	add.w	r3, r3, #1
     97e:	66bb      	str	r3, [r7, #104]	; 0x68
/usr/src/app/examples/example_trustzone/ta2/ta2.c:354 (discriminator 1)
     980:	6ebb      	ldr	r3, [r7, #104]	; 0x68
     982:	2b0f      	cmp	r3, #15
     984:	ddee      	ble.n	964 <set_key+0x150>
/usr/src/app/examples/example_trustzone/ta2/ta2.c:357
     986:	f04f 000a 	mov.w	r0, #10
     98a:	f004 fab1 	bl	4ef0 <putchar>
/usr/src/app/examples/example_trustzone/ta2/ta2.c:358
     98e:	f04f 0300 	mov.w	r3, #0
     992:	667b      	str	r3, [r7, #100]	; 0x64
     994:	e00e      	b.n	9b4 <set_key+0x1a0>
/usr/src/app/examples/example_trustzone/ta2/ta2.c:359 (discriminator 3)
     996:	f107 022c 	add.w	r2, r7, #44	; 0x2c
     99a:	6e7b      	ldr	r3, [r7, #100]	; 0x64
     99c:	4413      	add	r3, r2
     99e:	781b      	ldrb	r3, [r3, #0]
     9a0:	4619      	mov	r1, r3
     9a2:	4b48      	ldr	r3, [pc, #288]	; (ac4 <set_key+0x2b0>)
     9a4:	447b      	add	r3, pc
     9a6:	4618      	mov	r0, r3
     9a8:	f004 fa4c 	bl	4e44 <printf>
/usr/src/app/examples/example_trustzone/ta2/ta2.c:358 (discriminator 3)
     9ac:	6e7b      	ldr	r3, [r7, #100]	; 0x64
     9ae:	f103 0301 	add.w	r3, r3, #1
     9b2:	667b      	str	r3, [r7, #100]	; 0x64
/usr/src/app/examples/example_trustzone/ta2/ta2.c:358 (discriminator 1)
     9b4:	6e7b      	ldr	r3, [r7, #100]	; 0x64
     9b6:	2b0f      	cmp	r3, #15
     9b8:	dded      	ble.n	996 <set_key+0x182>
/usr/src/app/examples/example_trustzone/ta2/ta2.c:360
     9ba:	f04f 000a 	mov.w	r0, #10
     9be:	f004 fa97 	bl	4ef0 <putchar>
/usr/src/app/examples/example_trustzone/ta2/ta2.c:362
     9c2:	f04f 0300 	mov.w	r3, #0
     9c6:	857b      	strh	r3, [r7, #42]	; 0x2a
/usr/src/app/examples/example_trustzone/ta2/ta2.c:364
     9c8:	6cbb      	ldr	r3, [r7, #72]	; 0x48
     9ca:	781b      	ldrb	r3, [r3, #0]
     9cc:	f887 3024 	strb.w	r3, [r7, #36]	; 0x24
/usr/src/app/examples/example_trustzone/ta2/ta2.c:366
     9d0:	f897 3024 	ldrb.w	r3, [r7, #36]	; 0x24
     9d4:	4619      	mov	r1, r3
     9d6:	4b3c      	ldr	r3, [pc, #240]	; (ac8 <set_key+0x2b4>)
     9d8:	447b      	add	r3, pc
     9da:	4618      	mov	r0, r3
     9dc:	f004 fa32 	bl	4e44 <printf>
/usr/src/app/examples/example_trustzone/ta2/ta2.c:368
     9e0:	f04f 0300 	mov.w	r3, #0
     9e4:	663b      	str	r3, [r7, #96]	; 0x60
/usr/src/app/examples/example_trustzone/ta2/ta2.c:369
     9e6:	f04f 0300 	mov.w	r3, #0
     9ea:	84fb      	strh	r3, [r7, #38]	; 0x26
/usr/src/app/examples/example_trustzone/ta2/ta2.c:370
     9ec:	f04f 0302 	mov.w	r3, #2
     9f0:	65fb      	str	r3, [r7, #92]	; 0x5c
     9f2:	e016      	b.n	a22 <set_key+0x20e>
/usr/src/app/examples/example_trustzone/ta2/ta2.c:371 (discriminator 3)
     9f4:	8cfa      	ldrh	r2, [r7, #38]	; 0x26
     9f6:	6dfb      	ldr	r3, [r7, #92]	; 0x5c
     9f8:	6cb9      	ldr	r1, [r7, #72]	; 0x48
     9fa:	440b      	add	r3, r1
     9fc:	781b      	ldrb	r3, [r3, #0]
     9fe:	4619      	mov	r1, r3
     a00:	6e3b      	ldr	r3, [r7, #96]	; 0x60
     a02:	ea4f 03c3 	mov.w	r3, r3, lsl #3
     a06:	fa01 f303 	lsl.w	r3, r1, r3
     a0a:	b29b      	uxth	r3, r3
     a0c:	4413      	add	r3, r2
     a0e:	b29b      	uxth	r3, r3
     a10:	84fb      	strh	r3, [r7, #38]	; 0x26
/usr/src/app/examples/example_trustzone/ta2/ta2.c:372 (discriminator 3)
     a12:	6e3b      	ldr	r3, [r7, #96]	; 0x60
     a14:	f103 0301 	add.w	r3, r3, #1
     a18:	663b      	str	r3, [r7, #96]	; 0x60
/usr/src/app/examples/example_trustzone/ta2/ta2.c:370 (discriminator 3)
     a1a:	6dfb      	ldr	r3, [r7, #92]	; 0x5c
     a1c:	f103 33ff 	add.w	r3, r3, #4294967295	; 0xffffffff
     a20:	65fb      	str	r3, [r7, #92]	; 0x5c
/usr/src/app/examples/example_trustzone/ta2/ta2.c:370 (discriminator 1)
     a22:	6dfb      	ldr	r3, [r7, #92]	; 0x5c
     a24:	2b00      	cmp	r3, #0
     a26:	dce5      	bgt.n	9f4 <set_key+0x1e0>
/usr/src/app/examples/example_trustzone/ta2/ta2.c:374
     a28:	f04f 0300 	mov.w	r3, #0
     a2c:	663b      	str	r3, [r7, #96]	; 0x60
/usr/src/app/examples/example_trustzone/ta2/ta2.c:375
     a2e:	f04f 0300 	mov.w	r3, #0
     a32:	853b      	strh	r3, [r7, #40]	; 0x28
/usr/src/app/examples/example_trustzone/ta2/ta2.c:376
     a34:	f04f 0304 	mov.w	r3, #4
     a38:	65bb      	str	r3, [r7, #88]	; 0x58
     a3a:	e016      	b.n	a6a <set_key+0x256>
/usr/src/app/examples/example_trustzone/ta2/ta2.c:377 (discriminator 3)
     a3c:	8d3a      	ldrh	r2, [r7, #40]	; 0x28
     a3e:	6dbb      	ldr	r3, [r7, #88]	; 0x58
     a40:	6cb9      	ldr	r1, [r7, #72]	; 0x48
     a42:	440b      	add	r3, r1
     a44:	781b      	ldrb	r3, [r3, #0]
     a46:	4619      	mov	r1, r3
     a48:	6e3b      	ldr	r3, [r7, #96]	; 0x60
     a4a:	ea4f 03c3 	mov.w	r3, r3, lsl #3
     a4e:	fa01 f303 	lsl.w	r3, r1, r3
     a52:	b29b      	uxth	r3, r3
     a54:	4413      	add	r3, r2
     a56:	b29b      	uxth	r3, r3
     a58:	853b      	strh	r3, [r7, #40]	; 0x28
/usr/src/app/examples/example_trustzone/ta2/ta2.c:378 (discriminator 3)
     a5a:	6e3b      	ldr	r3, [r7, #96]	; 0x60
     a5c:	f103 0301 	add.w	r3, r3, #1
     a60:	663b      	str	r3, [r7, #96]	; 0x60
/usr/src/app/examples/example_trustzone/ta2/ta2.c:376 (discriminator 3)
     a62:	6dbb      	ldr	r3, [r7, #88]	; 0x58
     a64:	f103 33ff 	add.w	r3, r3, #4294967295	; 0xffffffff
     a68:	65bb      	str	r3, [r7, #88]	; 0x58
/usr/src/app/examples/example_trustzone/ta2/ta2.c:376 (discriminator 1)
     a6a:	6dbb      	ldr	r3, [r7, #88]	; 0x58
     a6c:	2b02      	cmp	r3, #2
     a6e:	dce5      	bgt.n	a3c <set_key+0x228>
/usr/src/app/examples/example_trustzone/ta2/ta2.c:380
     a70:	4b16      	ldr	r3, [pc, #88]	; (acc <set_key+0x2b8>)
     a72:	58e3      	ldr	r3, [r4, r3]
     a74:	681b      	ldr	r3, [r3, #0]
     a76:	f103 0201 	add.w	r2, r3, #1
     a7a:	4b14      	ldr	r3, [pc, #80]	; (acc <set_key+0x2b8>)
     a7c:	58e3      	ldr	r3, [r4, r3]
     a7e:	601a      	str	r2, [r3, #0]
/usr/src/app/examples/example_trustzone/ta2/ta2.c:381
     a80:	f107 0324 	add.w	r3, r7, #36	; 0x24
     a84:	4618      	mov	r0, r3
     a86:	f7ff fadf 	bl	48 <connections_add>
     a8a:	e002      	b.n	a92 <set_key+0x27e>
/usr/src/app/examples/example_trustzone/ta2/ta2.c:343
     a8c:	bf00      	nop
     a8e:	e000      	b.n	a92 <set_key+0x27e>
/usr/src/app/examples/example_trustzone/ta2/ta2.c:384
     a90:	bf00      	nop
/usr/src/app/examples/example_trustzone/ta2/ta2.c:385
     a92:	6c78      	ldr	r0, [r7, #68]	; 0x44
     a94:	f004 ff28 	bl	58e8 <TEE_Free>
/usr/src/app/examples/example_trustzone/ta2/ta2.c:386
     a98:	6c38      	ldr	r0, [r7, #64]	; 0x40
     a9a:	f004 ff25 	bl	58e8 <TEE_Free>
/usr/src/app/examples/example_trustzone/ta2/ta2.c:388
     a9e:	6efb      	ldr	r3, [r7, #108]	; 0x6c
/usr/src/app/examples/example_trustzone/ta2/ta2.c:389
     aa0:	4618      	mov	r0, r3
     aa2:	f107 0770 	add.w	r7, r7, #112	; 0x70
     aa6:	46bd      	mov	sp, r7
     aa8:	e9dd 4500 	ldrd	r4, r5, [sp]
     aac:	b002      	add	sp, #8
     aae:	bd80      	pop	{r7, pc}
     ab0:	0001785c 	.word	0x0001785c
     ab4:	000145d0 	.word	0x000145d0
     ab8:	0001489a 	.word	0x0001489a
     abc:	00000044 	.word	0x00000044
     ac0:	000144dc 	.word	0x000144dc
     ac4:	000141c8 	.word	0x000141c8
     ac8:	0001446c 	.word	0x0001446c
     acc:	00000010 	.word	0x00000010

00000ad0 <attest>:
attest():
/usr/src/app/examples/example_trustzone/ta2/ta2.c:395
     ad0:	f84d 4d0c 	str.w	r4, [sp, #-12]!
     ad4:	e9cd 7e01 	strd	r7, lr, [sp, #4]
     ad8:	b09f      	sub	sp, #124	; 0x7c
     ada:	af04      	add	r7, sp, #16
     adc:	60f8      	str	r0, [r7, #12]
     ade:	60b9      	str	r1, [r7, #8]
     ae0:	607a      	str	r2, [r7, #4]
     ae2:	4c71      	ldr	r4, [pc, #452]	; (ca8 <attest+0x1d8>)
     ae4:	447c      	add	r4, pc
/usr/src/app/examples/example_trustzone/ta2/ta2.c:396
     ae6:	f04f 030c 	mov.w	r3, #12
     aea:	f6cf 73ff 	movt	r3, #65535	; 0xffff
     aee:	667b      	str	r3, [r7, #100]	; 0x64
/usr/src/app/examples/example_trustzone/ta2/ta2.c:397
     af0:	f04f 0365 	mov.w	r3, #101	; 0x65
     af4:	663b      	str	r3, [r7, #96]	; 0x60
/usr/src/app/examples/example_trustzone/ta2/ta2.c:403
     af6:	68fb      	ldr	r3, [r7, #12]
     af8:	9301      	str	r3, [sp, #4]
     afa:	4b6c      	ldr	r3, [pc, #432]	; (cac <attest+0x1dc>)
     afc:	447b      	add	r3, pc
     afe:	9300      	str	r3, [sp, #0]
     b00:	f04f 0301 	mov.w	r3, #1
     b04:	f04f 0203 	mov.w	r2, #3
     b08:	f240 1193 	movw	r1, #403	; 0x193
     b0c:	4868      	ldr	r0, [pc, #416]	; (cb0 <attest+0x1e0>)
     b0e:	4478      	add	r0, pc
     b10:	f002 fec1 	bl	3896 <trace_printf>
/usr/src/app/examples/example_trustzone/ta2/ta2.c:404
     b14:	68fb      	ldr	r3, [r7, #12]
     b16:	65fb      	str	r3, [r7, #92]	; 0x5c
/usr/src/app/examples/example_trustzone/ta2/ta2.c:407
     b18:	f04f 0300 	mov.w	r3, #0
     b1c:	647b      	str	r3, [r7, #68]	; 0x44
/usr/src/app/examples/example_trustzone/ta2/ta2.c:408
     b1e:	f04f 0300 	mov.w	r3, #0
     b22:	643b      	str	r3, [r7, #64]	; 0x40
/usr/src/app/examples/example_trustzone/ta2/ta2.c:409
     b24:	f04f 0306 	mov.w	r3, #6
     b28:	65bb      	str	r3, [r7, #88]	; 0x58
/usr/src/app/examples/example_trustzone/ta2/ta2.c:416
     b2a:	4b62      	ldr	r3, [pc, #392]	; (cb4 <attest+0x1e4>)
     b2c:	58e3      	ldr	r3, [r4, r3]
     b2e:	623b      	str	r3, [r7, #32]
/usr/src/app/examples/example_trustzone/ta2/ta2.c:417
     b30:	f04f 0310 	mov.w	r3, #16
     b34:	627b      	str	r3, [r7, #36]	; 0x24
/usr/src/app/examples/example_trustzone/ta2/ta2.c:420
     b36:	f107 0340 	add.w	r3, r7, #64	; 0x40
     b3a:	9301      	str	r3, [sp, #4]
     b3c:	f107 0344 	add.w	r3, r7, #68	; 0x44
     b40:	9300      	str	r3, [sp, #0]
     b42:	f04f 0300 	mov.w	r3, #0
     b46:	f04f 0200 	mov.w	r2, #0
     b4a:	f04f 0100 	mov.w	r1, #0
     b4e:	485a      	ldr	r0, [pc, #360]	; (cb8 <attest+0x1e8>)
     b50:	4478      	add	r0, pc
     b52:	f004 fbf0 	bl	5336 <TEE_OpenTASession>
     b56:	6678      	str	r0, [r7, #100]	; 0x64
/usr/src/app/examples/example_trustzone/ta2/ta2.c:422
     b58:	6e7b      	ldr	r3, [r7, #100]	; 0x64
     b5a:	2b00      	cmp	r3, #0
     b5c:	d001      	beq.n	b62 <attest+0x92>
/usr/src/app/examples/example_trustzone/ta2/ta2.c:423
     b5e:	6e7b      	ldr	r3, [r7, #100]	; 0x64
     b60:	e098      	b.n	c94 <attest+0x1c4>
/usr/src/app/examples/example_trustzone/ta2/ta2.c:426
     b62:	6c78      	ldr	r0, [r7, #68]	; 0x44
     b64:	f107 0340 	add.w	r3, r7, #64	; 0x40
     b68:	9301      	str	r3, [sp, #4]
     b6a:	f107 0320 	add.w	r3, r7, #32
     b6e:	9300      	str	r3, [sp, #0]
     b70:	6dbb      	ldr	r3, [r7, #88]	; 0x58
     b72:	f04f 0200 	mov.w	r2, #0
     b76:	f04f 0100 	mov.w	r1, #0
     b7a:	f004 fc6b 	bl	5454 <TEE_InvokeTACommand>
     b7e:	6678      	str	r0, [r7, #100]	; 0x64
/usr/src/app/examples/example_trustzone/ta2/ta2.c:428
     b80:	6e7b      	ldr	r3, [r7, #100]	; 0x64
     b82:	2b00      	cmp	r3, #0
     b84:	d001      	beq.n	b8a <attest+0xba>
/usr/src/app/examples/example_trustzone/ta2/ta2.c:429
     b86:	6e7b      	ldr	r3, [r7, #100]	; 0x64
     b88:	e084      	b.n	c94 <attest+0x1c4>
/usr/src/app/examples/example_trustzone/ta2/ta2.c:432
     b8a:	6c7b      	ldr	r3, [r7, #68]	; 0x44
     b8c:	4618      	mov	r0, r3
     b8e:	f004 fc49 	bl	5424 <TEE_CloseTASession>
/usr/src/app/examples/example_trustzone/ta2/ta2.c:435
     b92:	f04f 0300 	mov.w	r3, #0
     b96:	613b      	str	r3, [r7, #16]
     b98:	f107 0314 	add.w	r3, r7, #20
     b9c:	efc0 0010 	vmov.i32	d16, #0	; 0x00000000
     ba0:	edc3 0b00 	vstr	d16, [r3]
     ba4:	edc3 0b01 	vstr	d16, [r3, #4]
/usr/src/app/examples/example_trustzone/ta2/ta2.c:436
     ba8:	f04f 0310 	mov.w	r3, #16
     bac:	657b      	str	r3, [r7, #84]	; 0x54
/usr/src/app/examples/example_trustzone/ta2/ta2.c:438
     bae:	f04f 0301 	mov.w	r3, #1
     bb2:	f04f 0210 	mov.w	r2, #16
     bb6:	f04f 0102 	mov.w	r1, #2
     bba:	6df8      	ldr	r0, [r7, #92]	; 0x5c
     bbc:	f7ff fbcc 	bl	358 <alloc_resources>
/usr/src/app/examples/example_trustzone/ta2/ta2.c:439
     bc0:	f04f 0210 	mov.w	r2, #16
     bc4:	4b3b      	ldr	r3, [pc, #236]	; (cb4 <attest+0x1e4>)
     bc6:	58e3      	ldr	r3, [r4, r3]
     bc8:	4619      	mov	r1, r3
     bca:	6df8      	ldr	r0, [r7, #92]	; 0x5c
     bcc:	f7ff fce4 	bl	598 <set_aes_key>
/usr/src/app/examples/example_trustzone/ta2/ta2.c:440
     bd0:	687b      	ldr	r3, [r7, #4]
     bd2:	6819      	ldr	r1, [r3, #0]
     bd4:	687b      	ldr	r3, [r7, #4]
     bd6:	685a      	ldr	r2, [r3, #4]
     bd8:	f107 0010 	add.w	r0, r7, #16
     bdc:	6d7b      	ldr	r3, [r7, #84]	; 0x54
     bde:	9300      	str	r3, [sp, #0]
     be0:	4603      	mov	r3, r0
     be2:	6df8      	ldr	r0, [r7, #92]	; 0x5c
     be4:	f7ff fd8e 	bl	704 <reset_aes_iv>
/usr/src/app/examples/example_trustzone/ta2/ta2.c:442
     be8:	f04f 0300 	mov.w	r3, #0
     bec:	653b      	str	r3, [r7, #80]	; 0x50
/usr/src/app/examples/example_trustzone/ta2/ta2.c:443
     bee:	f04f 0300 	mov.w	r3, #0
     bf2:	64fb      	str	r3, [r7, #76]	; 0x4c
/usr/src/app/examples/example_trustzone/ta2/ta2.c:444
     bf4:	f04f 0300 	mov.w	r3, #0
     bf8:	64bb      	str	r3, [r7, #72]	; 0x48
/usr/src/app/examples/example_trustzone/ta2/ta2.c:446
     bfa:	f04f 0100 	mov.w	r1, #0
     bfe:	f04f 0010 	mov.w	r0, #16
     c02:	f004 fe2d 	bl	5860 <TEE_Malloc>
     c06:	6538      	str	r0, [r7, #80]	; 0x50
/usr/src/app/examples/example_trustzone/ta2/ta2.c:447
     c08:	f04f 0100 	mov.w	r1, #0
     c0c:	f04f 0010 	mov.w	r0, #16
     c10:	f004 fe26 	bl	5860 <TEE_Malloc>
     c14:	64f8      	str	r0, [r7, #76]	; 0x4c
/usr/src/app/examples/example_trustzone/ta2/ta2.c:448
     c16:	f04f 0100 	mov.w	r1, #0
     c1a:	f04f 0010 	mov.w	r0, #16
     c1e:	f004 fe1f 	bl	5860 <TEE_Malloc>
     c22:	64b8      	str	r0, [r7, #72]	; 0x48
/usr/src/app/examples/example_trustzone/ta2/ta2.c:450
     c24:	6dfb      	ldr	r3, [r7, #92]	; 0x5c
     c26:	68d8      	ldr	r0, [r3, #12]
     c28:	687b      	ldr	r3, [r7, #4]
     c2a:	f103 0304 	add.w	r3, r3, #4
     c2e:	687a      	ldr	r2, [r7, #4]
     c30:	f102 0204 	add.w	r2, r2, #4
     c34:	9202      	str	r2, [sp, #8]
     c36:	6cba      	ldr	r2, [r7, #72]	; 0x48
     c38:	9201      	str	r2, [sp, #4]
     c3a:	9300      	str	r3, [sp, #0]
     c3c:	6cfb      	ldr	r3, [r7, #76]	; 0x4c
     c3e:	f04f 0210 	mov.w	r2, #16
     c42:	6d39      	ldr	r1, [r7, #80]	; 0x50
     c44:	f007 fab4 	bl	81b0 <TEE_AEEncryptFinal>
     c48:	6678      	str	r0, [r7, #100]	; 0x64
/usr/src/app/examples/example_trustzone/ta2/ta2.c:454
     c4a:	6e7b      	ldr	r3, [r7, #100]	; 0x64
     c4c:	2b00      	cmp	r3, #0
     c4e:	d116      	bne.n	c7e <attest+0x1ae>
/usr/src/app/examples/example_trustzone/ta2/ta2.c:455
     c50:	4b1a      	ldr	r3, [pc, #104]	; (cbc <attest+0x1ec>)
     c52:	447b      	add	r3, pc
     c54:	4618      	mov	r0, r3
     c56:	f004 f92f 	bl	4eb8 <puts>
/usr/src/app/examples/example_trustzone/ta2/ta2.c:456
     c5a:	687b      	ldr	r3, [r7, #4]
     c5c:	f103 0308 	add.w	r3, r3, #8
     c60:	f04f 0210 	mov.w	r2, #16
     c64:	605a      	str	r2, [r3, #4]
/usr/src/app/examples/example_trustzone/ta2/ta2.c:457
     c66:	687b      	ldr	r3, [r7, #4]
     c68:	f103 0308 	add.w	r3, r3, #8
     c6c:	6818      	ldr	r0, [r3, #0]
     c6e:	687b      	ldr	r3, [r7, #4]
     c70:	f103 0308 	add.w	r3, r3, #8
     c74:	685b      	ldr	r3, [r3, #4]
     c76:	461a      	mov	r2, r3
     c78:	6cb9      	ldr	r1, [r7, #72]	; 0x48
     c7a:	f004 fd0d 	bl	5698 <TEE_MemMove>
/usr/src/app/examples/example_trustzone/ta2/ta2.c:460
     c7e:	6cf8      	ldr	r0, [r7, #76]	; 0x4c
     c80:	f004 fe32 	bl	58e8 <TEE_Free>
/usr/src/app/examples/example_trustzone/ta2/ta2.c:461
     c84:	6d38      	ldr	r0, [r7, #80]	; 0x50
     c86:	f004 fe2f 	bl	58e8 <TEE_Free>
/usr/src/app/examples/example_trustzone/ta2/ta2.c:462
     c8a:	6cb8      	ldr	r0, [r7, #72]	; 0x48
     c8c:	f004 fe2c 	bl	58e8 <TEE_Free>
/usr/src/app/examples/example_trustzone/ta2/ta2.c:464
     c90:	f04f 0300 	mov.w	r3, #0
/usr/src/app/examples/example_trustzone/ta2/ta2.c:466 (discriminator 1)
     c94:	4618      	mov	r0, r3
     c96:	f107 076c 	add.w	r7, r7, #108	; 0x6c
     c9a:	46bd      	mov	sp, r7
     c9c:	e9dd 4700 	ldrd	r4, r7, [sp]
     ca0:	b002      	add	sp, #8
     ca2:	f85d fb04 	ldr.w	pc, [sp], #4
     ca6:	bf00      	nop
     ca8:	000175a0 	.word	0x000175a0
     cac:	00014314 	.word	0x00014314
     cb0:	000145e6 	.word	0x000145e6
     cb4:	00000044 	.word	0x00000044
     cb8:	00013fe4 	.word	0x00013fe4
     cbc:	0001420a 	.word	0x0001420a

00000cc0 <input>:
input():
/usr/src/app/examples/example_trustzone/ta2/ta2.c:470
     cc0:	e96d 7e02 	strd	r7, lr, [sp, #-8]!
     cc4:	b082      	sub	sp, #8
     cc6:	af00      	add	r7, sp, #0
     cc8:	6078      	str	r0, [r7, #4]
/usr/src/app/examples/example_trustzone/ta2/ta2.c:471
     cca:	f04f 000a 	mov.w	r0, #10
     cce:	f004 f90f 	bl	4ef0 <putchar>
/usr/src/app/examples/example_trustzone/ta2/ta2.c:472
     cd2:	4b05      	ldr	r3, [pc, #20]	; (ce8 <input+0x28>)
     cd4:	447b      	add	r3, pc
     cd6:	4618      	mov	r0, r3
     cd8:	f004 f8ee 	bl	4eb8 <puts>
/usr/src/app/examples/example_trustzone/ta2/ta2.c:473
     cdc:	bf00      	nop
     cde:	f107 0708 	add.w	r7, r7, #8
     ce2:	46bd      	mov	sp, r7
     ce4:	bd80      	pop	{r7, pc}
     ce6:	bf00      	nop
     ce8:	0001419c 	.word	0x0001419c

00000cec <handle_input>:
handle_input():
/usr/src/app/examples/example_trustzone/ta2/ta2.c:475
     cec:	f84d 4d24 	str.w	r4, [sp, #-36]!
     cf0:	e9cd 5601 	strd	r5, r6, [sp, #4]
     cf4:	e9cd 7803 	strd	r7, r8, [sp, #12]
     cf8:	e9cd 9a05 	strd	r9, sl, [sp, #20]
     cfc:	e9cd be07 	strd	fp, lr, [sp, #28]
     d00:	b0a5      	sub	sp, #148	; 0x94
     d02:	af06      	add	r7, sp, #24
     d04:	60f8      	str	r0, [r7, #12]
     d06:	60b9      	str	r1, [r7, #8]
     d08:	607a      	str	r2, [r7, #4]
/usr/src/app/examples/example_trustzone/ta2/ta2.c:477
     d0a:	f240 5351 	movw	r3, #1361	; 0x551
     d0e:	65bb      	str	r3, [r7, #88]	; 0x58
/usr/src/app/examples/example_trustzone/ta2/ta2.c:482
     d10:	4bd1      	ldr	r3, [pc, #836]	; (1058 <handle_input+0x36c>)
     d12:	447b      	add	r3, pc
     d14:	4618      	mov	r0, r3
     d16:	f004 f8cf 	bl	4eb8 <puts>
/usr/src/app/examples/example_trustzone/ta2/ta2.c:485
     d1a:	68fb      	ldr	r3, [r7, #12]
     d1c:	657b      	str	r3, [r7, #84]	; 0x54
/usr/src/app/examples/example_trustzone/ta2/ta2.c:487
     d1e:	687b      	ldr	r3, [r7, #4]
     d20:	f103 0308 	add.w	r3, r3, #8
     d24:	685b      	ldr	r3, [r3, #4]
     d26:	4618      	mov	r0, r3
     d28:	f002 fa82 	bl	3230 <malloc>
     d2c:	4603      	mov	r3, r0
     d2e:	66fb      	str	r3, [r7, #108]	; 0x6c
/usr/src/app/examples/example_trustzone/ta2/ta2.c:489
     d30:	687b      	ldr	r3, [r7, #4]
     d32:	681b      	ldr	r3, [r3, #0]
     d34:	4619      	mov	r1, r3
     d36:	4bc9      	ldr	r3, [pc, #804]	; (105c <handle_input+0x370>)
     d38:	447b      	add	r3, pc
     d3a:	4618      	mov	r0, r3
     d3c:	f004 f882 	bl	4e44 <printf>
/usr/src/app/examples/example_trustzone/ta2/ta2.c:490
     d40:	687b      	ldr	r3, [r7, #4]
     d42:	681b      	ldr	r3, [r3, #0]
     d44:	b29b      	uxth	r3, r3
     d46:	4618      	mov	r0, r3
     d48:	f7ff f9cc 	bl	e4 <connections_get>
     d4c:	6538      	str	r0, [r7, #80]	; 0x50
/usr/src/app/examples/example_trustzone/ta2/ta2.c:492
     d4e:	f04f 0300 	mov.w	r3, #0
     d52:	62bb      	str	r3, [r7, #40]	; 0x28
     d54:	f107 032c 	add.w	r3, r7, #44	; 0x2c
     d58:	efc0 0010 	vmov.i32	d16, #0	; 0x00000000
     d5c:	edc3 0b00 	vstr	d16, [r3]
     d60:	edc3 0b01 	vstr	d16, [r3, #4]
/usr/src/app/examples/example_trustzone/ta2/ta2.c:493
     d64:	f04f 0310 	mov.w	r3, #16
     d68:	64fb      	str	r3, [r7, #76]	; 0x4c
/usr/src/app/examples/example_trustzone/ta2/ta2.c:495
     d6a:	f04f 0300 	mov.w	r3, #0
     d6e:	84bb      	strh	r3, [r7, #36]	; 0x24
/usr/src/app/examples/example_trustzone/ta2/ta2.c:496
     d70:	f04f 0301 	mov.w	r3, #1
     d74:	673b      	str	r3, [r7, #112]	; 0x70
/usr/src/app/examples/example_trustzone/ta2/ta2.c:497
     d76:	f04f 0300 	mov.w	r3, #0
     d7a:	677b      	str	r3, [r7, #116]	; 0x74
     d7c:	e016      	b.n	dac <handle_input+0xc0>
/usr/src/app/examples/example_trustzone/ta2/ta2.c:498 (discriminator 3)
     d7e:	6d3b      	ldr	r3, [r7, #80]	; 0x50
     d80:	88db      	ldrh	r3, [r3, #6]
     d82:	461a      	mov	r2, r3
     d84:	6f3b      	ldr	r3, [r7, #112]	; 0x70
     d86:	ea4f 03c3 	mov.w	r3, r3, lsl #3
     d8a:	fa42 f303 	asr.w	r3, r2, r3
     d8e:	b2d9      	uxtb	r1, r3
     d90:	f107 0224 	add.w	r2, r7, #36	; 0x24
     d94:	6f7b      	ldr	r3, [r7, #116]	; 0x74
     d96:	4413      	add	r3, r2
     d98:	460a      	mov	r2, r1
     d9a:	701a      	strb	r2, [r3, #0]
/usr/src/app/examples/example_trustzone/ta2/ta2.c:499 (discriminator 3)
     d9c:	6f3b      	ldr	r3, [r7, #112]	; 0x70
     d9e:	f103 33ff 	add.w	r3, r3, #4294967295	; 0xffffffff
     da2:	673b      	str	r3, [r7, #112]	; 0x70
/usr/src/app/examples/example_trustzone/ta2/ta2.c:497 (discriminator 3)
     da4:	6f7b      	ldr	r3, [r7, #116]	; 0x74
     da6:	f103 0301 	add.w	r3, r3, #1
     daa:	677b      	str	r3, [r7, #116]	; 0x74
/usr/src/app/examples/example_trustzone/ta2/ta2.c:497 (discriminator 1)
     dac:	6f7b      	ldr	r3, [r7, #116]	; 0x74
     dae:	2b01      	cmp	r3, #1
     db0:	dde5      	ble.n	d7e <handle_input+0x92>
/usr/src/app/examples/example_trustzone/ta2/ta2.c:503
     db2:	6d3b      	ldr	r3, [r7, #80]	; 0x50
     db4:	781b      	ldrb	r3, [r3, #0]
     db6:	2b00      	cmp	r3, #0
     db8:	f040 808b 	bne.w	ed2 <handle_input+0x1e6>
/usr/src/app/examples/example_trustzone/ta2/ta2.c:504
     dbc:	f04f 0300 	mov.w	r3, #0
     dc0:	f04f 0210 	mov.w	r2, #16
     dc4:	f04f 0102 	mov.w	r1, #2
     dc8:	6d78      	ldr	r0, [r7, #84]	; 0x54
     dca:	f7ff fac5 	bl	358 <alloc_resources>
/usr/src/app/examples/example_trustzone/ta2/ta2.c:505
     dce:	6d3b      	ldr	r3, [r7, #80]	; 0x50
     dd0:	f103 0308 	add.w	r3, r3, #8
     dd4:	f04f 0210 	mov.w	r2, #16
     dd8:	4619      	mov	r1, r3
     dda:	6d78      	ldr	r0, [r7, #84]	; 0x54
     ddc:	f7ff fbdc 	bl	598 <set_aes_key>
/usr/src/app/examples/example_trustzone/ta2/ta2.c:506
     de0:	f107 0228 	add.w	r2, r7, #40	; 0x28
     de4:	f107 0124 	add.w	r1, r7, #36	; 0x24
     de8:	6cfb      	ldr	r3, [r7, #76]	; 0x4c
     dea:	9300      	str	r3, [sp, #0]
     dec:	4613      	mov	r3, r2
     dee:	f04f 0202 	mov.w	r2, #2
     df2:	6d78      	ldr	r0, [r7, #84]	; 0x54
     df4:	f7ff fc86 	bl	704 <reset_aes_iv>
/usr/src/app/examples/example_trustzone/ta2/ta2.c:508
     df8:	f04f 0300 	mov.w	r3, #0
     dfc:	643b      	str	r3, [r7, #64]	; 0x40
/usr/src/app/examples/example_trustzone/ta2/ta2.c:509
     dfe:	f04f 0300 	mov.w	r3, #0
     e02:	63fb      	str	r3, [r7, #60]	; 0x3c
/usr/src/app/examples/example_trustzone/ta2/ta2.c:511
     e04:	687b      	ldr	r3, [r7, #4]
     e06:	f103 0308 	add.w	r3, r3, #8
     e0a:	685b      	ldr	r3, [r3, #4]
     e0c:	f04f 0100 	mov.w	r1, #0
     e10:	4618      	mov	r0, r3
     e12:	f004 fd25 	bl	5860 <TEE_Malloc>
     e16:	6438      	str	r0, [r7, #64]	; 0x40
/usr/src/app/examples/example_trustzone/ta2/ta2.c:512
     e18:	687b      	ldr	r3, [r7, #4]
     e1a:	f103 0310 	add.w	r3, r3, #16
     e1e:	685b      	ldr	r3, [r3, #4]
     e20:	f04f 0100 	mov.w	r1, #0
     e24:	4618      	mov	r0, r3
     e26:	f004 fd1b 	bl	5860 <TEE_Malloc>
     e2a:	63f8      	str	r0, [r7, #60]	; 0x3c
/usr/src/app/examples/example_trustzone/ta2/ta2.c:514
     e2c:	687b      	ldr	r3, [r7, #4]
     e2e:	f103 0310 	add.w	r3, r3, #16
     e32:	6819      	ldr	r1, [r3, #0]
     e34:	687b      	ldr	r3, [r7, #4]
     e36:	f103 0310 	add.w	r3, r3, #16
     e3a:	685b      	ldr	r3, [r3, #4]
     e3c:	461a      	mov	r2, r3
     e3e:	6bf8      	ldr	r0, [r7, #60]	; 0x3c
     e40:	f004 fc2a 	bl	5698 <TEE_MemMove>
/usr/src/app/examples/example_trustzone/ta2/ta2.c:516
     e44:	6d7b      	ldr	r3, [r7, #84]	; 0x54
     e46:	68d8      	ldr	r0, [r3, #12]
     e48:	687b      	ldr	r3, [r7, #4]
     e4a:	f103 0308 	add.w	r3, r3, #8
     e4e:	6819      	ldr	r1, [r3, #0]
/usr/src/app/examples/example_trustzone/ta2/ta2.c:517
     e50:	687b      	ldr	r3, [r7, #4]
     e52:	f103 0308 	add.w	r3, r3, #8
/usr/src/app/examples/example_trustzone/ta2/ta2.c:516
     e56:	685c      	ldr	r4, [r3, #4]
/usr/src/app/examples/example_trustzone/ta2/ta2.c:517
     e58:	687b      	ldr	r3, [r7, #4]
     e5a:	f103 0308 	add.w	r3, r3, #8
/usr/src/app/examples/example_trustzone/ta2/ta2.c:516
     e5e:	f103 0304 	add.w	r3, r3, #4
/usr/src/app/examples/example_trustzone/ta2/ta2.c:518
     e62:	687a      	ldr	r2, [r7, #4]
     e64:	f102 0210 	add.w	r2, r2, #16
/usr/src/app/examples/example_trustzone/ta2/ta2.c:516
     e68:	6852      	ldr	r2, [r2, #4]
     e6a:	9202      	str	r2, [sp, #8]
     e6c:	6bfa      	ldr	r2, [r7, #60]	; 0x3c
     e6e:	9201      	str	r2, [sp, #4]
     e70:	9300      	str	r3, [sp, #0]
     e72:	6c3b      	ldr	r3, [r7, #64]	; 0x40
     e74:	4622      	mov	r2, r4
     e76:	f007 faad 	bl	83d4 <TEE_AEDecryptFinal>
     e7a:	63b8      	str	r0, [r7, #56]	; 0x38
/usr/src/app/examples/example_trustzone/ta2/ta2.c:520
     e7c:	6bbb      	ldr	r3, [r7, #56]	; 0x38
     e7e:	2b00      	cmp	r3, #0
     e80:	f040 80c4 	bne.w	100c <handle_input+0x320>
/usr/src/app/examples/example_trustzone/ta2/ta2.c:521
     e84:	4b76      	ldr	r3, [pc, #472]	; (1060 <handle_input+0x374>)
     e86:	447b      	add	r3, pc
     e88:	4618      	mov	r0, r3
     e8a:	f004 f815 	bl	4eb8 <puts>
/usr/src/app/examples/example_trustzone/ta2/ta2.c:522
     e8e:	6c3b      	ldr	r3, [r7, #64]	; 0x40
     e90:	66fb      	str	r3, [r7, #108]	; 0x6c
/usr/src/app/examples/example_trustzone/ta2/ta2.c:523
     e92:	f04f 0300 	mov.w	r3, #0
     e96:	66bb      	str	r3, [r7, #104]	; 0x68
     e98:	e00d      	b.n	eb6 <handle_input+0x1ca>
/usr/src/app/examples/example_trustzone/ta2/ta2.c:524 (discriminator 3)
     e9a:	6ebb      	ldr	r3, [r7, #104]	; 0x68
     e9c:	6efa      	ldr	r2, [r7, #108]	; 0x6c
     e9e:	4413      	add	r3, r2
     ea0:	781b      	ldrb	r3, [r3, #0]
     ea2:	4619      	mov	r1, r3
     ea4:	4b6f      	ldr	r3, [pc, #444]	; (1064 <handle_input+0x378>)
     ea6:	447b      	add	r3, pc
     ea8:	4618      	mov	r0, r3
     eaa:	f003 ffcb 	bl	4e44 <printf>
/usr/src/app/examples/example_trustzone/ta2/ta2.c:523 (discriminator 3)
     eae:	6ebb      	ldr	r3, [r7, #104]	; 0x68
     eb0:	f103 0301 	add.w	r3, r3, #1
     eb4:	66bb      	str	r3, [r7, #104]	; 0x68
/usr/src/app/examples/example_trustzone/ta2/ta2.c:523 (discriminator 1)
     eb6:	687b      	ldr	r3, [r7, #4]
     eb8:	f103 0308 	add.w	r3, r3, #8
     ebc:	685a      	ldr	r2, [r3, #4]
     ebe:	6ebb      	ldr	r3, [r7, #104]	; 0x68
     ec0:	429a      	cmp	r2, r3
     ec2:	d8ea      	bhi.n	e9a <handle_input+0x1ae>
/usr/src/app/examples/example_trustzone/ta2/ta2.c:526
     ec4:	6c38      	ldr	r0, [r7, #64]	; 0x40
     ec6:	f004 fd0f 	bl	58e8 <TEE_Free>
/usr/src/app/examples/example_trustzone/ta2/ta2.c:527
     eca:	6bf8      	ldr	r0, [r7, #60]	; 0x3c
     ecc:	f004 fd0c 	bl	58e8 <TEE_Free>
     ed0:	e09c      	b.n	100c <handle_input+0x320>
/usr/src/app/examples/example_trustzone/ta2/ta2.c:530
     ed2:	466b      	mov	r3, sp
     ed4:	461e      	mov	r6, r3
/usr/src/app/examples/example_trustzone/ta2/ta2.c:534
     ed6:	687b      	ldr	r3, [r7, #4]
     ed8:	f103 0308 	add.w	r3, r3, #8
     edc:	6859      	ldr	r1, [r3, #4]
     ede:	460b      	mov	r3, r1
     ee0:	f103 33ff 	add.w	r3, r3, #4294967295	; 0xffffffff
     ee4:	64bb      	str	r3, [r7, #72]	; 0x48
     ee6:	f04f 0300 	mov.w	r3, #0
     eea:	4688      	mov	r8, r1
     eec:	4699      	mov	r9, r3
     eee:	f04f 0200 	mov.w	r2, #0
     ef2:	f04f 0300 	mov.w	r3, #0
     ef6:	ea4f 03c9 	mov.w	r3, r9, lsl #3
     efa:	ea43 7358 	orr.w	r3, r3, r8, lsr #29
     efe:	ea4f 02c8 	mov.w	r2, r8, lsl #3
     f02:	f04f 0300 	mov.w	r3, #0
     f06:	460c      	mov	r4, r1
     f08:	461d      	mov	r5, r3
     f0a:	f04f 0200 	mov.w	r2, #0
     f0e:	f04f 0300 	mov.w	r3, #0
     f12:	ea4f 03c5 	mov.w	r3, r5, lsl #3
     f16:	ea43 7354 	orr.w	r3, r3, r4, lsr #29
     f1a:	ea4f 02c4 	mov.w	r2, r4, lsl #3
     f1e:	f101 0307 	add.w	r3, r1, #7
     f22:	ea4f 03d3 	mov.w	r3, r3, lsr #3
     f26:	ea4f 03c3 	mov.w	r3, r3, lsl #3
     f2a:	ebad 0d03 	sub.w	sp, sp, r3
     f2e:	ab06      	add	r3, sp, #24
     f30:	f103 0300 	add.w	r3, r3, #0
     f34:	647b      	str	r3, [r7, #68]	; 0x44
/usr/src/app/examples/example_trustzone/ta2/ta2.c:536
     f36:	f04f 0300 	mov.w	r3, #0
     f3a:	667b      	str	r3, [r7, #100]	; 0x64
     f3c:	e00f      	b.n	f5e <handle_input+0x272>
/usr/src/app/examples/example_trustzone/ta2/ta2.c:537 (discriminator 3)
     f3e:	687b      	ldr	r3, [r7, #4]
     f40:	f103 0308 	add.w	r3, r3, #8
     f44:	681a      	ldr	r2, [r3, #0]
     f46:	6e7b      	ldr	r3, [r7, #100]	; 0x64
     f48:	4413      	add	r3, r2
     f4a:	7819      	ldrb	r1, [r3, #0]
     f4c:	6c7a      	ldr	r2, [r7, #68]	; 0x44
     f4e:	6e7b      	ldr	r3, [r7, #100]	; 0x64
     f50:	4413      	add	r3, r2
     f52:	460a      	mov	r2, r1
     f54:	701a      	strb	r2, [r3, #0]
/usr/src/app/examples/example_trustzone/ta2/ta2.c:536 (discriminator 3)
     f56:	6e7b      	ldr	r3, [r7, #100]	; 0x64
     f58:	f103 0301 	add.w	r3, r3, #1
     f5c:	667b      	str	r3, [r7, #100]	; 0x64
/usr/src/app/examples/example_trustzone/ta2/ta2.c:536 (discriminator 1)
     f5e:	687b      	ldr	r3, [r7, #4]
     f60:	f103 0308 	add.w	r3, r3, #8
     f64:	685a      	ldr	r2, [r3, #4]
     f66:	6e7b      	ldr	r3, [r7, #100]	; 0x64
     f68:	429a      	cmp	r2, r3
     f6a:	d8e8      	bhi.n	f3e <handle_input+0x252>
/usr/src/app/examples/example_trustzone/ta2/ta2.c:540
     f6c:	f04f 0300 	mov.w	r3, #0
     f70:	663b      	str	r3, [r7, #96]	; 0x60
     f72:	e010      	b.n	f96 <handle_input+0x2aa>
/usr/src/app/examples/example_trustzone/ta2/ta2.c:541 (discriminator 3)
     f74:	687b      	ldr	r3, [r7, #4]
     f76:	f103 0310 	add.w	r3, r3, #16
     f7a:	681a      	ldr	r2, [r3, #0]
     f7c:	6e3b      	ldr	r3, [r7, #96]	; 0x60
     f7e:	4413      	add	r3, r2
     f80:	7819      	ldrb	r1, [r3, #0]
     f82:	f107 0214 	add.w	r2, r7, #20
     f86:	6e3b      	ldr	r3, [r7, #96]	; 0x60
     f88:	4413      	add	r3, r2
     f8a:	460a      	mov	r2, r1
     f8c:	701a      	strb	r2, [r3, #0]
/usr/src/app/examples/example_trustzone/ta2/ta2.c:540 (discriminator 3)
     f8e:	6e3b      	ldr	r3, [r7, #96]	; 0x60
     f90:	f103 0301 	add.w	r3, r3, #1
     f94:	663b      	str	r3, [r7, #96]	; 0x60
/usr/src/app/examples/example_trustzone/ta2/ta2.c:540 (discriminator 1)
     f96:	6e3b      	ldr	r3, [r7, #96]	; 0x60
     f98:	2b0f      	cmp	r3, #15
     f9a:	ddeb      	ble.n	f74 <handle_input+0x288>
/usr/src/app/examples/example_trustzone/ta2/ta2.c:544
     f9c:	6d3b      	ldr	r3, [r7, #80]	; 0x50
     f9e:	f103 0008 	add.w	r0, r3, #8
/usr/src/app/examples/example_trustzone/ta2/ta2.c:545
     fa2:	687b      	ldr	r3, [r7, #4]
     fa4:	f103 0308 	add.w	r3, r3, #8
     fa8:	685b      	ldr	r3, [r3, #4]
     faa:	ea4f 1303 	mov.w	r3, r3, lsl #4
/usr/src/app/examples/example_trustzone/ta2/ta2.c:544
     fae:	f04f 0200 	mov.w	r2, #0
     fb2:	469a      	mov	sl, r3
     fb4:	4693      	mov	fp, r2
     fb6:	f107 0124 	add.w	r1, r7, #36	; 0x24
     fba:	f107 0314 	add.w	r3, r7, #20
     fbe:	9305      	str	r3, [sp, #20]
     fc0:	6efb      	ldr	r3, [r7, #108]	; 0x6c
     fc2:	9304      	str	r3, [sp, #16]
     fc4:	e9cd ab02 	strd	sl, fp, [sp, #8]
     fc8:	6c7b      	ldr	r3, [r7, #68]	; 0x44
     fca:	9300      	str	r3, [sp, #0]
     fcc:	f04f 0210 	mov.w	r2, #16
     fd0:	f04f 0300 	mov.w	r3, #0
     fd4:	f001 f870 	bl	20b8 <SpongentUnwrap>
/usr/src/app/examples/example_trustzone/ta2/ta2.c:547
     fd8:	f04f 0300 	mov.w	r3, #0
     fdc:	65fb      	str	r3, [r7, #92]	; 0x5c
     fde:	e00d      	b.n	ffc <handle_input+0x310>
/usr/src/app/examples/example_trustzone/ta2/ta2.c:548 (discriminator 3)
     fe0:	6dfb      	ldr	r3, [r7, #92]	; 0x5c
     fe2:	6efa      	ldr	r2, [r7, #108]	; 0x6c
     fe4:	4413      	add	r3, r2
     fe6:	781b      	ldrb	r3, [r3, #0]
     fe8:	4619      	mov	r1, r3
     fea:	4b1f      	ldr	r3, [pc, #124]	; (1068 <handle_input+0x37c>)
     fec:	447b      	add	r3, pc
     fee:	4618      	mov	r0, r3
     ff0:	f003 ff28 	bl	4e44 <printf>
/usr/src/app/examples/example_trustzone/ta2/ta2.c:547 (discriminator 3)
     ff4:	6dfb      	ldr	r3, [r7, #92]	; 0x5c
     ff6:	f103 0301 	add.w	r3, r3, #1
     ffa:	65fb      	str	r3, [r7, #92]	; 0x5c
/usr/src/app/examples/example_trustzone/ta2/ta2.c:547 (discriminator 1)
     ffc:	687b      	ldr	r3, [r7, #4]
     ffe:	f103 0308 	add.w	r3, r3, #8
    1002:	685a      	ldr	r2, [r3, #4]
    1004:	6dfb      	ldr	r3, [r7, #92]	; 0x5c
    1006:	429a      	cmp	r2, r3
    1008:	d8ea      	bhi.n	fe0 <handle_input+0x2f4>
    100a:	46b5      	mov	sp, r6
/usr/src/app/examples/example_trustzone/ta2/ta2.c:553
    100c:	6d3b      	ldr	r3, [r7, #80]	; 0x50
    100e:	88db      	ldrh	r3, [r3, #6]
    1010:	f103 0301 	add.w	r3, r3, #1
    1014:	b29a      	uxth	r2, r3
    1016:	6d3b      	ldr	r3, [r7, #80]	; 0x50
    1018:	80da      	strh	r2, [r3, #6]
/usr/src/app/examples/example_trustzone/ta2/ta2.c:554
    101a:	6d3b      	ldr	r3, [r7, #80]	; 0x50
    101c:	889b      	ldrh	r3, [r3, #4]
    101e:	2b01      	cmp	r3, #1
    1020:	d103      	bne.n	102a <handle_input+0x33e>
/usr/src/app/examples/example_trustzone/ta2/ta2.c:557
    1022:	6ef8      	ldr	r0, [r7, #108]	; 0x6c
    1024:	f7ff fe4c 	bl	cc0 <input>
/usr/src/app/examples/example_trustzone/ta2/ta2.c:558
    1028:	e000      	b.n	102c <handle_input+0x340>
/usr/src/app/examples/example_trustzone/ta2/ta2.c:561
    102a:	bf00      	nop
/usr/src/app/examples/example_trustzone/ta2/ta2.c:565
    102c:	4b0f      	ldr	r3, [pc, #60]	; (106c <handle_input+0x380>)
    102e:	447b      	add	r3, pc
    1030:	4618      	mov	r0, r3
    1032:	f003 ff07 	bl	4e44 <printf>
/usr/src/app/examples/example_trustzone/ta2/ta2.c:566
    1036:	f04f 0300 	mov.w	r3, #0
/usr/src/app/examples/example_trustzone/ta2/ta2.c:567
    103a:	4618      	mov	r0, r3
    103c:	f107 077c 	add.w	r7, r7, #124	; 0x7c
    1040:	46bd      	mov	sp, r7
    1042:	e9dd 4500 	ldrd	r4, r5, [sp]
    1046:	e9dd 6702 	ldrd	r6, r7, [sp, #8]
    104a:	e9dd 8904 	ldrd	r8, r9, [sp, #16]
    104e:	e9dd ab06 	ldrd	sl, fp, [sp, #24]
    1052:	b008      	add	sp, #32
    1054:	f85d fb04 	ldr.w	pc, [sp], #4
    1058:	0001417a 	.word	0x0001417a
    105c:	00014188 	.word	0x00014188
    1060:	0001404a 	.word	0x0001404a
    1064:	00014046 	.word	0x00014046
    1068:	00013f00 	.word	0x00013f00
    106c:	00013ec2 	.word	0x00013ec2

00001070 <TA_CreateEntryPoint>:
TA_CreateEntryPoint():
/usr/src/app/examples/example_trustzone/ta2/ta2.c:571
    1070:	e96d 7e02 	strd	r7, lr, [sp, #-8]!
    1074:	b082      	sub	sp, #8
    1076:	af02      	add	r7, sp, #8
/usr/src/app/examples/example_trustzone/ta2/ta2.c:572
    1078:	4b08      	ldr	r3, [pc, #32]	; (109c <TA_CreateEntryPoint+0x2c>)
    107a:	447b      	add	r3, pc
    107c:	9300      	str	r3, [sp, #0]
    107e:	f04f 0301 	mov.w	r3, #1
    1082:	f04f 0203 	mov.w	r2, #3
    1086:	f44f 710f 	mov.w	r1, #572	; 0x23c
    108a:	4805      	ldr	r0, [pc, #20]	; (10a0 <TA_CreateEntryPoint+0x30>)
    108c:	4478      	add	r0, pc
    108e:	f002 fc02 	bl	3896 <trace_printf>
/usr/src/app/examples/example_trustzone/ta2/ta2.c:573
    1092:	f04f 0300 	mov.w	r3, #0
/usr/src/app/examples/example_trustzone/ta2/ta2.c:574
    1096:	4618      	mov	r0, r3
    1098:	46bd      	mov	sp, r7
    109a:	bd80      	pop	{r7, pc}
    109c:	00013eaa 	.word	0x00013eaa
    10a0:	00014070 	.word	0x00014070

000010a4 <TA_DestroyEntryPoint>:
TA_DestroyEntryPoint():
/usr/src/app/examples/example_trustzone/ta2/ta2.c:577
    10a4:	e96d 7e02 	strd	r7, lr, [sp, #-8]!
    10a8:	b082      	sub	sp, #8
    10aa:	af02      	add	r7, sp, #8
/usr/src/app/examples/example_trustzone/ta2/ta2.c:578
    10ac:	4b07      	ldr	r3, [pc, #28]	; (10cc <TA_DestroyEntryPoint+0x28>)
    10ae:	447b      	add	r3, pc
    10b0:	9300      	str	r3, [sp, #0]
    10b2:	f04f 0301 	mov.w	r3, #1
    10b6:	f04f 0203 	mov.w	r2, #3
    10ba:	f240 2142 	movw	r1, #578	; 0x242
    10be:	4804      	ldr	r0, [pc, #16]	; (10d0 <TA_DestroyEntryPoint+0x2c>)
    10c0:	4478      	add	r0, pc
    10c2:	f002 fbe8 	bl	3896 <trace_printf>
/usr/src/app/examples/example_trustzone/ta2/ta2.c:579
    10c6:	bf00      	nop
    10c8:	46bd      	mov	sp, r7
    10ca:	bd80      	pop	{r7, pc}
    10cc:	00013eae 	.word	0x00013eae
    10d0:	00014050 	.word	0x00014050

000010d4 <TA_OpenSessionEntryPoint>:
TA_OpenSessionEntryPoint():
/usr/src/app/examples/example_trustzone/ta2/ta2.c:585
    10d4:	e96d 7e02 	strd	r7, lr, [sp, #-8]!
    10d8:	b088      	sub	sp, #32
    10da:	af02      	add	r7, sp, #8
    10dc:	60f8      	str	r0, [r7, #12]
    10de:	60b9      	str	r1, [r7, #8]
    10e0:	607a      	str	r2, [r7, #4]
/usr/src/app/examples/example_trustzone/ta2/ta2.c:586
    10e2:	4b1f      	ldr	r3, [pc, #124]	; (1160 <TA_OpenSessionEntryPoint+0x8c>)
    10e4:	447b      	add	r3, pc
    10e6:	9300      	str	r3, [sp, #0]
    10e8:	f04f 0301 	mov.w	r3, #1
    10ec:	f04f 0203 	mov.w	r2, #3
    10f0:	f240 214a 	movw	r1, #586	; 0x24a
    10f4:	481b      	ldr	r0, [pc, #108]	; (1164 <TA_OpenSessionEntryPoint+0x90>)
    10f6:	4478      	add	r0, pc
    10f8:	f002 fbcd 	bl	3896 <trace_printf>
/usr/src/app/examples/example_trustzone/ta2/ta2.c:589
    10fc:	f04f 0100 	mov.w	r1, #0
    1100:	f04f 0014 	mov.w	r0, #20
    1104:	f004 fbac 	bl	5860 <TEE_Malloc>
    1108:	6178      	str	r0, [r7, #20]
/usr/src/app/examples/example_trustzone/ta2/ta2.c:590
    110a:	697b      	ldr	r3, [r7, #20]
    110c:	2b00      	cmp	r3, #0
    110e:	d104      	bne.n	111a <TA_OpenSessionEntryPoint+0x46>
/usr/src/app/examples/example_trustzone/ta2/ta2.c:591
    1110:	f04f 030c 	mov.w	r3, #12
    1114:	f6cf 73ff 	movt	r3, #65535	; 0xffff
    1118:	e01c      	b.n	1154 <TA_OpenSessionEntryPoint+0x80>
/usr/src/app/examples/example_trustzone/ta2/ta2.c:593
    111a:	697b      	ldr	r3, [r7, #20]
    111c:	f04f 0200 	mov.w	r2, #0
    1120:	611a      	str	r2, [r3, #16]
/usr/src/app/examples/example_trustzone/ta2/ta2.c:594
    1122:	697b      	ldr	r3, [r7, #20]
    1124:	f04f 0200 	mov.w	r2, #0
    1128:	60da      	str	r2, [r3, #12]
/usr/src/app/examples/example_trustzone/ta2/ta2.c:596
    112a:	687b      	ldr	r3, [r7, #4]
    112c:	697a      	ldr	r2, [r7, #20]
    112e:	601a      	str	r2, [r3, #0]
/usr/src/app/examples/example_trustzone/ta2/ta2.c:597
    1130:	687b      	ldr	r3, [r7, #4]
    1132:	681b      	ldr	r3, [r3, #0]
    1134:	9301      	str	r3, [sp, #4]
    1136:	4b0c      	ldr	r3, [pc, #48]	; (1168 <TA_OpenSessionEntryPoint+0x94>)
    1138:	447b      	add	r3, pc
    113a:	9300      	str	r3, [sp, #0]
    113c:	f04f 0301 	mov.w	r3, #1
    1140:	f04f 0203 	mov.w	r2, #3
    1144:	f240 2155 	movw	r1, #597	; 0x255
    1148:	4808      	ldr	r0, [pc, #32]	; (116c <TA_OpenSessionEntryPoint+0x98>)
    114a:	4478      	add	r0, pc
    114c:	f002 fba3 	bl	3896 <trace_printf>
/usr/src/app/examples/example_trustzone/ta2/ta2.c:599
    1150:	f04f 0300 	mov.w	r3, #0
/usr/src/app/examples/example_trustzone/ta2/ta2.c:600
    1154:	4618      	mov	r0, r3
    1156:	f107 0718 	add.w	r7, r7, #24
    115a:	46bd      	mov	sp, r7
    115c:	bd80      	pop	{r7, pc}
    115e:	bf00      	nop
    1160:	00013eb0 	.word	0x00013eb0
    1164:	00014032 	.word	0x00014032
    1168:	00013e94 	.word	0x00013e94
    116c:	00013fde 	.word	0x00013fde

00001170 <TA_CloseSessionEntryPoint>:
TA_CloseSessionEntryPoint():
/usr/src/app/examples/example_trustzone/ta2/ta2.c:604
    1170:	e96d 7e02 	strd	r7, lr, [sp, #-8]!
    1174:	b086      	sub	sp, #24
    1176:	af02      	add	r7, sp, #8
    1178:	6078      	str	r0, [r7, #4]
/usr/src/app/examples/example_trustzone/ta2/ta2.c:605
    117a:	4b1c      	ldr	r3, [pc, #112]	; (11ec <TA_CloseSessionEntryPoint+0x7c>)
    117c:	447b      	add	r3, pc
    117e:	9300      	str	r3, [sp, #0]
    1180:	f04f 0301 	mov.w	r3, #1
    1184:	f04f 0203 	mov.w	r2, #3
    1188:	f240 215d 	movw	r1, #605	; 0x25d
    118c:	4818      	ldr	r0, [pc, #96]	; (11f0 <TA_CloseSessionEntryPoint+0x80>)
    118e:	4478      	add	r0, pc
    1190:	f002 fb81 	bl	3896 <trace_printf>
/usr/src/app/examples/example_trustzone/ta2/ta2.c:610
    1194:	687b      	ldr	r3, [r7, #4]
    1196:	9301      	str	r3, [sp, #4]
    1198:	4b16      	ldr	r3, [pc, #88]	; (11f4 <TA_CloseSessionEntryPoint+0x84>)
    119a:	447b      	add	r3, pc
    119c:	9300      	str	r3, [sp, #0]
    119e:	f04f 0301 	mov.w	r3, #1
    11a2:	f04f 0203 	mov.w	r2, #3
    11a6:	f240 2162 	movw	r1, #610	; 0x262
    11aa:	4813      	ldr	r0, [pc, #76]	; (11f8 <TA_CloseSessionEntryPoint+0x88>)
    11ac:	4478      	add	r0, pc
    11ae:	f002 fb72 	bl	3896 <trace_printf>
/usr/src/app/examples/example_trustzone/ta2/ta2.c:611
    11b2:	687b      	ldr	r3, [r7, #4]
    11b4:	60fb      	str	r3, [r7, #12]
/usr/src/app/examples/example_trustzone/ta2/ta2.c:614
    11b6:	68fb      	ldr	r3, [r7, #12]
    11b8:	691b      	ldr	r3, [r3, #16]
    11ba:	2b00      	cmp	r3, #0
    11bc:	d004      	beq.n	11c8 <TA_CloseSessionEntryPoint+0x58>
/usr/src/app/examples/example_trustzone/ta2/ta2.c:615
    11be:	68fb      	ldr	r3, [r7, #12]
    11c0:	691b      	ldr	r3, [r3, #16]
    11c2:	4618      	mov	r0, r3
    11c4:	f012 fdb7 	bl	13d36 <TEE_FreeTransientObject>
/usr/src/app/examples/example_trustzone/ta2/ta2.c:616
    11c8:	68fb      	ldr	r3, [r7, #12]
    11ca:	68db      	ldr	r3, [r3, #12]
    11cc:	2b00      	cmp	r3, #0
    11ce:	d004      	beq.n	11da <TA_CloseSessionEntryPoint+0x6a>
/usr/src/app/examples/example_trustzone/ta2/ta2.c:617
    11d0:	68fb      	ldr	r3, [r7, #12]
    11d2:	68db      	ldr	r3, [r3, #12]
    11d4:	4618      	mov	r0, r3
    11d6:	f005 fc55 	bl	6a84 <TEE_FreeOperation>
/usr/src/app/examples/example_trustzone/ta2/ta2.c:618
    11da:	68f8      	ldr	r0, [r7, #12]
    11dc:	f004 fb84 	bl	58e8 <TEE_Free>
/usr/src/app/examples/example_trustzone/ta2/ta2.c:619
    11e0:	bf00      	nop
    11e2:	f107 0710 	add.w	r7, r7, #16
    11e6:	46bd      	mov	sp, r7
    11e8:	bd80      	pop	{r7, pc}
    11ea:	bf00      	nop
    11ec:	00013e6c 	.word	0x00013e6c
    11f0:	00013fb6 	.word	0x00013fb6
    11f4:	00013e86 	.word	0x00013e86
    11f8:	00013f98 	.word	0x00013f98

000011fc <TA_InvokeCommandEntryPoint>:
TA_InvokeCommandEntryPoint():
/usr/src/app/examples/example_trustzone/ta2/ta2.c:624
    11fc:	e96d 7e02 	strd	r7, lr, [sp, #-8]!
    1200:	b086      	sub	sp, #24
    1202:	af02      	add	r7, sp, #8
    1204:	60f8      	str	r0, [r7, #12]
    1206:	60b9      	str	r1, [r7, #8]
    1208:	607a      	str	r2, [r7, #4]
    120a:	603b      	str	r3, [r7, #0]
/usr/src/app/examples/example_trustzone/ta2/ta2.c:625
    120c:	4b22      	ldr	r3, [pc, #136]	; (1298 <TA_InvokeCommandEntryPoint+0x9c>)
    120e:	447b      	add	r3, pc
    1210:	4618      	mov	r0, r3
    1212:	f003 fe51 	bl	4eb8 <puts>
    1216:	68bb      	ldr	r3, [r7, #8]
    1218:	2b03      	cmp	r3, #3
    121a:	d825      	bhi.n	1268 <TA_InvokeCommandEntryPoint+0x6c>
    121c:	a202      	add	r2, pc, #8	; (adr r2, 1228 <TA_InvokeCommandEntryPoint+0x2c>)
    121e:	f852 3023 	ldr.w	r3, [r2, r3, lsl #2]
    1222:	441a      	add	r2, r3
    1224:	4710      	bx	r2
    1226:	bf00      	nop
    1228:	00000011 	.word	0x00000011
    122c:	0000001f 	.word	0x0000001f
    1230:	0000002d 	.word	0x0000002d
    1234:	0000003b 	.word	0x0000003b
/usr/src/app/examples/example_trustzone/ta2/ta2.c:628
    1238:	683a      	ldr	r2, [r7, #0]
    123a:	6879      	ldr	r1, [r7, #4]
    123c:	68f8      	ldr	r0, [r7, #12]
    123e:	f7ff fae9 	bl	814 <set_key>
    1242:	4603      	mov	r3, r0
    1244:	e023      	b.n	128e <TA_InvokeCommandEntryPoint+0x92>
/usr/src/app/examples/example_trustzone/ta2/ta2.c:630
    1246:	683a      	ldr	r2, [r7, #0]
    1248:	6879      	ldr	r1, [r7, #4]
    124a:	68f8      	ldr	r0, [r7, #12]
    124c:	f7ff fc40 	bl	ad0 <attest>
    1250:	4603      	mov	r3, r0
    1252:	e01c      	b.n	128e <TA_InvokeCommandEntryPoint+0x92>
/usr/src/app/examples/example_trustzone/ta2/ta2.c:632
    1254:	683a      	ldr	r2, [r7, #0]
    1256:	6879      	ldr	r1, [r7, #4]
    1258:	68f8      	ldr	r0, [r7, #12]
    125a:	f7ff fd47 	bl	cec <handle_input>
    125e:	4603      	mov	r3, r0
    1260:	e015      	b.n	128e <TA_InvokeCommandEntryPoint+0x92>
/usr/src/app/examples/example_trustzone/ta2/ta2.c:634
    1262:	f04f 0300 	mov.w	r3, #0
    1266:	e012      	b.n	128e <TA_InvokeCommandEntryPoint+0x92>
/usr/src/app/examples/example_trustzone/ta2/ta2.c:636
    1268:	68bb      	ldr	r3, [r7, #8]
    126a:	9301      	str	r3, [sp, #4]
    126c:	4b0b      	ldr	r3, [pc, #44]	; (129c <TA_InvokeCommandEntryPoint+0xa0>)
    126e:	447b      	add	r3, pc
    1270:	9300      	str	r3, [sp, #0]
    1272:	f04f 0301 	mov.w	r3, #1
    1276:	f04f 0201 	mov.w	r2, #1
    127a:	f44f 711f 	mov.w	r1, #636	; 0x27c
    127e:	4808      	ldr	r0, [pc, #32]	; (12a0 <TA_InvokeCommandEntryPoint+0xa4>)
    1280:	4478      	add	r0, pc
    1282:	f002 fb08 	bl	3896 <trace_printf>
/usr/src/app/examples/example_trustzone/ta2/ta2.c:637
    1286:	f04f 030a 	mov.w	r3, #10
    128a:	f6cf 73ff 	movt	r3, #65535	; 0xffff
/usr/src/app/examples/example_trustzone/ta2/ta2.c:639
    128e:	4618      	mov	r0, r3
    1290:	f107 0710 	add.w	r7, r7, #16
    1294:	46bd      	mov	sp, r7
    1296:	bd80      	pop	{r7, pc}
    1298:	00013e2e 	.word	0x00013e2e
    129c:	00013dfe 	.word	0x00013dfe
    12a0:	00013ee0 	.word	0x00013ee0

000012a4 <min>:
min():
/usr/src/app/examples/example_trustzone/ta2/spongent.c:41
    12a4:	f84d 7d04 	str.w	r7, [sp, #-4]!
    12a8:	b085      	sub	sp, #20
    12aa:	af00      	add	r7, sp, #0
    12ac:	e9c7 0102 	strd	r0, r1, [r7, #8]
    12b0:	e9c7 2300 	strd	r2, r3, [r7]
/usr/src/app/examples/example_trustzone/ta2/spongent.c:42
    12b4:	e9d7 2302 	ldrd	r2, r3, [r7, #8]
    12b8:	e9d7 0100 	ldrd	r0, r1, [r7]
    12bc:	4290      	cmp	r0, r2
    12be:	eb71 0303 	sbcs.w	r3, r1, r3
    12c2:	d302      	bcc.n	12ca <min+0x26>
/usr/src/app/examples/example_trustzone/ta2/spongent.c:43
    12c4:	e9d7 2302 	ldrd	r2, r3, [r7, #8]
    12c8:	e001      	b.n	12ce <min+0x2a>
/usr/src/app/examples/example_trustzone/ta2/spongent.c:46
    12ca:	e9d7 2300 	ldrd	r2, r3, [r7]
/usr/src/app/examples/example_trustzone/ta2/spongent.c:48
    12ce:	4610      	mov	r0, r2
    12d0:	4619      	mov	r1, r3
    12d2:	f107 0714 	add.w	r7, r7, #20
    12d6:	46bd      	mov	sp, r7
    12d8:	f85d 7b04 	ldr.w	r7, [sp], #4
    12dc:	4770      	bx	lr

000012de <copy_n>:
copy_n():
/usr/src/app/examples/example_trustzone/ta2/spongent.c:51
    12de:	f84d 7d04 	str.w	r7, [sp, #-4]!
    12e2:	b087      	sub	sp, #28
    12e4:	af00      	add	r7, sp, #0
    12e6:	60f8      	str	r0, [r7, #12]
    12e8:	60b9      	str	r1, [r7, #8]
    12ea:	607a      	str	r2, [r7, #4]
/usr/src/app/examples/example_trustzone/ta2/spongent.c:53
    12ec:	f04f 0300 	mov.w	r3, #0
    12f0:	617b      	str	r3, [r7, #20]
    12f2:	e00b      	b.n	130c <copy_n+0x2e>
/usr/src/app/examples/example_trustzone/ta2/spongent.c:54 (discriminator 3)
    12f4:	697b      	ldr	r3, [r7, #20]
    12f6:	68fa      	ldr	r2, [r7, #12]
    12f8:	441a      	add	r2, r3
    12fa:	697b      	ldr	r3, [r7, #20]
    12fc:	6879      	ldr	r1, [r7, #4]
    12fe:	440b      	add	r3, r1
    1300:	7812      	ldrb	r2, [r2, #0]
    1302:	701a      	strb	r2, [r3, #0]
/usr/src/app/examples/example_trustzone/ta2/spongent.c:53 (discriminator 3)
    1304:	697b      	ldr	r3, [r7, #20]
    1306:	f103 0301 	add.w	r3, r3, #1
    130a:	617b      	str	r3, [r7, #20]
/usr/src/app/examples/example_trustzone/ta2/spongent.c:53 (discriminator 1)
    130c:	697a      	ldr	r2, [r7, #20]
    130e:	68bb      	ldr	r3, [r7, #8]
    1310:	429a      	cmp	r2, r3
    1312:	dbef      	blt.n	12f4 <copy_n+0x16>
/usr/src/app/examples/example_trustzone/ta2/spongent.c:56
    1314:	bf00      	nop
    1316:	bf00      	nop
    1318:	f107 071c 	add.w	r7, r7, #28
    131c:	46bd      	mov	sp, r7
    131e:	f85d 7b04 	ldr.w	r7, [sp], #4
    1322:	4770      	bx	lr

00001324 <PrintState>:
PrintState():
/usr/src/app/examples/example_trustzone/ta2/spongent.c:60
    1324:	e96d 7e02 	strd	r7, lr, [sp, #-8]!
    1328:	b084      	sub	sp, #16
    132a:	af00      	add	r7, sp, #0
    132c:	6078      	str	r0, [r7, #4]
/usr/src/app/examples/example_trustzone/ta2/spongent.c:62
    132e:	f04f 0329 	mov.w	r3, #41	; 0x29
    1332:	60fb      	str	r3, [r7, #12]
    1334:	e00d      	b.n	1352 <PrintState+0x2e>
/usr/src/app/examples/example_trustzone/ta2/spongent.c:63 (discriminator 3)
    1336:	687a      	ldr	r2, [r7, #4]
    1338:	68fb      	ldr	r3, [r7, #12]
    133a:	4413      	add	r3, r2
    133c:	781b      	ldrb	r3, [r3, #0]
    133e:	4619      	mov	r1, r3
    1340:	4b0a      	ldr	r3, [pc, #40]	; (136c <PrintState+0x48>)
    1342:	447b      	add	r3, pc
    1344:	4618      	mov	r0, r3
    1346:	f003 fd7d 	bl	4e44 <printf>
/usr/src/app/examples/example_trustzone/ta2/spongent.c:62 (discriminator 3)
    134a:	68fb      	ldr	r3, [r7, #12]
    134c:	f103 33ff 	add.w	r3, r3, #4294967295	; 0xffffffff
    1350:	60fb      	str	r3, [r7, #12]
/usr/src/app/examples/example_trustzone/ta2/spongent.c:62 (discriminator 1)
    1352:	68fb      	ldr	r3, [r7, #12]
    1354:	2b00      	cmp	r3, #0
    1356:	daee      	bge.n	1336 <PrintState+0x12>
/usr/src/app/examples/example_trustzone/ta2/spongent.c:64
    1358:	f04f 000a 	mov.w	r0, #10
    135c:	f003 fdc8 	bl	4ef0 <putchar>
/usr/src/app/examples/example_trustzone/ta2/spongent.c:65
    1360:	bf00      	nop
    1362:	f107 0710 	add.w	r7, r7, #16
    1366:	46bd      	mov	sp, r7
    1368:	bd80      	pop	{r7, pc}
    136a:	bf00      	nop
    136c:	00013e3a 	.word	0x00013e3a

00001370 <lCounter>:
lCounter():
/usr/src/app/examples/example_trustzone/ta2/spongent.c:70
    1370:	f84d 7d04 	str.w	r7, [sp, #-4]!
    1374:	b083      	sub	sp, #12
    1376:	af00      	add	r7, sp, #0
    1378:	4603      	mov	r3, r0
    137a:	80fb      	strh	r3, [r7, #6]
/usr/src/app/examples/example_trustzone/ta2/spongent.c:89
    137c:	88fb      	ldrh	r3, [r7, #6]
    137e:	ea4f 0343 	mov.w	r3, r3, lsl #1
    1382:	b21a      	sxth	r2, r3
    1384:	88fb      	ldrh	r3, [r7, #6]
    1386:	ea4f 13d3 	mov.w	r3, r3, lsr #7
    138a:	b299      	uxth	r1, r3
    138c:	88fb      	ldrh	r3, [r7, #6]
    138e:	ea4f 03d3 	mov.w	r3, r3, lsr #3
    1392:	b29b      	uxth	r3, r3
    1394:	ea83 0301 	eor.w	r3, r3, r1
    1398:	b299      	uxth	r1, r3
    139a:	88fb      	ldrh	r3, [r7, #6]
    139c:	ea4f 0393 	mov.w	r3, r3, lsr #2
    13a0:	b29b      	uxth	r3, r3
    13a2:	ea83 0301 	eor.w	r3, r3, r1
    13a6:	b299      	uxth	r1, r3
    13a8:	88fb      	ldrh	r3, [r7, #6]
    13aa:	ea4f 0353 	mov.w	r3, r3, lsr #1
    13ae:	b29b      	uxth	r3, r3
    13b0:	ea83 0301 	eor.w	r3, r3, r1
    13b4:	b29b      	uxth	r3, r3
    13b6:	b21b      	sxth	r3, r3
    13b8:	f003 0301 	and.w	r3, r3, #1
    13bc:	b21b      	sxth	r3, r3
    13be:	ea43 0302 	orr.w	r3, r3, r2
    13c2:	b21b      	sxth	r3, r3
    13c4:	80fb      	strh	r3, [r7, #6]
/usr/src/app/examples/example_trustzone/ta2/spongent.c:90
    13c6:	88fb      	ldrh	r3, [r7, #6]
    13c8:	b2db      	uxtb	r3, r3
    13ca:	80fb      	strh	r3, [r7, #6]
/usr/src/app/examples/example_trustzone/ta2/spongent.c:91
    13cc:	bf00      	nop
/usr/src/app/examples/example_trustzone/ta2/spongent.c:101
    13ce:	88fb      	ldrh	r3, [r7, #6]
/usr/src/app/examples/example_trustzone/ta2/spongent.c:102
    13d0:	4618      	mov	r0, r3
    13d2:	f107 070c 	add.w	r7, r7, #12
    13d6:	46bd      	mov	sp, r7
    13d8:	f85d 7b04 	ldr.w	r7, [sp], #4
    13dc:	4770      	bx	lr

000013de <retnuoCl>:
retnuoCl():
/usr/src/app/examples/example_trustzone/ta2/spongent.c:107
    13de:	f84d 7d04 	str.w	r7, [sp, #-4]!
    13e2:	b083      	sub	sp, #12
    13e4:	af00      	add	r7, sp, #0
    13e6:	4603      	mov	r3, r0
    13e8:	80fb      	strh	r3, [r7, #6]
/usr/src/app/examples/example_trustzone/ta2/spongent.c:121
    13ea:	88fb      	ldrh	r3, [r7, #6]
    13ec:	ea4f 13c3 	mov.w	r3, r3, lsl #7
    13f0:	b21b      	sxth	r3, r3
    13f2:	b2db      	uxtb	r3, r3
    13f4:	b21a      	sxth	r2, r3
    13f6:	88fb      	ldrh	r3, [r7, #6]
    13f8:	ea4f 1343 	mov.w	r3, r3, lsl #5
    13fc:	b21b      	sxth	r3, r3
    13fe:	f003 0340 	and.w	r3, r3, #64	; 0x40
    1402:	b21b      	sxth	r3, r3
    1404:	ea43 0302 	orr.w	r3, r3, r2
    1408:	b21a      	sxth	r2, r3
    140a:	88fb      	ldrh	r3, [r7, #6]
    140c:	ea4f 03c3 	mov.w	r3, r3, lsl #3
    1410:	b21b      	sxth	r3, r3
    1412:	f003 0320 	and.w	r3, r3, #32
    1416:	b21b      	sxth	r3, r3
    1418:	ea43 0302 	orr.w	r3, r3, r2
    141c:	b21a      	sxth	r2, r3
    141e:	88fb      	ldrh	r3, [r7, #6]
    1420:	ea4f 0343 	mov.w	r3, r3, lsl #1
    1424:	b21b      	sxth	r3, r3
    1426:	f003 0310 	and.w	r3, r3, #16
    142a:	b21b      	sxth	r3, r3
    142c:	ea43 0302 	orr.w	r3, r3, r2
    1430:	b21a      	sxth	r2, r3
    1432:	88fb      	ldrh	r3, [r7, #6]
    1434:	ea4f 0363 	mov.w	r3, r3, asr #1
    1438:	b21b      	sxth	r3, r3
    143a:	f003 0308 	and.w	r3, r3, #8
    143e:	b21b      	sxth	r3, r3
    1440:	ea43 0302 	orr.w	r3, r3, r2
    1444:	b21a      	sxth	r2, r3
    1446:	88fb      	ldrh	r3, [r7, #6]
    1448:	ea4f 03e3 	mov.w	r3, r3, asr #3
    144c:	b21b      	sxth	r3, r3
    144e:	f003 0304 	and.w	r3, r3, #4
    1452:	b21b      	sxth	r3, r3
    1454:	ea43 0302 	orr.w	r3, r3, r2
    1458:	b21a      	sxth	r2, r3
    145a:	88fb      	ldrh	r3, [r7, #6]
    145c:	ea4f 1363 	mov.w	r3, r3, asr #5
    1460:	b21b      	sxth	r3, r3
    1462:	f003 0302 	and.w	r3, r3, #2
    1466:	b21b      	sxth	r3, r3
    1468:	ea43 0302 	orr.w	r3, r3, r2
    146c:	b21a      	sxth	r2, r3
    146e:	88fb      	ldrh	r3, [r7, #6]
    1470:	ea4f 13e3 	mov.w	r3, r3, asr #7
    1474:	b21b      	sxth	r3, r3
    1476:	f003 0301 	and.w	r3, r3, #1
    147a:	b21b      	sxth	r3, r3
    147c:	ea43 0302 	orr.w	r3, r3, r2
    1480:	b21b      	sxth	r3, r3
    1482:	80fb      	strh	r3, [r7, #6]
/usr/src/app/examples/example_trustzone/ta2/spongent.c:122
    1484:	88fb      	ldrh	r3, [r7, #6]
    1486:	ea4f 2303 	mov.w	r3, r3, lsl #8
    148a:	80fb      	strh	r3, [r7, #6]
/usr/src/app/examples/example_trustzone/ta2/spongent.c:123
    148c:	bf00      	nop
/usr/src/app/examples/example_trustzone/ta2/spongent.c:134
    148e:	88fb      	ldrh	r3, [r7, #6]
/usr/src/app/examples/example_trustzone/ta2/spongent.c:135
    1490:	4618      	mov	r0, r3
    1492:	f107 070c 	add.w	r7, r7, #12
    1496:	46bd      	mov	sp, r7
    1498:	f85d 7b04 	ldr.w	r7, [sp], #4
    149c:	4770      	bx	lr

0000149e <Pi>:
Pi():
/usr/src/app/examples/example_trustzone/ta2/spongent.c:140
    149e:	f84d 7d04 	str.w	r7, [sp, #-4]!
    14a2:	b083      	sub	sp, #12
    14a4:	af00      	add	r7, sp, #0
    14a6:	6078      	str	r0, [r7, #4]
/usr/src/app/examples/example_trustzone/ta2/spongent.c:141
    14a8:	687b      	ldr	r3, [r7, #4]
    14aa:	f240 124f 	movw	r2, #335	; 0x14f
    14ae:	4293      	cmp	r3, r2
    14b0:	d018      	beq.n	14e4 <Pi+0x46>
/usr/src/app/examples/example_trustzone/ta2/spongent.c:142
    14b2:	687b      	ldr	r3, [r7, #4]
    14b4:	f04f 0254 	mov.w	r2, #84	; 0x54
    14b8:	fb02 f303 	mul.w	r3, r2, r3
    14bc:	f643 52e7 	movw	r2, #15847	; 0x3de7
    14c0:	f2cc 32a1 	movt	r2, #50081	; 0xc3a1
    14c4:	fb82 1203 	smull	r1, r2, r2, r3
    14c8:	441a      	add	r2, r3
    14ca:	ea4f 2122 	mov.w	r1, r2, asr #8
    14ce:	ea4f 72e3 	mov.w	r2, r3, asr #31
    14d2:	eba1 0202 	sub.w	r2, r1, r2
    14d6:	f240 114f 	movw	r1, #335	; 0x14f
    14da:	fb01 f202 	mul.w	r2, r1, r2
    14de:	eba3 0202 	sub.w	r2, r3, r2
    14e2:	e001      	b.n	14e8 <Pi+0x4a>
/usr/src/app/examples/example_trustzone/ta2/spongent.c:144
    14e4:	f240 124f 	movw	r2, #335	; 0x14f
/usr/src/app/examples/example_trustzone/ta2/spongent.c:145
    14e8:	4613      	mov	r3, r2
    14ea:	4618      	mov	r0, r3
    14ec:	f107 070c 	add.w	r7, r7, #12
    14f0:	46bd      	mov	sp, r7
    14f2:	f85d 7b04 	ldr.w	r7, [sp], #4
    14f6:	4770      	bx	lr

000014f8 <pLayer>:
pLayer():
/usr/src/app/examples/example_trustzone/ta2/spongent.c:150
    14f8:	e96d 7e02 	strd	r7, lr, [sp, #-8]!
    14fc:	b092      	sub	sp, #72	; 0x48
    14fe:	af00      	add	r7, sp, #0
    1500:	6078      	str	r0, [r7, #4]
/usr/src/app/examples/example_trustzone/ta2/spongent.c:154
    1502:	f04f 0300 	mov.w	r3, #0
    1506:	647b      	str	r3, [r7, #68]	; 0x44
    1508:	e00a      	b.n	1520 <pLayer+0x28>
/usr/src/app/examples/example_trustzone/ta2/spongent.c:154 (discriminator 3)
    150a:	f107 020c 	add.w	r2, r7, #12
    150e:	6c7b      	ldr	r3, [r7, #68]	; 0x44
    1510:	4413      	add	r3, r2
    1512:	f04f 0200 	mov.w	r2, #0
    1516:	701a      	strb	r2, [r3, #0]
    1518:	6c7b      	ldr	r3, [r7, #68]	; 0x44
    151a:	f103 0301 	add.w	r3, r3, #1
    151e:	647b      	str	r3, [r7, #68]	; 0x44
/usr/src/app/examples/example_trustzone/ta2/spongent.c:154 (discriminator 1)
    1520:	6c7b      	ldr	r3, [r7, #68]	; 0x44
    1522:	2b29      	cmp	r3, #41	; 0x29
    1524:	ddf1      	ble.n	150a <pLayer+0x12>
/usr/src/app/examples/example_trustzone/ta2/spongent.c:156
    1526:	f04f 0300 	mov.w	r3, #0
    152a:	647b      	str	r3, [r7, #68]	; 0x44
    152c:	e04e      	b.n	15cc <pLayer+0xd4>
/usr/src/app/examples/example_trustzone/ta2/spongent.c:157
    152e:	f04f 0300 	mov.w	r3, #0
    1532:	643b      	str	r3, [r7, #64]	; 0x40
    1534:	e043      	b.n	15be <pLayer+0xc6>
/usr/src/app/examples/example_trustzone/ta2/spongent.c:158 (discriminator 3)
    1536:	687a      	ldr	r2, [r7, #4]
    1538:	6c7b      	ldr	r3, [r7, #68]	; 0x44
    153a:	4413      	add	r3, r2
    153c:	781b      	ldrb	r3, [r3, #0]
    153e:	461a      	mov	r2, r3
    1540:	6c3b      	ldr	r3, [r7, #64]	; 0x40
    1542:	fa42 f303 	asr.w	r3, r2, r3
    1546:	b2db      	uxtb	r3, r3
    1548:	f003 0301 	and.w	r3, r3, #1
    154c:	f887 303f 	strb.w	r3, [r7, #63]	; 0x3f
/usr/src/app/examples/example_trustzone/ta2/spongent.c:159 (discriminator 3)
    1550:	6c7b      	ldr	r3, [r7, #68]	; 0x44
    1552:	ea4f 02c3 	mov.w	r2, r3, lsl #3
    1556:	6c3b      	ldr	r3, [r7, #64]	; 0x40
    1558:	4413      	add	r3, r2
    155a:	4618      	mov	r0, r3
    155c:	f7ff ff9f 	bl	149e <Pi>
    1560:	63b8      	str	r0, [r7, #56]	; 0x38
/usr/src/app/examples/example_trustzone/ta2/spongent.c:160 (discriminator 3)
    1562:	6bbb      	ldr	r3, [r7, #56]	; 0x38
    1564:	f103 0207 	add.w	r2, r3, #7
    1568:	2b00      	cmp	r3, #0
    156a:	bfb4      	ite	lt
    156c:	4613      	movlt	r3, r2
    156e:	461b      	movge	r3, r3
    1570:	ea4f 03e3 	mov.w	r3, r3, asr #3
    1574:	f887 3037 	strb.w	r3, [r7, #55]	; 0x37
/usr/src/app/examples/example_trustzone/ta2/spongent.c:161 (discriminator 3)
    1578:	f897 3037 	ldrb.w	r3, [r7, #55]	; 0x37
    157c:	f107 0248 	add.w	r2, r7, #72	; 0x48
    1580:	4413      	add	r3, r2
    1582:	f813 3c3c 	ldrb.w	r3, [r3, #-60]
    1586:	b25a      	sxtb	r2, r3
    1588:	f897 103f 	ldrb.w	r1, [r7, #63]	; 0x3f
    158c:	f897 3037 	ldrb.w	r3, [r7, #55]	; 0x37
    1590:	ea4f 03c3 	mov.w	r3, r3, lsl #3
    1594:	6bb8      	ldr	r0, [r7, #56]	; 0x38
    1596:	eba0 0303 	sub.w	r3, r0, r3
    159a:	fa01 f303 	lsl.w	r3, r1, r3
    159e:	b25b      	sxtb	r3, r3
    15a0:	ea83 0302 	eor.w	r3, r3, r2
    15a4:	b25a      	sxtb	r2, r3
    15a6:	f897 3037 	ldrb.w	r3, [r7, #55]	; 0x37
    15aa:	b2d2      	uxtb	r2, r2
    15ac:	f107 0148 	add.w	r1, r7, #72	; 0x48
    15b0:	440b      	add	r3, r1
    15b2:	f803 2c3c 	strb.w	r2, [r3, #-60]
/usr/src/app/examples/example_trustzone/ta2/spongent.c:157 (discriminator 3)
    15b6:	6c3b      	ldr	r3, [r7, #64]	; 0x40
    15b8:	f103 0301 	add.w	r3, r3, #1
    15bc:	643b      	str	r3, [r7, #64]	; 0x40
/usr/src/app/examples/example_trustzone/ta2/spongent.c:157 (discriminator 1)
    15be:	6c3b      	ldr	r3, [r7, #64]	; 0x40
    15c0:	2b07      	cmp	r3, #7
    15c2:	ddb8      	ble.n	1536 <pLayer+0x3e>
/usr/src/app/examples/example_trustzone/ta2/spongent.c:156 (discriminator 2)
    15c4:	6c7b      	ldr	r3, [r7, #68]	; 0x44
    15c6:	f103 0301 	add.w	r3, r3, #1
    15ca:	647b      	str	r3, [r7, #68]	; 0x44
/usr/src/app/examples/example_trustzone/ta2/spongent.c:156 (discriminator 1)
    15cc:	6c7b      	ldr	r3, [r7, #68]	; 0x44
    15ce:	2b29      	cmp	r3, #41	; 0x29
    15d0:	ddad      	ble.n	152e <pLayer+0x36>
/usr/src/app/examples/example_trustzone/ta2/spongent.c:164
    15d2:	687b      	ldr	r3, [r7, #4]
    15d4:	4618      	mov	r0, r3
    15d6:	f107 030c 	add.w	r3, r7, #12
    15da:	f04f 022a 	mov.w	r2, #42	; 0x2a
    15de:	4619      	mov	r1, r3
    15e0:	f011 fdb2 	bl	13148 <memcpy>
/usr/src/app/examples/example_trustzone/ta2/spongent.c:165
    15e4:	bf00      	nop
    15e6:	f107 0748 	add.w	r7, r7, #72	; 0x48
    15ea:	46bd      	mov	sp, r7
    15ec:	bd80      	pop	{r7, pc}

000015ee <Permute>:
Permute():
/usr/src/app/examples/example_trustzone/ta2/spongent.c:170
    15ee:	f84d 4d0c 	str.w	r4, [sp, #-12]!
    15f2:	e9cd 7e01 	strd	r7, lr, [sp, #4]
    15f6:	b085      	sub	sp, #20
    15f8:	af00      	add	r7, sp, #0
    15fa:	6078      	str	r0, [r7, #4]
    15fc:	4c3b      	ldr	r4, [pc, #236]	; (16ec <Permute+0xfe>)
    15fe:	447c      	add	r4, pc
/usr/src/app/examples/example_trustzone/ta2/spongent.c:183
    1600:	f04f 0352 	mov.w	r3, #82	; 0x52
    1604:	817b      	strh	r3, [r7, #10]
    1606:	bf00      	nop
/usr/src/app/examples/example_trustzone/ta2/spongent.c:190
    1608:	f04f 0300 	mov.w	r3, #0
    160c:	81fb      	strh	r3, [r7, #14]
    160e:	e05f      	b.n	16d0 <Permute+0xe2>
/usr/src/app/examples/example_trustzone/ta2/spongent.c:196
    1610:	687b      	ldr	r3, [r7, #4]
    1612:	781b      	ldrb	r3, [r3, #0]
    1614:	b25a      	sxtb	r2, r3
    1616:	897b      	ldrh	r3, [r7, #10]
    1618:	b25b      	sxtb	r3, r3
    161a:	ea83 0302 	eor.w	r3, r3, r2
    161e:	b25b      	sxtb	r3, r3
    1620:	b2da      	uxtb	r2, r3
    1622:	687b      	ldr	r3, [r7, #4]
    1624:	701a      	strb	r2, [r3, #0]
/usr/src/app/examples/example_trustzone/ta2/spongent.c:197
    1626:	687b      	ldr	r3, [r7, #4]
    1628:	785b      	ldrb	r3, [r3, #1]
    162a:	b25a      	sxtb	r2, r3
    162c:	897b      	ldrh	r3, [r7, #10]
    162e:	ea4f 2313 	mov.w	r3, r3, lsr #8
    1632:	b29b      	uxth	r3, r3
    1634:	b25b      	sxtb	r3, r3
    1636:	ea83 0302 	eor.w	r3, r3, r2
    163a:	b25b      	sxtb	r3, r3
    163c:	b2da      	uxtb	r2, r3
    163e:	687b      	ldr	r3, [r7, #4]
    1640:	705a      	strb	r2, [r3, #1]
/usr/src/app/examples/example_trustzone/ta2/spongent.c:198
    1642:	897b      	ldrh	r3, [r7, #10]
    1644:	4618      	mov	r0, r3
    1646:	f7ff feca 	bl	13de <retnuoCl>
    164a:	4603      	mov	r3, r0
    164c:	813b      	strh	r3, [r7, #8]
/usr/src/app/examples/example_trustzone/ta2/spongent.c:199
    164e:	687b      	ldr	r3, [r7, #4]
    1650:	f893 3029 	ldrb.w	r3, [r3, #41]	; 0x29
    1654:	b25a      	sxtb	r2, r3
    1656:	893b      	ldrh	r3, [r7, #8]
    1658:	ea4f 2313 	mov.w	r3, r3, lsr #8
    165c:	b29b      	uxth	r3, r3
    165e:	b25b      	sxtb	r3, r3
    1660:	ea83 0302 	eor.w	r3, r3, r2
    1664:	b25b      	sxtb	r3, r3
    1666:	b2da      	uxtb	r2, r3
    1668:	687b      	ldr	r3, [r7, #4]
    166a:	f883 2029 	strb.w	r2, [r3, #41]	; 0x29
/usr/src/app/examples/example_trustzone/ta2/spongent.c:200
    166e:	687b      	ldr	r3, [r7, #4]
    1670:	f893 3028 	ldrb.w	r3, [r3, #40]	; 0x28
    1674:	b25a      	sxtb	r2, r3
    1676:	893b      	ldrh	r3, [r7, #8]
    1678:	b25b      	sxtb	r3, r3
    167a:	ea83 0302 	eor.w	r3, r3, r2
    167e:	b25b      	sxtb	r3, r3
    1680:	b2da      	uxtb	r2, r3
    1682:	687b      	ldr	r3, [r7, #4]
    1684:	f883 2028 	strb.w	r2, [r3, #40]	; 0x28
/usr/src/app/examples/example_trustzone/ta2/spongent.c:201
    1688:	897b      	ldrh	r3, [r7, #10]
    168a:	4618      	mov	r0, r3
    168c:	f7ff fe70 	bl	1370 <lCounter>
    1690:	4603      	mov	r3, r0
    1692:	817b      	strh	r3, [r7, #10]
/usr/src/app/examples/example_trustzone/ta2/spongent.c:204
    1694:	f04f 0300 	mov.w	r3, #0
    1698:	81bb      	strh	r3, [r7, #12]
    169a:	e00f      	b.n	16bc <Permute+0xce>
/usr/src/app/examples/example_trustzone/ta2/spongent.c:205 (discriminator 3)
    169c:	89bb      	ldrh	r3, [r7, #12]
    169e:	687a      	ldr	r2, [r7, #4]
    16a0:	5cd3      	ldrb	r3, [r2, r3]
    16a2:	461a      	mov	r2, r3
    16a4:	4b12      	ldr	r3, [pc, #72]	; (16f0 <Permute+0x102>)
    16a6:	58e3      	ldr	r3, [r4, r3]
    16a8:	f853 2022 	ldr.w	r2, [r3, r2, lsl #2]
    16ac:	89bb      	ldrh	r3, [r7, #12]
    16ae:	b2d1      	uxtb	r1, r2
    16b0:	687a      	ldr	r2, [r7, #4]
    16b2:	54d1      	strb	r1, [r2, r3]
/usr/src/app/examples/example_trustzone/ta2/spongent.c:204 (discriminator 3)
    16b4:	89bb      	ldrh	r3, [r7, #12]
    16b6:	f103 0301 	add.w	r3, r3, #1
    16ba:	81bb      	strh	r3, [r7, #12]
/usr/src/app/examples/example_trustzone/ta2/spongent.c:204 (discriminator 1)
    16bc:	89bb      	ldrh	r3, [r7, #12]
    16be:	2b29      	cmp	r3, #41	; 0x29
    16c0:	d9ec      	bls.n	169c <Permute+0xae>
/usr/src/app/examples/example_trustzone/ta2/spongent.c:208 (discriminator 2)
    16c2:	6878      	ldr	r0, [r7, #4]
    16c4:	f7ff ff18 	bl	14f8 <pLayer>
/usr/src/app/examples/example_trustzone/ta2/spongent.c:190 (discriminator 2)
    16c8:	89fb      	ldrh	r3, [r7, #14]
    16ca:	f103 0301 	add.w	r3, r3, #1
    16ce:	81fb      	strh	r3, [r7, #14]
/usr/src/app/examples/example_trustzone/ta2/spongent.c:190 (discriminator 1)
    16d0:	89fb      	ldrh	r3, [r7, #14]
    16d2:	2ba9      	cmp	r3, #169	; 0xa9
    16d4:	d99c      	bls.n	1610 <Permute+0x22>
/usr/src/app/examples/example_trustzone/ta2/spongent.c:214
    16d6:	bf00      	nop
    16d8:	bf00      	nop
    16da:	f107 0714 	add.w	r7, r7, #20
    16de:	46bd      	mov	sp, r7
    16e0:	e9dd 4700 	ldrd	r4, r7, [sp]
    16e4:	b002      	add	sp, #8
    16e6:	f85d fb04 	ldr.w	pc, [sp], #4
    16ea:	bf00      	nop
    16ec:	00016a86 	.word	0x00016a86
    16f0:	0000004c 	.word	0x0000004c

000016f4 <Init>:
Init():
/usr/src/app/examples/example_trustzone/ta2/spongent.c:219
    16f4:	e96d 7e02 	strd	r7, lr, [sp, #-8]!
    16f8:	b082      	sub	sp, #8
    16fa:	af00      	add	r7, sp, #0
    16fc:	6078      	str	r0, [r7, #4]
    16fe:	6039      	str	r1, [r7, #0]
/usr/src/app/examples/example_trustzone/ta2/spongent.c:221
    1700:	687b      	ldr	r3, [r7, #4]
    1702:	f04f 022a 	mov.w	r2, #42	; 0x2a
    1706:	f04f 0100 	mov.w	r1, #0
    170a:	4618      	mov	r0, r3
    170c:	f011 fd95 	bl	1323a <memset>
/usr/src/app/examples/example_trustzone/ta2/spongent.c:222
    1710:	687b      	ldr	r3, [r7, #4]
    1712:	f04f 0200 	mov.w	r2, #0
    1716:	635a      	str	r2, [r3, #52]	; 0x34
/usr/src/app/examples/example_trustzone/ta2/spongent.c:223
    1718:	687b      	ldr	r3, [r7, #4]
    171a:	f04f 0200 	mov.w	r2, #0
    171e:	631a      	str	r2, [r3, #48]	; 0x30
/usr/src/app/examples/example_trustzone/ta2/spongent.c:225
    1720:	683b      	ldr	r3, [r7, #0]
    1722:	2b00      	cmp	r3, #0
    1724:	d006      	beq.n	1734 <Init+0x40>
/usr/src/app/examples/example_trustzone/ta2/spongent.c:226
    1726:	f04f 0210 	mov.w	r2, #16
    172a:	f04f 0100 	mov.w	r1, #0
    172e:	6838      	ldr	r0, [r7, #0]
    1730:	f011 fd83 	bl	1323a <memset>
/usr/src/app/examples/example_trustzone/ta2/spongent.c:228
    1734:	f04f 0300 	mov.w	r3, #0
/usr/src/app/examples/example_trustzone/ta2/spongent.c:229
    1738:	4618      	mov	r0, r3
    173a:	f107 0708 	add.w	r7, r7, #8
    173e:	46bd      	mov	sp, r7
    1740:	bd80      	pop	{r7, pc}

00001742 <Absorb>:
Absorb():
/usr/src/app/examples/example_trustzone/ta2/spongent.c:234
    1742:	e96d 7e02 	strd	r7, lr, [sp, #-8]!
    1746:	b084      	sub	sp, #16
    1748:	af00      	add	r7, sp, #0
    174a:	6078      	str	r0, [r7, #4]
/usr/src/app/examples/example_trustzone/ta2/spongent.c:236
    174c:	f04f 0300 	mov.w	r3, #0
    1750:	60fb      	str	r3, [r7, #12]
    1752:	e015      	b.n	1780 <Absorb+0x3e>
/usr/src/app/examples/example_trustzone/ta2/spongent.c:237 (discriminator 3)
    1754:	687a      	ldr	r2, [r7, #4]
    1756:	68fb      	ldr	r3, [r7, #12]
    1758:	4413      	add	r3, r2
    175a:	781a      	ldrb	r2, [r3, #0]
    175c:	6879      	ldr	r1, [r7, #4]
    175e:	68fb      	ldr	r3, [r7, #12]
    1760:	440b      	add	r3, r1
    1762:	f103 032a 	add.w	r3, r3, #42	; 0x2a
    1766:	781b      	ldrb	r3, [r3, #0]
    1768:	ea83 0302 	eor.w	r3, r3, r2
    176c:	b2d9      	uxtb	r1, r3
    176e:	687a      	ldr	r2, [r7, #4]
    1770:	68fb      	ldr	r3, [r7, #12]
    1772:	4413      	add	r3, r2
    1774:	460a      	mov	r2, r1
    1776:	701a      	strb	r2, [r3, #0]
/usr/src/app/examples/example_trustzone/ta2/spongent.c:236 (discriminator 3)
    1778:	68fb      	ldr	r3, [r7, #12]
    177a:	f103 0301 	add.w	r3, r3, #1
    177e:	60fb      	str	r3, [r7, #12]
/usr/src/app/examples/example_trustzone/ta2/spongent.c:236 (discriminator 1)
    1780:	68fb      	ldr	r3, [r7, #12]
    1782:	2b02      	cmp	r3, #2
    1784:	dde6      	ble.n	1754 <Absorb+0x12>
/usr/src/app/examples/example_trustzone/ta2/spongent.c:238
    1786:	6878      	ldr	r0, [r7, #4]
    1788:	f7ff ff31 	bl	15ee <Permute>
/usr/src/app/examples/example_trustzone/ta2/spongent.c:240
    178c:	f04f 0300 	mov.w	r3, #0
/usr/src/app/examples/example_trustzone/ta2/spongent.c:241
    1790:	4618      	mov	r0, r3
    1792:	f107 0710 	add.w	r7, r7, #16
    1796:	46bd      	mov	sp, r7
    1798:	bd80      	pop	{r7, pc}

0000179a <Squeeze>:
Squeeze():
/usr/src/app/examples/example_trustzone/ta2/spongent.c:246
    179a:	e96d 7e02 	strd	r7, lr, [sp, #-8]!
    179e:	b082      	sub	sp, #8
    17a0:	af00      	add	r7, sp, #0
    17a2:	6078      	str	r0, [r7, #4]
/usr/src/app/examples/example_trustzone/ta2/spongent.c:247
    17a4:	687b      	ldr	r3, [r7, #4]
    17a6:	f103 032a 	add.w	r3, r3, #42	; 0x2a
    17aa:	6879      	ldr	r1, [r7, #4]
    17ac:	f04f 0203 	mov.w	r2, #3
    17b0:	4618      	mov	r0, r3
    17b2:	f011 fcc9 	bl	13148 <memcpy>
/usr/src/app/examples/example_trustzone/ta2/spongent.c:254
    17b6:	6878      	ldr	r0, [r7, #4]
    17b8:	f7ff ff19 	bl	15ee <Permute>
/usr/src/app/examples/example_trustzone/ta2/spongent.c:256
    17bc:	f04f 0300 	mov.w	r3, #0
/usr/src/app/examples/example_trustzone/ta2/spongent.c:257
    17c0:	4618      	mov	r0, r3
    17c2:	f107 0708 	add.w	r7, r7, #8
    17c6:	46bd      	mov	sp, r7
    17c8:	bd80      	pop	{r7, pc}

000017ca <Pad>:
Pad():
/usr/src/app/examples/example_trustzone/ta2/spongent.c:262
    17ca:	f84d 7d04 	str.w	r7, [sp, #-4]!
    17ce:	b085      	sub	sp, #20
    17d0:	af00      	add	r7, sp, #0
    17d2:	6078      	str	r0, [r7, #4]
/usr/src/app/examples/example_trustzone/ta2/spongent.c:263
    17d4:	687b      	ldr	r3, [r7, #4]
    17d6:	6b1b      	ldr	r3, [r3, #48]	; 0x30
    17d8:	f103 0207 	add.w	r2, r3, #7
    17dc:	2b00      	cmp	r3, #0
    17de:	bfb4      	ite	lt
    17e0:	4613      	movlt	r3, r2
    17e2:	461b      	movge	r3, r3
    17e4:	ea4f 03e3 	mov.w	r3, r3, asr #3
    17e8:	60fb      	str	r3, [r7, #12]
/usr/src/app/examples/example_trustzone/ta2/spongent.c:264
    17ea:	687b      	ldr	r3, [r7, #4]
    17ec:	6b1b      	ldr	r3, [r3, #48]	; 0x30
    17ee:	425a      	negs	r2, r3
    17f0:	f003 0307 	and.w	r3, r3, #7
    17f4:	f002 0207 	and.w	r2, r2, #7
    17f8:	bf58      	it	pl
    17fa:	4253      	negpl	r3, r2
    17fc:	60bb      	str	r3, [r7, #8]
/usr/src/app/examples/example_trustzone/ta2/spongent.c:267
    17fe:	68bb      	ldr	r3, [r7, #8]
    1800:	2b00      	cmp	r3, #0
    1802:	d019      	beq.n	1838 <Pad+0x6e>
/usr/src/app/examples/example_trustzone/ta2/spongent.c:268
    1804:	687a      	ldr	r2, [r7, #4]
    1806:	68fb      	ldr	r3, [r7, #12]
    1808:	4413      	add	r3, r2
    180a:	f103 032a 	add.w	r3, r3, #42	; 0x2a
    180e:	781b      	ldrb	r3, [r3, #0]
    1810:	b25a      	sxtb	r2, r3
    1812:	68bb      	ldr	r3, [r7, #8]
    1814:	f1c3 0308 	rsb	r3, r3, #8
    1818:	f04f 01ff 	mov.w	r1, #255	; 0xff
    181c:	fa41 f303 	asr.w	r3, r1, r3
    1820:	b25b      	sxtb	r3, r3
    1822:	ea03 0302 	and.w	r3, r3, r2
    1826:	b25b      	sxtb	r3, r3
    1828:	b2d9      	uxtb	r1, r3
    182a:	687a      	ldr	r2, [r7, #4]
    182c:	68fb      	ldr	r3, [r7, #12]
    182e:	4413      	add	r3, r2
    1830:	f103 032a 	add.w	r3, r3, #42	; 0x2a
    1834:	460a      	mov	r2, r1
    1836:	701a      	strb	r2, [r3, #0]
/usr/src/app/examples/example_trustzone/ta2/spongent.c:271
    1838:	68bb      	ldr	r3, [r7, #8]
    183a:	2b00      	cmp	r3, #0
    183c:	d018      	beq.n	1870 <Pad+0xa6>
/usr/src/app/examples/example_trustzone/ta2/spongent.c:272
    183e:	687a      	ldr	r2, [r7, #4]
    1840:	68fb      	ldr	r3, [r7, #12]
    1842:	4413      	add	r3, r2
    1844:	f103 032a 	add.w	r3, r3, #42	; 0x2a
    1848:	781b      	ldrb	r3, [r3, #0]
    184a:	b25a      	sxtb	r2, r3
    184c:	f04f 0101 	mov.w	r1, #1
    1850:	68bb      	ldr	r3, [r7, #8]
    1852:	fa01 f303 	lsl.w	r3, r1, r3
    1856:	b25b      	sxtb	r3, r3
    1858:	ea43 0302 	orr.w	r3, r3, r2
    185c:	b25b      	sxtb	r3, r3
    185e:	b2d9      	uxtb	r1, r3
    1860:	687a      	ldr	r2, [r7, #4]
    1862:	68fb      	ldr	r3, [r7, #12]
    1864:	4413      	add	r3, r2
    1866:	f103 032a 	add.w	r3, r3, #42	; 0x2a
    186a:	460a      	mov	r2, r1
    186c:	701a      	strb	r2, [r3, #0]
    186e:	e014      	b.n	189a <Pad+0xd0>
/usr/src/app/examples/example_trustzone/ta2/spongent.c:274
    1870:	687a      	ldr	r2, [r7, #4]
    1872:	68fb      	ldr	r3, [r7, #12]
    1874:	4413      	add	r3, r2
    1876:	f103 032a 	add.w	r3, r3, #42	; 0x2a
    187a:	f04f 0201 	mov.w	r2, #1
    187e:	701a      	strb	r2, [r3, #0]
/usr/src/app/examples/example_trustzone/ta2/spongent.c:277
    1880:	e00b      	b.n	189a <Pad+0xd0>
/usr/src/app/examples/example_trustzone/ta2/spongent.c:279
    1882:	68fb      	ldr	r3, [r7, #12]
    1884:	f103 0301 	add.w	r3, r3, #1
    1888:	60fb      	str	r3, [r7, #12]
/usr/src/app/examples/example_trustzone/ta2/spongent.c:280
    188a:	687a      	ldr	r2, [r7, #4]
    188c:	68fb      	ldr	r3, [r7, #12]
    188e:	4413      	add	r3, r2
    1890:	f103 032a 	add.w	r3, r3, #42	; 0x2a
    1894:	f04f 0200 	mov.w	r2, #0
    1898:	701a      	strb	r2, [r3, #0]
/usr/src/app/examples/example_trustzone/ta2/spongent.c:277
    189a:	68fb      	ldr	r3, [r7, #12]
    189c:	2b03      	cmp	r3, #3
    189e:	d1f0      	bne.n	1882 <Pad+0xb8>
/usr/src/app/examples/example_trustzone/ta2/spongent.c:282
    18a0:	f04f 0300 	mov.w	r3, #0
/usr/src/app/examples/example_trustzone/ta2/spongent.c:283
    18a4:	4618      	mov	r0, r3
    18a6:	f107 0714 	add.w	r7, r7, #20
    18aa:	46bd      	mov	sp, r7
    18ac:	f85d 7b04 	ldr.w	r7, [sp], #4
    18b0:	4770      	bx	lr

000018b2 <SpongentHash>:
SpongentHash():
/usr/src/app/examples/example_trustzone/ta2/spongent.c:288
    18b2:	e96d 4506 	strd	r4, r5, [sp, #-24]!
    18b6:	e9cd 7802 	strd	r7, r8, [sp, #8]
    18ba:	e9cd 9e04 	strd	r9, lr, [sp, #16]
    18be:	b094      	sub	sp, #80	; 0x50
    18c0:	af00      	add	r7, sp, #0
    18c2:	60f8      	str	r0, [r7, #12]
    18c4:	e9c7 2300 	strd	r2, r3, [r7]
/usr/src/app/examples/example_trustzone/ta2/spongent.c:293
    18c8:	f107 0314 	add.w	r3, r7, #20
    18cc:	6eb9      	ldr	r1, [r7, #104]	; 0x68
    18ce:	4618      	mov	r0, r3
    18d0:	f7ff ff10 	bl	16f4 <Init>
    18d4:	64f8      	str	r0, [r7, #76]	; 0x4c
/usr/src/app/examples/example_trustzone/ta2/spongent.c:294
    18d6:	6cfb      	ldr	r3, [r7, #76]	; 0x4c
    18d8:	2b00      	cmp	r3, #0
    18da:	d01b      	beq.n	1914 <SpongentHash+0x62>
/usr/src/app/examples/example_trustzone/ta2/spongent.c:295
    18dc:	6cfb      	ldr	r3, [r7, #76]	; 0x4c
    18de:	e092      	b.n	1a06 <SpongentHash+0x154>
/usr/src/app/examples/example_trustzone/ta2/spongent.c:300
    18e0:	68fa      	ldr	r2, [r7, #12]
    18e2:	f107 033e 	add.w	r3, r7, #62	; 0x3e
    18e6:	4611      	mov	r1, r2
    18e8:	f04f 0203 	mov.w	r2, #3
    18ec:	4618      	mov	r0, r3
    18ee:	f011 fc2b 	bl	13148 <memcpy>
/usr/src/app/examples/example_trustzone/ta2/spongent.c:308
    18f2:	f107 0314 	add.w	r3, r7, #20
    18f6:	4618      	mov	r0, r3
    18f8:	f7ff ff23 	bl	1742 <Absorb>
/usr/src/app/examples/example_trustzone/ta2/spongent.c:309
    18fc:	e9d7 2300 	ldrd	r2, r3, [r7]
    1900:	f1b2 0812 	subs.w	r8, r2, #18
    1904:	f143 39ff 	adc.w	r9, r3, #4294967295	; 0xffffffff
    1908:	e9c7 8900 	strd	r8, r9, [r7]
/usr/src/app/examples/example_trustzone/ta2/spongent.c:310
    190c:	68fb      	ldr	r3, [r7, #12]
    190e:	f103 0303 	add.w	r3, r3, #3
    1912:	60fb      	str	r3, [r7, #12]
/usr/src/app/examples/example_trustzone/ta2/spongent.c:298
    1914:	e9d7 2300 	ldrd	r2, r3, [r7]
    1918:	2a12      	cmp	r2, #18
    191a:	f173 0300 	sbcs.w	r3, r3, #0
    191e:	d2df      	bcs.n	18e0 <SpongentHash+0x2e>
/usr/src/app/examples/example_trustzone/ta2/spongent.c:314
    1920:	e9d7 2300 	ldrd	r2, r3, [r7]
    1924:	4313      	orrs	r3, r2
    1926:	d027      	beq.n	1978 <SpongentHash+0xc6>
/usr/src/app/examples/example_trustzone/ta2/spongent.c:315
    1928:	e9d7 0100 	ldrd	r0, r1, [r7]
    192c:	f04f 0200 	mov.w	r2, #0
    1930:	f04f 0300 	mov.w	r3, #0
    1934:	ea4f 02d0 	mov.w	r2, r0, lsr #3
    1938:	ea42 7241 	orr.w	r2, r2, r1, lsl #29
    193c:	ea4f 03d1 	mov.w	r3, r1, lsr #3
    1940:	4611      	mov	r1, r2
    1942:	e9d7 2300 	ldrd	r2, r3, [r7]
    1946:	f002 0407 	and.w	r4, r2, #7
    194a:	f04f 0500 	mov.w	r5, #0
    194e:	ea54 0305 	orrs.w	r3, r4, r5
    1952:	d002      	beq.n	195a <SpongentHash+0xa8>
/usr/src/app/examples/example_trustzone/ta2/spongent.c:315 (discriminator 1)
    1954:	f04f 0301 	mov.w	r3, #1
    1958:	e001      	b.n	195e <SpongentHash+0xac>
/usr/src/app/examples/example_trustzone/ta2/spongent.c:315 (discriminator 2)
    195a:	f04f 0300 	mov.w	r3, #0
/usr/src/app/examples/example_trustzone/ta2/spongent.c:315 (discriminator 4)
    195e:	eb03 0201 	add.w	r2, r3, r1
    1962:	f107 0314 	add.w	r3, r7, #20
    1966:	f103 032a 	add.w	r3, r3, #42	; 0x2a
    196a:	68f9      	ldr	r1, [r7, #12]
    196c:	4618      	mov	r0, r3
    196e:	f011 fbeb 	bl	13148 <memcpy>
/usr/src/app/examples/example_trustzone/ta2/spongent.c:316 (discriminator 4)
    1972:	683b      	ldr	r3, [r7, #0]
    1974:	647b      	str	r3, [r7, #68]	; 0x44
    1976:	e010      	b.n	199a <SpongentHash+0xe8>
/usr/src/app/examples/example_trustzone/ta2/spongent.c:318
    1978:	e9d7 2300 	ldrd	r2, r3, [r7]
    197c:	4313      	orrs	r3, r2
    197e:	d10c      	bne.n	199a <SpongentHash+0xe8>
/usr/src/app/examples/example_trustzone/ta2/spongent.c:319
    1980:	f107 0314 	add.w	r3, r7, #20
    1984:	f103 032a 	add.w	r3, r3, #42	; 0x2a
    1988:	f04f 0203 	mov.w	r2, #3
    198c:	f04f 0100 	mov.w	r1, #0
    1990:	4618      	mov	r0, r3
    1992:	f011 fc52 	bl	1323a <memset>
/usr/src/app/examples/example_trustzone/ta2/spongent.c:320
    1996:	683b      	ldr	r3, [r7, #0]
    1998:	647b      	str	r3, [r7, #68]	; 0x44
/usr/src/app/examples/example_trustzone/ta2/spongent.c:322
    199a:	f107 0314 	add.w	r3, r7, #20
    199e:	4618      	mov	r0, r3
    19a0:	f7ff ff13 	bl	17ca <Pad>
/usr/src/app/examples/example_trustzone/ta2/spongent.c:330
    19a4:	f107 0314 	add.w	r3, r7, #20
    19a8:	4618      	mov	r0, r3
    19aa:	f7ff feca 	bl	1742 <Absorb>
/usr/src/app/examples/example_trustzone/ta2/spongent.c:331
    19ae:	6cbb      	ldr	r3, [r7, #72]	; 0x48
    19b0:	f103 0312 	add.w	r3, r3, #18
    19b4:	64bb      	str	r3, [r7, #72]	; 0x48
/usr/src/app/examples/example_trustzone/ta2/spongent.c:334
    19b6:	e015      	b.n	19e4 <SpongentHash+0x132>
/usr/src/app/examples/example_trustzone/ta2/spongent.c:336
    19b8:	f107 0314 	add.w	r3, r7, #20
    19bc:	4618      	mov	r0, r3
    19be:	f7ff feec 	bl	179a <Squeeze>
/usr/src/app/examples/example_trustzone/ta2/spongent.c:337
    19c2:	6ebb      	ldr	r3, [r7, #104]	; 0x68
    19c4:	4618      	mov	r0, r3
    19c6:	f107 033e 	add.w	r3, r7, #62	; 0x3e
    19ca:	f04f 0203 	mov.w	r2, #3
    19ce:	4619      	mov	r1, r3
    19d0:	f011 fbba 	bl	13148 <memcpy>
/usr/src/app/examples/example_trustzone/ta2/spongent.c:338
    19d4:	6cbb      	ldr	r3, [r7, #72]	; 0x48
    19d6:	f103 0312 	add.w	r3, r3, #18
    19da:	64bb      	str	r3, [r7, #72]	; 0x48
/usr/src/app/examples/example_trustzone/ta2/spongent.c:339
    19dc:	6ebb      	ldr	r3, [r7, #104]	; 0x68
    19de:	f103 0303 	add.w	r3, r3, #3
    19e2:	66bb      	str	r3, [r7, #104]	; 0x68
/usr/src/app/examples/example_trustzone/ta2/spongent.c:334
    19e4:	6cbb      	ldr	r3, [r7, #72]	; 0x48
    19e6:	2b7f      	cmp	r3, #127	; 0x7f
    19e8:	dde6      	ble.n	19b8 <SpongentHash+0x106>
/usr/src/app/examples/example_trustzone/ta2/spongent.c:342
    19ea:	f107 0314 	add.w	r3, r7, #20
    19ee:	f04f 0203 	mov.w	r2, #3
    19f2:	4619      	mov	r1, r3
    19f4:	6eb8      	ldr	r0, [r7, #104]	; 0x68
    19f6:	f011 fba7 	bl	13148 <memcpy>
/usr/src/app/examples/example_trustzone/ta2/spongent.c:343
    19fa:	6ebb      	ldr	r3, [r7, #104]	; 0x68
    19fc:	f103 0303 	add.w	r3, r3, #3
    1a00:	66bb      	str	r3, [r7, #104]	; 0x68
/usr/src/app/examples/example_trustzone/ta2/spongent.c:351
    1a02:	f04f 0300 	mov.w	r3, #0
/usr/src/app/examples/example_trustzone/ta2/spongent.c:352 (discriminator 1)
    1a06:	4618      	mov	r0, r3
    1a08:	f107 0750 	add.w	r7, r7, #80	; 0x50
    1a0c:	46bd      	mov	sp, r7
    1a0e:	e9dd 4500 	ldrd	r4, r5, [sp]
    1a12:	e9dd 7802 	ldrd	r7, r8, [sp, #8]
    1a16:	b004      	add	sp, #16
    1a18:	e8bd 8200 	ldmia.w	sp!, {r9, pc}

00001a1c <Duplexing>:
Duplexing():
/usr/src/app/examples/example_trustzone/ta2/spongent.c:359
    1a1c:	e96d 4504 	strd	r4, r5, [sp, #-16]!
    1a20:	e9cd 7e02 	strd	r7, lr, [sp, #8]
    1a24:	b086      	sub	sp, #24
    1a26:	af00      	add	r7, sp, #0
    1a28:	60f8      	str	r0, [r7, #12]
    1a2a:	60b9      	str	r1, [r7, #8]
    1a2c:	e9c7 2300 	strd	r2, r3, [r7]
/usr/src/app/examples/example_trustzone/ta2/spongent.c:360
    1a30:	e9d7 0100 	ldrd	r0, r1, [r7]
    1a34:	f04f 0200 	mov.w	r2, #0
    1a38:	f04f 0300 	mov.w	r3, #0
    1a3c:	ea4f 02d0 	mov.w	r2, r0, lsr #3
    1a40:	ea42 7241 	orr.w	r2, r2, r1, lsl #29
    1a44:	ea4f 03d1 	mov.w	r3, r1, lsr #3
    1a48:	4611      	mov	r1, r2
    1a4a:	e9d7 2300 	ldrd	r2, r3, [r7]
    1a4e:	f002 0407 	and.w	r4, r2, #7
    1a52:	f04f 0500 	mov.w	r5, #0
    1a56:	ea44 0305 	orr.w	r3, r4, r5
    1a5a:	2b00      	cmp	r3, #0
    1a5c:	bf14      	ite	ne
    1a5e:	2301      	movne	r3, #1
    1a60:	2300      	moveq	r3, #0
    1a62:	b2db      	uxtb	r3, r3
    1a64:	440b      	add	r3, r1
    1a66:	4619      	mov	r1, r3
    1a68:	68fb      	ldr	r3, [r7, #12]
    1a6a:	f103 032a 	add.w	r3, r3, #42	; 0x2a
    1a6e:	461a      	mov	r2, r3
    1a70:	68b8      	ldr	r0, [r7, #8]
    1a72:	f7ff fc34 	bl	12de <copy_n>
/usr/src/app/examples/example_trustzone/ta2/spongent.c:361
    1a76:	683a      	ldr	r2, [r7, #0]
    1a78:	68fb      	ldr	r3, [r7, #12]
    1a7a:	631a      	str	r2, [r3, #48]	; 0x30
/usr/src/app/examples/example_trustzone/ta2/spongent.c:362
    1a7c:	68f8      	ldr	r0, [r7, #12]
    1a7e:	f7ff fea4 	bl	17ca <Pad>
    1a82:	6178      	str	r0, [r7, #20]
/usr/src/app/examples/example_trustzone/ta2/spongent.c:364
    1a84:	697b      	ldr	r3, [r7, #20]
    1a86:	2b00      	cmp	r3, #0
    1a88:	d001      	beq.n	1a8e <Duplexing+0x72>
/usr/src/app/examples/example_trustzone/ta2/spongent.c:365
    1a8a:	697b      	ldr	r3, [r7, #20]
    1a8c:	e020      	b.n	1ad0 <Duplexing+0xb4>
/usr/src/app/examples/example_trustzone/ta2/spongent.c:367
    1a8e:	68f8      	ldr	r0, [r7, #12]
    1a90:	f7ff fe57 	bl	1742 <Absorb>
    1a94:	6178      	str	r0, [r7, #20]
/usr/src/app/examples/example_trustzone/ta2/spongent.c:369
    1a96:	697b      	ldr	r3, [r7, #20]
    1a98:	2b00      	cmp	r3, #0
    1a9a:	d001      	beq.n	1aa0 <Duplexing+0x84>
/usr/src/app/examples/example_trustzone/ta2/spongent.c:370
    1a9c:	697b      	ldr	r3, [r7, #20]
    1a9e:	e017      	b.n	1ad0 <Duplexing+0xb4>
/usr/src/app/examples/example_trustzone/ta2/spongent.c:372
    1aa0:	6abb      	ldr	r3, [r7, #40]	; 0x28
    1aa2:	2b00      	cmp	r3, #0
    1aa4:	d012      	beq.n	1acc <Duplexing+0xb0>
/usr/src/app/examples/example_trustzone/ta2/spongent.c:373
    1aa6:	68fc      	ldr	r4, [r7, #12]
    1aa8:	e9d7 010c 	ldrd	r0, r1, [r7, #48]	; 0x30
    1aac:	f04f 0200 	mov.w	r2, #0
    1ab0:	f04f 0300 	mov.w	r3, #0
    1ab4:	ea4f 02d0 	mov.w	r2, r0, lsr #3
    1ab8:	ea42 7241 	orr.w	r2, r2, r1, lsl #29
    1abc:	ea4f 03d1 	mov.w	r3, r1, lsr #3
    1ac0:	4613      	mov	r3, r2
    1ac2:	6aba      	ldr	r2, [r7, #40]	; 0x28
    1ac4:	4619      	mov	r1, r3
    1ac6:	4620      	mov	r0, r4
    1ac8:	f7ff fc09 	bl	12de <copy_n>
/usr/src/app/examples/example_trustzone/ta2/spongent.c:375
    1acc:	f04f 0300 	mov.w	r3, #0
/usr/src/app/examples/example_trustzone/ta2/spongent.c:376
    1ad0:	4618      	mov	r0, r3
    1ad2:	f107 0718 	add.w	r7, r7, #24
    1ad6:	46bd      	mov	sp, r7
    1ad8:	e9dd 4500 	ldrd	r4, r5, [sp]
    1adc:	b002      	add	sp, #8
    1ade:	bd80      	pop	{r7, pc}

00001ae0 <SpongentWrap>:
SpongentWrap():
/usr/src/app/examples/example_trustzone/ta2/spongent.c:384
    1ae0:	e96d 4508 	strd	r4, r5, [sp, #-32]!
    1ae4:	e9cd 7802 	strd	r7, r8, [sp, #8]
    1ae8:	e9cd 9a04 	strd	r9, sl, [sp, #16]
    1aec:	e9cd be06 	strd	fp, lr, [sp, #24]
    1af0:	b0ba      	sub	sp, #232	; 0xe8
    1af2:	af04      	add	r7, sp, #16
    1af4:	6578      	str	r0, [r7, #84]	; 0x54
    1af6:	6539      	str	r1, [r7, #80]	; 0x50
    1af8:	e9c7 2312 	strd	r2, r3, [r7, #72]	; 0x48
/usr/src/app/examples/example_trustzone/ta2/spongent.c:385
    1afc:	e9d7 2312 	ldrd	r2, r3, [r7, #72]	; 0x48
    1b00:	f002 0407 	and.w	r4, r2, #7
    1b04:	f04f 0500 	mov.w	r5, #0
    1b08:	ea54 0305 	orrs.w	r3, r4, r5
    1b0c:	d108      	bne.n	1b20 <SpongentWrap+0x40>
/usr/src/app/examples/example_trustzone/ta2/spongent.c:385 (discriminator 1)
    1b0e:	e9d7 2340 	ldrd	r2, r3, [r7, #256]	; 0x100
    1b12:	f002 0807 	and.w	r8, r2, #7
    1b16:	f04f 0900 	mov.w	r9, #0
    1b1a:	ea58 0309 	orrs.w	r3, r8, r9
    1b1e:	d002      	beq.n	1b26 <SpongentWrap+0x46>
/usr/src/app/examples/example_trustzone/ta2/spongent.c:388
    1b20:	f04f 0301 	mov.w	r3, #1
    1b24:	e2bb      	b.n	209e <SpongentWrap+0x5be>
/usr/src/app/examples/example_trustzone/ta2/spongent.c:392
    1b26:	f107 0360 	add.w	r3, r7, #96	; 0x60
    1b2a:	f04f 0100 	mov.w	r1, #0
    1b2e:	4618      	mov	r0, r3
    1b30:	f7ff fde0 	bl	16f4 <Init>
    1b34:	f8c7 00b0 	str.w	r0, [r7, #176]	; 0xb0
/usr/src/app/examples/example_trustzone/ta2/spongent.c:394
    1b38:	f8d7 30b0 	ldr.w	r3, [r7, #176]	; 0xb0
    1b3c:	2b00      	cmp	r3, #0
    1b3e:	d002      	beq.n	1b46 <SpongentWrap+0x66>
/usr/src/app/examples/example_trustzone/ta2/spongent.c:395
    1b40:	f8d7 30b0 	ldr.w	r3, [r7, #176]	; 0xb0
    1b44:	e2ab      	b.n	209e <SpongentWrap+0x5be>
/usr/src/app/examples/example_trustzone/ta2/spongent.c:399
    1b46:	f04f 0280 	mov.w	r2, #128	; 0x80
    1b4a:	f04f 0300 	mov.w	r3, #0
    1b4e:	e9c7 2334 	strd	r2, r3, [r7, #208]	; 0xd0
/usr/src/app/examples/example_trustzone/ta2/spongent.c:401
    1b52:	e033      	b.n	1bbc <SpongentWrap+0xdc>
/usr/src/app/examples/example_trustzone/ta2/spongent.c:403
    1b54:	f107 035c 	add.w	r3, r7, #92	; 0x5c
    1b58:	461a      	mov	r2, r3
    1b5a:	f04f 0102 	mov.w	r1, #2
    1b5e:	6d78      	ldr	r0, [r7, #84]	; 0x54
    1b60:	f7ff fbbd 	bl	12de <copy_n>
/usr/src/app/examples/example_trustzone/ta2/spongent.c:404
    1b64:	f04f 0301 	mov.w	r3, #1
    1b68:	f887 305e 	strb.w	r3, [r7, #94]	; 0x5e
/usr/src/app/examples/example_trustzone/ta2/spongent.c:405
    1b6c:	f107 015c 	add.w	r1, r7, #92	; 0x5c
    1b70:	f107 0060 	add.w	r0, r7, #96	; 0x60
    1b74:	f04f 0210 	mov.w	r2, #16
    1b78:	f04f 0300 	mov.w	r3, #0
    1b7c:	e9cd 2302 	strd	r2, r3, [sp, #8]
    1b80:	f04f 0300 	mov.w	r3, #0
    1b84:	9300      	str	r3, [sp, #0]
    1b86:	f04f 0211 	mov.w	r2, #17
    1b8a:	f04f 0300 	mov.w	r3, #0
    1b8e:	f7ff ff45 	bl	1a1c <Duplexing>
    1b92:	f8c7 00b0 	str.w	r0, [r7, #176]	; 0xb0
/usr/src/app/examples/example_trustzone/ta2/spongent.c:408
    1b96:	f8d7 30b0 	ldr.w	r3, [r7, #176]	; 0xb0
    1b9a:	2b00      	cmp	r3, #0
    1b9c:	d002      	beq.n	1ba4 <SpongentWrap+0xc4>
/usr/src/app/examples/example_trustzone/ta2/spongent.c:409
    1b9e:	f8d7 30b0 	ldr.w	r3, [r7, #176]	; 0xb0
    1ba2:	e27c      	b.n	209e <SpongentWrap+0x5be>
/usr/src/app/examples/example_trustzone/ta2/spongent.c:411
    1ba4:	e9d7 2334 	ldrd	r2, r3, [r7, #208]	; 0xd0
    1ba8:	f1b2 0a10 	subs.w	sl, r2, #16
    1bac:	f143 3bff 	adc.w	fp, r3, #4294967295	; 0xffffffff
    1bb0:	e9c7 ab34 	strd	sl, fp, [r7, #208]	; 0xd0
/usr/src/app/examples/example_trustzone/ta2/spongent.c:412
    1bb4:	6d7b      	ldr	r3, [r7, #84]	; 0x54
    1bb6:	f103 0302 	add.w	r3, r3, #2
    1bba:	657b      	str	r3, [r7, #84]	; 0x54
/usr/src/app/examples/example_trustzone/ta2/spongent.c:401
    1bbc:	e9d7 2334 	ldrd	r2, r3, [r7, #208]	; 0xd0
    1bc0:	2a11      	cmp	r2, #17
    1bc2:	f173 0300 	sbcs.w	r3, r3, #0
    1bc6:	d2c5      	bcs.n	1b54 <SpongentWrap+0x74>
/usr/src/app/examples/example_trustzone/ta2/spongent.c:415
    1bc8:	e9d7 2334 	ldrd	r2, r3, [r7, #208]	; 0xd0
    1bcc:	f04f 0000 	mov.w	r0, #0
    1bd0:	f04f 0100 	mov.w	r1, #0
    1bd4:	ea4f 00d2 	mov.w	r0, r2, lsr #3
    1bd8:	ea40 7043 	orr.w	r0, r0, r3, lsl #29
    1bdc:	ea4f 01d3 	mov.w	r1, r3, lsr #3
    1be0:	4601      	mov	r1, r0
    1be2:	f107 035c 	add.w	r3, r7, #92	; 0x5c
    1be6:	461a      	mov	r2, r3
    1be8:	6d78      	ldr	r0, [r7, #84]	; 0x54
    1bea:	f7ff fb78 	bl	12de <copy_n>
/usr/src/app/examples/example_trustzone/ta2/spongent.c:416
    1bee:	e9d7 2334 	ldrd	r2, r3, [r7, #208]	; 0xd0
    1bf2:	f04f 0000 	mov.w	r0, #0
    1bf6:	f04f 0100 	mov.w	r1, #0
    1bfa:	ea4f 00d2 	mov.w	r0, r2, lsr #3
    1bfe:	ea40 7043 	orr.w	r0, r0, r3, lsl #29
    1c02:	ea4f 01d3 	mov.w	r1, r3, lsr #3
    1c06:	f107 035c 	add.w	r3, r7, #92	; 0x5c
    1c0a:	eb03 0200 	add.w	r2, r3, r0
    1c0e:	f04f 0300 	mov.w	r3, #0
    1c12:	7013      	strb	r3, [r2, #0]
/usr/src/app/examples/example_trustzone/ta2/spongent.c:417
    1c14:	e9d7 2334 	ldrd	r2, r3, [r7, #208]	; 0xd0
    1c18:	1c51      	adds	r1, r2, #1
    1c1a:	6439      	str	r1, [r7, #64]	; 0x40
    1c1c:	f143 0300 	adc.w	r3, r3, #0
    1c20:	647b      	str	r3, [r7, #68]	; 0x44
    1c22:	f107 015c 	add.w	r1, r7, #92	; 0x5c
    1c26:	f107 0060 	add.w	r0, r7, #96	; 0x60
    1c2a:	f04f 0210 	mov.w	r2, #16
    1c2e:	f04f 0300 	mov.w	r3, #0
    1c32:	e9cd 2302 	strd	r2, r3, [sp, #8]
    1c36:	f04f 0300 	mov.w	r3, #0
    1c3a:	9300      	str	r3, [sp, #0]
    1c3c:	e9d7 2310 	ldrd	r2, r3, [r7, #64]	; 0x40
    1c40:	f7ff feec 	bl	1a1c <Duplexing>
    1c44:	f8c7 00b0 	str.w	r0, [r7, #176]	; 0xb0
/usr/src/app/examples/example_trustzone/ta2/spongent.c:419
    1c48:	f8d7 30b0 	ldr.w	r3, [r7, #176]	; 0xb0
    1c4c:	2b00      	cmp	r3, #0
    1c4e:	d002      	beq.n	1c56 <SpongentWrap+0x176>
/usr/src/app/examples/example_trustzone/ta2/spongent.c:420
    1c50:	f8d7 30b0 	ldr.w	r3, [r7, #176]	; 0xb0
    1c54:	e223      	b.n	209e <SpongentWrap+0x5be>
/usr/src/app/examples/example_trustzone/ta2/spongent.c:422
    1c56:	e9d7 2312 	ldrd	r2, r3, [r7, #72]	; 0x48
    1c5a:	e9c7 2334 	strd	r2, r3, [r7, #208]	; 0xd0
/usr/src/app/examples/example_trustzone/ta2/spongent.c:424
    1c5e:	e037      	b.n	1cd0 <SpongentWrap+0x1f0>
/usr/src/app/examples/example_trustzone/ta2/spongent.c:426
    1c60:	f107 035c 	add.w	r3, r7, #92	; 0x5c
    1c64:	461a      	mov	r2, r3
    1c66:	f04f 0102 	mov.w	r1, #2
    1c6a:	6d38      	ldr	r0, [r7, #80]	; 0x50
    1c6c:	f7ff fb37 	bl	12de <copy_n>
/usr/src/app/examples/example_trustzone/ta2/spongent.c:427
    1c70:	f04f 0300 	mov.w	r3, #0
    1c74:	f887 305e 	strb.w	r3, [r7, #94]	; 0x5e
/usr/src/app/examples/example_trustzone/ta2/spongent.c:428
    1c78:	f107 015c 	add.w	r1, r7, #92	; 0x5c
    1c7c:	f107 0060 	add.w	r0, r7, #96	; 0x60
    1c80:	f04f 0210 	mov.w	r2, #16
    1c84:	f04f 0300 	mov.w	r3, #0
    1c88:	e9cd 2302 	strd	r2, r3, [sp, #8]
    1c8c:	f04f 0300 	mov.w	r3, #0
    1c90:	9300      	str	r3, [sp, #0]
    1c92:	f04f 0211 	mov.w	r2, #17
    1c96:	f04f 0300 	mov.w	r3, #0
    1c9a:	f7ff febf 	bl	1a1c <Duplexing>
    1c9e:	f8c7 00b0 	str.w	r0, [r7, #176]	; 0xb0
/usr/src/app/examples/example_trustzone/ta2/spongent.c:430
    1ca2:	f8d7 30b0 	ldr.w	r3, [r7, #176]	; 0xb0
    1ca6:	2b00      	cmp	r3, #0
    1ca8:	d002      	beq.n	1cb0 <SpongentWrap+0x1d0>
/usr/src/app/examples/example_trustzone/ta2/spongent.c:431
    1caa:	f8d7 30b0 	ldr.w	r3, [r7, #176]	; 0xb0
    1cae:	e1f6      	b.n	209e <SpongentWrap+0x5be>
/usr/src/app/examples/example_trustzone/ta2/spongent.c:433
    1cb0:	e9d7 2334 	ldrd	r2, r3, [r7, #208]	; 0xd0
    1cb4:	f1b2 0110 	subs.w	r1, r2, #16
    1cb8:	6239      	str	r1, [r7, #32]
    1cba:	f143 33ff 	adc.w	r3, r3, #4294967295	; 0xffffffff
    1cbe:	627b      	str	r3, [r7, #36]	; 0x24
    1cc0:	e9d7 3408 	ldrd	r3, r4, [r7, #32]
    1cc4:	e9c7 3434 	strd	r3, r4, [r7, #208]	; 0xd0
/usr/src/app/examples/example_trustzone/ta2/spongent.c:434
    1cc8:	6d3b      	ldr	r3, [r7, #80]	; 0x50
    1cca:	f103 0302 	add.w	r3, r3, #2
    1cce:	653b      	str	r3, [r7, #80]	; 0x50
/usr/src/app/examples/example_trustzone/ta2/spongent.c:424
    1cd0:	e9d7 2334 	ldrd	r2, r3, [r7, #208]	; 0xd0
    1cd4:	2a11      	cmp	r2, #17
    1cd6:	f173 0300 	sbcs.w	r3, r3, #0
    1cda:	d2c1      	bcs.n	1c60 <SpongentWrap+0x180>
/usr/src/app/examples/example_trustzone/ta2/spongent.c:437
    1cdc:	e9d7 2334 	ldrd	r2, r3, [r7, #208]	; 0xd0
    1ce0:	f04f 0000 	mov.w	r0, #0
    1ce4:	f04f 0100 	mov.w	r1, #0
    1ce8:	ea4f 00d2 	mov.w	r0, r2, lsr #3
    1cec:	ea40 7043 	orr.w	r0, r0, r3, lsl #29
    1cf0:	ea4f 01d3 	mov.w	r1, r3, lsr #3
    1cf4:	4601      	mov	r1, r0
    1cf6:	f107 035c 	add.w	r3, r7, #92	; 0x5c
    1cfa:	461a      	mov	r2, r3
    1cfc:	6d38      	ldr	r0, [r7, #80]	; 0x50
    1cfe:	f7ff faee 	bl	12de <copy_n>
/usr/src/app/examples/example_trustzone/ta2/spongent.c:438
    1d02:	e9d7 2334 	ldrd	r2, r3, [r7, #208]	; 0xd0
    1d06:	f04f 0000 	mov.w	r0, #0
    1d0a:	f04f 0100 	mov.w	r1, #0
    1d0e:	ea4f 00d2 	mov.w	r0, r2, lsr #3
    1d12:	ea40 7043 	orr.w	r0, r0, r3, lsl #29
    1d16:	ea4f 01d3 	mov.w	r1, r3, lsr #3
    1d1a:	f107 035c 	add.w	r3, r7, #92	; 0x5c
    1d1e:	eb03 0200 	add.w	r2, r3, r0
    1d22:	f04f 0301 	mov.w	r3, #1
    1d26:	7013      	strb	r3, [r2, #0]
/usr/src/app/examples/example_trustzone/ta2/spongent.c:439
    1d28:	e9d7 2334 	ldrd	r2, r3, [r7, #208]	; 0xd0
    1d2c:	1c51      	adds	r1, r2, #1
    1d2e:	63b9      	str	r1, [r7, #56]	; 0x38
    1d30:	f143 0300 	adc.w	r3, r3, #0
    1d34:	63fb      	str	r3, [r7, #60]	; 0x3c
    1d36:	f107 015c 	add.w	r1, r7, #92	; 0x5c
    1d3a:	f107 0060 	add.w	r0, r7, #96	; 0x60
    1d3e:	f04f 0210 	mov.w	r2, #16
    1d42:	f04f 0300 	mov.w	r3, #0
    1d46:	e9cd 2302 	strd	r2, r3, [sp, #8]
    1d4a:	f107 0358 	add.w	r3, r7, #88	; 0x58
    1d4e:	9300      	str	r3, [sp, #0]
    1d50:	e9d7 230e 	ldrd	r2, r3, [r7, #56]	; 0x38
    1d54:	f7ff fe62 	bl	1a1c <Duplexing>
    1d58:	f8c7 00b0 	str.w	r0, [r7, #176]	; 0xb0
/usr/src/app/examples/example_trustzone/ta2/spongent.c:441
    1d5c:	f8d7 30b0 	ldr.w	r3, [r7, #176]	; 0xb0
    1d60:	2b00      	cmp	r3, #0
    1d62:	d002      	beq.n	1d6a <SpongentWrap+0x28a>
/usr/src/app/examples/example_trustzone/ta2/spongent.c:442
    1d64:	f8d7 30b0 	ldr.w	r3, [r7, #176]	; 0xb0
    1d68:	e199      	b.n	209e <SpongentWrap+0x5be>
/usr/src/app/examples/example_trustzone/ta2/spongent.c:444
    1d6a:	f04f 0210 	mov.w	r2, #16
    1d6e:	f04f 0300 	mov.w	r3, #0
    1d72:	e9d7 0140 	ldrd	r0, r1, [r7, #256]	; 0x100
    1d76:	f7ff fa95 	bl	12a4 <min>
    1d7a:	4602      	mov	r2, r0
    1d7c:	460b      	mov	r3, r1
    1d7e:	f04f 0000 	mov.w	r0, #0
    1d82:	f04f 0100 	mov.w	r1, #0
    1d86:	ea4f 00d2 	mov.w	r0, r2, lsr #3
    1d8a:	ea40 7043 	orr.w	r0, r0, r3, lsl #29
    1d8e:	ea4f 01d3 	mov.w	r1, r3, lsr #3
    1d92:	e9c7 012a 	strd	r0, r1, [r7, #168]	; 0xa8
/usr/src/app/examples/example_trustzone/ta2/spongent.c:446
    1d96:	efc0 0010 	vmov.i32	d16, #0	; 0x00000000
    1d9a:	edc7 0b32 	vstr	d16, [r7, #200]	; 0xc8
    1d9e:	e01f      	b.n	1de0 <SpongentWrap+0x300>
/usr/src/app/examples/example_trustzone/ta2/spongent.c:447 (discriminator 3)
    1da0:	f8d7 30c8 	ldr.w	r3, [r7, #200]	; 0xc8
    1da4:	f8d7 20f8 	ldr.w	r2, [r7, #248]	; 0xf8
    1da8:	4413      	add	r3, r2
    1daa:	7818      	ldrb	r0, [r3, #0]
    1dac:	f107 0258 	add.w	r2, r7, #88	; 0x58
    1db0:	f8d7 30c8 	ldr.w	r3, [r7, #200]	; 0xc8
    1db4:	4413      	add	r3, r2
    1db6:	7819      	ldrb	r1, [r3, #0]
    1db8:	f8d7 20c8 	ldr.w	r2, [r7, #200]	; 0xc8
    1dbc:	f8d7 3108 	ldr.w	r3, [r7, #264]	; 0x108
    1dc0:	441a      	add	r2, r3
    1dc2:	ea80 0301 	eor.w	r3, r0, r1
    1dc6:	b2db      	uxtb	r3, r3
    1dc8:	7013      	strb	r3, [r2, #0]
/usr/src/app/examples/example_trustzone/ta2/spongent.c:446 (discriminator 3)
    1dca:	e9d7 2332 	ldrd	r2, r3, [r7, #200]	; 0xc8
    1dce:	1c51      	adds	r1, r2, #1
    1dd0:	61b9      	str	r1, [r7, #24]
    1dd2:	f143 0300 	adc.w	r3, r3, #0
    1dd6:	61fb      	str	r3, [r7, #28]
    1dd8:	e9d7 3406 	ldrd	r3, r4, [r7, #24]
    1ddc:	e9c7 3432 	strd	r3, r4, [r7, #200]	; 0xc8
/usr/src/app/examples/example_trustzone/ta2/spongent.c:446 (discriminator 1)
    1de0:	e9d7 0132 	ldrd	r0, r1, [r7, #200]	; 0xc8
    1de4:	e9d7 232a 	ldrd	r2, r3, [r7, #168]	; 0xa8
    1de8:	4290      	cmp	r0, r2
    1dea:	eb71 0303 	sbcs.w	r3, r1, r3
    1dee:	d3d7      	bcc.n	1da0 <SpongentWrap+0x2c0>
/usr/src/app/examples/example_trustzone/ta2/spongent.c:449
    1df0:	e9d7 2340 	ldrd	r2, r3, [r7, #256]	; 0x100
    1df4:	e9c7 2334 	strd	r2, r3, [r7, #208]	; 0xd0
/usr/src/app/examples/example_trustzone/ta2/spongent.c:451
    1df8:	e088      	b.n	1f0c <SpongentWrap+0x42c>
/usr/src/app/examples/example_trustzone/ta2/spongent.c:453
    1dfa:	f897 3110 	ldrb.w	r3, [r7, #272]	; 0x110
    1dfe:	2b00      	cmp	r3, #0
    1e00:	d002      	beq.n	1e08 <SpongentWrap+0x328>
/usr/src/app/examples/example_trustzone/ta2/spongent.c:453 (discriminator 1)
    1e02:	f8d7 3108 	ldr.w	r3, [r7, #264]	; 0x108
    1e06:	e001      	b.n	1e0c <SpongentWrap+0x32c>
/usr/src/app/examples/example_trustzone/ta2/spongent.c:453 (discriminator 2)
    1e08:	f8d7 30f8 	ldr.w	r3, [r7, #248]	; 0xf8
/usr/src/app/examples/example_trustzone/ta2/spongent.c:453 (discriminator 4)
    1e0c:	f107 025c 	add.w	r2, r7, #92	; 0x5c
    1e10:	f04f 0102 	mov.w	r1, #2
    1e14:	4618      	mov	r0, r3
    1e16:	f7ff fa62 	bl	12de <copy_n>
/usr/src/app/examples/example_trustzone/ta2/spongent.c:454 (discriminator 4)
    1e1a:	f04f 0301 	mov.w	r3, #1
    1e1e:	f887 305e 	strb.w	r3, [r7, #94]	; 0x5e
/usr/src/app/examples/example_trustzone/ta2/spongent.c:455 (discriminator 4)
    1e22:	f107 015c 	add.w	r1, r7, #92	; 0x5c
    1e26:	f107 0060 	add.w	r0, r7, #96	; 0x60
    1e2a:	f04f 0210 	mov.w	r2, #16
    1e2e:	f04f 0300 	mov.w	r3, #0
    1e32:	e9cd 2302 	strd	r2, r3, [sp, #8]
    1e36:	f107 0358 	add.w	r3, r7, #88	; 0x58
    1e3a:	9300      	str	r3, [sp, #0]
    1e3c:	f04f 0211 	mov.w	r2, #17
    1e40:	f04f 0300 	mov.w	r3, #0
    1e44:	f7ff fdea 	bl	1a1c <Duplexing>
    1e48:	f8c7 00a4 	str.w	r0, [r7, #164]	; 0xa4
/usr/src/app/examples/example_trustzone/ta2/spongent.c:457 (discriminator 4)
    1e4c:	f8d7 30a4 	ldr.w	r3, [r7, #164]	; 0xa4
    1e50:	2b00      	cmp	r3, #0
    1e52:	d002      	beq.n	1e5a <SpongentWrap+0x37a>
/usr/src/app/examples/example_trustzone/ta2/spongent.c:458
    1e54:	f8d7 30a4 	ldr.w	r3, [r7, #164]	; 0xa4
    1e58:	e121      	b.n	209e <SpongentWrap+0x5be>
/usr/src/app/examples/example_trustzone/ta2/spongent.c:460
    1e5a:	e9d7 2334 	ldrd	r2, r3, [r7, #208]	; 0xd0
    1e5e:	f1b2 0110 	subs.w	r1, r2, #16
    1e62:	6139      	str	r1, [r7, #16]
    1e64:	f143 33ff 	adc.w	r3, r3, #4294967295	; 0xffffffff
    1e68:	617b      	str	r3, [r7, #20]
    1e6a:	e9d7 3404 	ldrd	r3, r4, [r7, #16]
    1e6e:	e9c7 3434 	strd	r3, r4, [r7, #208]	; 0xd0
/usr/src/app/examples/example_trustzone/ta2/spongent.c:461
    1e72:	f8d7 30f8 	ldr.w	r3, [r7, #248]	; 0xf8
    1e76:	f103 0302 	add.w	r3, r3, #2
    1e7a:	f8c7 30f8 	str.w	r3, [r7, #248]	; 0xf8
/usr/src/app/examples/example_trustzone/ta2/spongent.c:462
    1e7e:	f8d7 3108 	ldr.w	r3, [r7, #264]	; 0x108
    1e82:	f103 0302 	add.w	r3, r3, #2
    1e86:	f8c7 3108 	str.w	r3, [r7, #264]	; 0x108
/usr/src/app/examples/example_trustzone/ta2/spongent.c:464
    1e8a:	f04f 0210 	mov.w	r2, #16
    1e8e:	f04f 0300 	mov.w	r3, #0
    1e92:	e9d7 0134 	ldrd	r0, r1, [r7, #208]	; 0xd0
    1e96:	f7ff fa05 	bl	12a4 <min>
    1e9a:	f04f 0200 	mov.w	r2, #0
    1e9e:	f04f 0300 	mov.w	r3, #0
    1ea2:	ea4f 02d0 	mov.w	r2, r0, lsr #3
    1ea6:	ea42 7241 	orr.w	r2, r2, r1, lsl #29
    1eaa:	ea4f 03d1 	mov.w	r3, r1, lsr #3
    1eae:	e9c7 2326 	strd	r2, r3, [r7, #152]	; 0x98
/usr/src/app/examples/example_trustzone/ta2/spongent.c:466
    1eb2:	efc0 0010 	vmov.i32	d16, #0	; 0x00000000
    1eb6:	edc7 0b30 	vstr	d16, [r7, #192]	; 0xc0
    1eba:	e01f      	b.n	1efc <SpongentWrap+0x41c>
/usr/src/app/examples/example_trustzone/ta2/spongent.c:467 (discriminator 3)
    1ebc:	f8d7 30c0 	ldr.w	r3, [r7, #192]	; 0xc0
    1ec0:	f8d7 20f8 	ldr.w	r2, [r7, #248]	; 0xf8
    1ec4:	4413      	add	r3, r2
    1ec6:	7819      	ldrb	r1, [r3, #0]
    1ec8:	f107 0258 	add.w	r2, r7, #88	; 0x58
    1ecc:	f8d7 30c0 	ldr.w	r3, [r7, #192]	; 0xc0
    1ed0:	4413      	add	r3, r2
    1ed2:	781a      	ldrb	r2, [r3, #0]
    1ed4:	f8d7 30c0 	ldr.w	r3, [r7, #192]	; 0xc0
    1ed8:	f8d7 0108 	ldr.w	r0, [r7, #264]	; 0x108
    1edc:	4403      	add	r3, r0
    1ede:	ea82 0201 	eor.w	r2, r2, r1
    1ee2:	b2d2      	uxtb	r2, r2
    1ee4:	701a      	strb	r2, [r3, #0]
/usr/src/app/examples/example_trustzone/ta2/spongent.c:466 (discriminator 3)
    1ee6:	e9d7 2330 	ldrd	r2, r3, [r7, #192]	; 0xc0
    1eea:	1c51      	adds	r1, r2, #1
    1eec:	60b9      	str	r1, [r7, #8]
    1eee:	f143 0300 	adc.w	r3, r3, #0
    1ef2:	60fb      	str	r3, [r7, #12]
    1ef4:	e9d7 3402 	ldrd	r3, r4, [r7, #8]
    1ef8:	e9c7 3430 	strd	r3, r4, [r7, #192]	; 0xc0
/usr/src/app/examples/example_trustzone/ta2/spongent.c:466 (discriminator 1)
    1efc:	e9d7 0130 	ldrd	r0, r1, [r7, #192]	; 0xc0
    1f00:	e9d7 2326 	ldrd	r2, r3, [r7, #152]	; 0x98
    1f04:	4290      	cmp	r0, r2
    1f06:	eb71 0303 	sbcs.w	r3, r1, r3
    1f0a:	d3d7      	bcc.n	1ebc <SpongentWrap+0x3dc>
/usr/src/app/examples/example_trustzone/ta2/spongent.c:451
    1f0c:	e9d7 2334 	ldrd	r2, r3, [r7, #208]	; 0xd0
    1f10:	2a11      	cmp	r2, #17
    1f12:	f173 0300 	sbcs.w	r3, r3, #0
    1f16:	f4bf af70 	bcs.w	1dfa <SpongentWrap+0x31a>
/usr/src/app/examples/example_trustzone/ta2/spongent.c:470
    1f1a:	f897 3110 	ldrb.w	r3, [r7, #272]	; 0x110
    1f1e:	2b00      	cmp	r3, #0
    1f20:	d002      	beq.n	1f28 <SpongentWrap+0x448>
/usr/src/app/examples/example_trustzone/ta2/spongent.c:470 (discriminator 1)
    1f22:	f8d7 4108 	ldr.w	r4, [r7, #264]	; 0x108
    1f26:	e001      	b.n	1f2c <SpongentWrap+0x44c>
/usr/src/app/examples/example_trustzone/ta2/spongent.c:470 (discriminator 2)
    1f28:	f8d7 40f8 	ldr.w	r4, [r7, #248]	; 0xf8
/usr/src/app/examples/example_trustzone/ta2/spongent.c:470 (discriminator 4)
    1f2c:	e9d7 0134 	ldrd	r0, r1, [r7, #208]	; 0xd0
    1f30:	f04f 0200 	mov.w	r2, #0
    1f34:	f04f 0300 	mov.w	r3, #0
    1f38:	ea4f 02d0 	mov.w	r2, r0, lsr #3
    1f3c:	ea42 7241 	orr.w	r2, r2, r1, lsl #29
    1f40:	ea4f 03d1 	mov.w	r3, r1, lsr #3
    1f44:	4611      	mov	r1, r2
    1f46:	f107 035c 	add.w	r3, r7, #92	; 0x5c
    1f4a:	461a      	mov	r2, r3
    1f4c:	4620      	mov	r0, r4
    1f4e:	f7ff f9c6 	bl	12de <copy_n>
/usr/src/app/examples/example_trustzone/ta2/spongent.c:471 (discriminator 4)
    1f52:	e9d7 0134 	ldrd	r0, r1, [r7, #208]	; 0xd0
    1f56:	f04f 0200 	mov.w	r2, #0
    1f5a:	f04f 0300 	mov.w	r3, #0
    1f5e:	ea4f 02d0 	mov.w	r2, r0, lsr #3
    1f62:	ea42 7241 	orr.w	r2, r2, r1, lsl #29
    1f66:	ea4f 03d1 	mov.w	r3, r1, lsr #3
    1f6a:	f107 015c 	add.w	r1, r7, #92	; 0x5c
    1f6e:	eb01 0302 	add.w	r3, r1, r2
    1f72:	f04f 0200 	mov.w	r2, #0
    1f76:	701a      	strb	r2, [r3, #0]
/usr/src/app/examples/example_trustzone/ta2/spongent.c:472 (discriminator 4)
    1f78:	e9d7 2334 	ldrd	r2, r3, [r7, #208]	; 0xd0
    1f7c:	1c51      	adds	r1, r2, #1
    1f7e:	6339      	str	r1, [r7, #48]	; 0x30
    1f80:	f143 0300 	adc.w	r3, r3, #0
    1f84:	637b      	str	r3, [r7, #52]	; 0x34
    1f86:	f04f 0210 	mov.w	r2, #16
    1f8a:	f04f 0300 	mov.w	r3, #0
    1f8e:	f04f 0080 	mov.w	r0, #128	; 0x80
    1f92:	f04f 0100 	mov.w	r1, #0
    1f96:	f7ff f985 	bl	12a4 <min>
    1f9a:	4602      	mov	r2, r0
    1f9c:	460b      	mov	r3, r1
    1f9e:	f107 015c 	add.w	r1, r7, #92	; 0x5c
    1fa2:	f107 0060 	add.w	r0, r7, #96	; 0x60
    1fa6:	e9cd 2302 	strd	r2, r3, [sp, #8]
    1faa:	f8d7 310c 	ldr.w	r3, [r7, #268]	; 0x10c
    1fae:	9300      	str	r3, [sp, #0]
    1fb0:	e9d7 230c 	ldrd	r2, r3, [r7, #48]	; 0x30
    1fb4:	f7ff fd32 	bl	1a1c <Duplexing>
    1fb8:	f8c7 00b0 	str.w	r0, [r7, #176]	; 0xb0
/usr/src/app/examples/example_trustzone/ta2/spongent.c:475 (discriminator 4)
    1fbc:	f8d7 30b0 	ldr.w	r3, [r7, #176]	; 0xb0
    1fc0:	2b00      	cmp	r3, #0
    1fc2:	d002      	beq.n	1fca <SpongentWrap+0x4ea>
/usr/src/app/examples/example_trustzone/ta2/spongent.c:476
    1fc4:	f8d7 30b0 	ldr.w	r3, [r7, #176]	; 0xb0
    1fc8:	e069      	b.n	209e <SpongentWrap+0x5be>
/usr/src/app/examples/example_trustzone/ta2/spongent.c:478
    1fca:	f04f 0210 	mov.w	r2, #16
    1fce:	f04f 0300 	mov.w	r3, #0
    1fd2:	e9c7 232e 	strd	r2, r3, [r7, #184]	; 0xb8
/usr/src/app/examples/example_trustzone/ta2/spongent.c:479
    1fd6:	f8d7 310c 	ldr.w	r3, [r7, #268]	; 0x10c
    1fda:	f103 0302 	add.w	r3, r3, #2
    1fde:	f8c7 310c 	str.w	r3, [r7, #268]	; 0x10c
/usr/src/app/examples/example_trustzone/ta2/spongent.c:480
    1fe2:	f04f 0300 	mov.w	r3, #0
    1fe6:	f8c7 30b4 	str.w	r3, [r7, #180]	; 0xb4
    1fea:	e00d      	b.n	2008 <SpongentWrap+0x528>
/usr/src/app/examples/example_trustzone/ta2/spongent.c:481 (discriminator 3)
    1fec:	f107 025c 	add.w	r2, r7, #92	; 0x5c
    1ff0:	f8d7 30b4 	ldr.w	r3, [r7, #180]	; 0xb4
    1ff4:	4413      	add	r3, r2
    1ff6:	f04f 0200 	mov.w	r2, #0
    1ffa:	701a      	strb	r2, [r3, #0]
/usr/src/app/examples/example_trustzone/ta2/spongent.c:480 (discriminator 3)
    1ffc:	f8d7 30b4 	ldr.w	r3, [r7, #180]	; 0xb4
    2000:	f103 0301 	add.w	r3, r3, #1
    2004:	f8c7 30b4 	str.w	r3, [r7, #180]	; 0xb4
/usr/src/app/examples/example_trustzone/ta2/spongent.c:480 (discriminator 1)
    2008:	f8d7 30b4 	ldr.w	r3, [r7, #180]	; 0xb4
    200c:	2b02      	cmp	r3, #2
    200e:	d9ed      	bls.n	1fec <SpongentWrap+0x50c>
/usr/src/app/examples/example_trustzone/ta2/spongent.c:485
    2010:	e03d      	b.n	208e <SpongentWrap+0x5ae>
/usr/src/app/examples/example_trustzone/ta2/spongent.c:487
    2012:	e9d7 232e 	ldrd	r2, r3, [r7, #184]	; 0xb8
    2016:	f04f 0100 	mov.w	r1, #0
    201a:	f1d2 0080 	rsbs	r0, r2, #128	; 0x80
    201e:	62b8      	str	r0, [r7, #40]	; 0x28
    2020:	eb61 0303 	sbc.w	r3, r1, r3
    2024:	62fb      	str	r3, [r7, #44]	; 0x2c
    2026:	f04f 0210 	mov.w	r2, #16
    202a:	f04f 0300 	mov.w	r3, #0
    202e:	e9d7 010a 	ldrd	r0, r1, [r7, #40]	; 0x28
    2032:	f7ff f937 	bl	12a4 <min>
    2036:	4602      	mov	r2, r0
    2038:	460b      	mov	r3, r1
    203a:	f107 015c 	add.w	r1, r7, #92	; 0x5c
    203e:	f107 0060 	add.w	r0, r7, #96	; 0x60
    2042:	e9cd 2302 	strd	r2, r3, [sp, #8]
    2046:	f8d7 310c 	ldr.w	r3, [r7, #268]	; 0x10c
    204a:	9300      	str	r3, [sp, #0]
    204c:	f04f 0200 	mov.w	r2, #0
    2050:	f04f 0300 	mov.w	r3, #0
    2054:	f7ff fce2 	bl	1a1c <Duplexing>
    2058:	f8c7 00b0 	str.w	r0, [r7, #176]	; 0xb0
/usr/src/app/examples/example_trustzone/ta2/spongent.c:490
    205c:	f8d7 30b0 	ldr.w	r3, [r7, #176]	; 0xb0
    2060:	2b00      	cmp	r3, #0
    2062:	d002      	beq.n	206a <SpongentWrap+0x58a>
/usr/src/app/examples/example_trustzone/ta2/spongent.c:491
    2064:	f8d7 30b0 	ldr.w	r3, [r7, #176]	; 0xb0
    2068:	e019      	b.n	209e <SpongentWrap+0x5be>
/usr/src/app/examples/example_trustzone/ta2/spongent.c:493
    206a:	e9d7 232e 	ldrd	r2, r3, [r7, #184]	; 0xb8
    206e:	f112 0110 	adds.w	r1, r2, #16
    2072:	6039      	str	r1, [r7, #0]
    2074:	f143 0300 	adc.w	r3, r3, #0
    2078:	607b      	str	r3, [r7, #4]
    207a:	e9d7 3400 	ldrd	r3, r4, [r7]
    207e:	e9c7 342e 	strd	r3, r4, [r7, #184]	; 0xb8
/usr/src/app/examples/example_trustzone/ta2/spongent.c:494
    2082:	f8d7 310c 	ldr.w	r3, [r7, #268]	; 0x10c
    2086:	f103 0302 	add.w	r3, r3, #2
    208a:	f8c7 310c 	str.w	r3, [r7, #268]	; 0x10c
/usr/src/app/examples/example_trustzone/ta2/spongent.c:485
    208e:	e9d7 232e 	ldrd	r2, r3, [r7, #184]	; 0xb8
    2092:	2a80      	cmp	r2, #128	; 0x80
    2094:	f173 0300 	sbcs.w	r3, r3, #0
    2098:	d3bb      	bcc.n	2012 <SpongentWrap+0x532>
/usr/src/app/examples/example_trustzone/ta2/spongent.c:497
    209a:	f04f 0300 	mov.w	r3, #0
/usr/src/app/examples/example_trustzone/ta2/spongent.c:498 (discriminator 1)
    209e:	4618      	mov	r0, r3
    20a0:	f107 07d8 	add.w	r7, r7, #216	; 0xd8
    20a4:	46bd      	mov	sp, r7
    20a6:	e9dd 4500 	ldrd	r4, r5, [sp]
    20aa:	e9dd 7802 	ldrd	r7, r8, [sp, #8]
    20ae:	e9dd 9a04 	ldrd	r9, sl, [sp, #16]
    20b2:	b006      	add	sp, #24
    20b4:	e8bd 8800 	ldmia.w	sp!, {fp, pc}

000020b8 <SpongentUnwrap>:
SpongentUnwrap():
/usr/src/app/examples/example_trustzone/ta2/spongent.c:505
    20b8:	e96d 7e02 	strd	r7, lr, [sp, #-8]!
    20bc:	b092      	sub	sp, #72	; 0x48
    20be:	af08      	add	r7, sp, #32
    20c0:	60f8      	str	r0, [r7, #12]
    20c2:	60b9      	str	r1, [r7, #8]
    20c4:	e9c7 2300 	strd	r2, r3, [r7]
/usr/src/app/examples/example_trustzone/ta2/spongent.c:507
    20c8:	f04f 0301 	mov.w	r3, #1
    20cc:	9306      	str	r3, [sp, #24]
    20ce:	f107 0314 	add.w	r3, r7, #20
    20d2:	9305      	str	r3, [sp, #20]
    20d4:	6c3b      	ldr	r3, [r7, #64]	; 0x40
    20d6:	9304      	str	r3, [sp, #16]
    20d8:	e9d7 230e 	ldrd	r2, r3, [r7, #56]	; 0x38
    20dc:	e9cd 2302 	strd	r2, r3, [sp, #8]
    20e0:	6b3b      	ldr	r3, [r7, #48]	; 0x30
    20e2:	9300      	str	r3, [sp, #0]
    20e4:	e9d7 2300 	ldrd	r2, r3, [r7]
    20e8:	68b9      	ldr	r1, [r7, #8]
    20ea:	68f8      	ldr	r0, [r7, #12]
    20ec:	f7ff fcf8 	bl	1ae0 <SpongentWrap>
    20f0:	6278      	str	r0, [r7, #36]	; 0x24
/usr/src/app/examples/example_trustzone/ta2/spongent.c:512
    20f2:	6a7b      	ldr	r3, [r7, #36]	; 0x24
    20f4:	2b00      	cmp	r3, #0
    20f6:	d001      	beq.n	20fc <SpongentUnwrap+0x44>
/usr/src/app/examples/example_trustzone/ta2/spongent.c:513
    20f8:	6a7b      	ldr	r3, [r7, #36]	; 0x24
    20fa:	e00f      	b.n	211c <SpongentUnwrap+0x64>
/usr/src/app/examples/example_trustzone/ta2/spongent.c:516
    20fc:	f107 0314 	add.w	r3, r7, #20
    2100:	f04f 0210 	mov.w	r2, #16
    2104:	6c79      	ldr	r1, [r7, #68]	; 0x44
    2106:	4618      	mov	r0, r3
    2108:	f010 ffc2 	bl	13090 <memcmp>
    210c:	4603      	mov	r3, r0
    210e:	2b00      	cmp	r3, #0
    2110:	d102      	bne.n	2118 <SpongentUnwrap+0x60>
/usr/src/app/examples/example_trustzone/ta2/spongent.c:517
    2112:	f04f 0303 	mov.w	r3, #3
    2116:	e001      	b.n	211c <SpongentUnwrap+0x64>
/usr/src/app/examples/example_trustzone/ta2/spongent.c:519
    2118:	f04f 0300 	mov.w	r3, #0
/usr/src/app/examples/example_trustzone/ta2/spongent.c:520 (discriminator 1)
    211c:	4618      	mov	r0, r3
    211e:	f107 0728 	add.w	r7, r7, #40	; 0x28
    2122:	46bd      	mov	sp, r7
    2124:	bd80      	pop	{r7, pc}

00002126 <SpongentMac>:
SpongentMac():
/usr/src/app/examples/example_trustzone/ta2/spongent.c:525
    2126:	e96d 7e02 	strd	r7, lr, [sp, #-8]!
    212a:	b08c      	sub	sp, #48	; 0x30
    212c:	af08      	add	r7, sp, #32
    212e:	60f8      	str	r0, [r7, #12]
    2130:	60b9      	str	r1, [r7, #8]
    2132:	e9c7 2300 	strd	r2, r3, [r7]
/usr/src/app/examples/example_trustzone/ta2/spongent.c:526
    2136:	f04f 0300 	mov.w	r3, #0
    213a:	9306      	str	r3, [sp, #24]
    213c:	69bb      	ldr	r3, [r7, #24]
    213e:	9305      	str	r3, [sp, #20]
    2140:	f04f 0300 	mov.w	r3, #0
    2144:	9304      	str	r3, [sp, #16]
    2146:	efc0 0010 	vmov.i32	d16, #0	; 0x00000000
    214a:	edcd 0b02 	vstr	d16, [sp, #8]
    214e:	f04f 0300 	mov.w	r3, #0
    2152:	9300      	str	r3, [sp, #0]
    2154:	e9d7 2300 	ldrd	r2, r3, [r7]
    2158:	68b9      	ldr	r1, [r7, #8]
    215a:	68f8      	ldr	r0, [r7, #12]
    215c:	f7ff fcc0 	bl	1ae0 <SpongentWrap>
    2160:	4603      	mov	r3, r0
/usr/src/app/examples/example_trustzone/ta2/spongent.c:527
    2162:	4618      	mov	r0, r3
    2164:	f107 0710 	add.w	r7, r7, #16
    2168:	46bd      	mov	sp, r7
    216a:	bd80      	pop	{r7, pc}

0000216c <__ta_entry>:
__ta_entry():
/optee/optee_os/out/arm/export-ta_arm32/src/ta_entry_a32.S:20
    216c:	fa0043b9 	blx	13058 <__ta_entry_c>

00002170 <tag_asan_free>:
tag_asan_free():
/optee/optee_os/lib/libutils/isoc/bget_malloc.c:122
    2170:	f84d 7d04 	str.w	r7, [sp, #-4]!
    2174:	b083      	sub	sp, #12
    2176:	af00      	add	r7, sp, #0
    2178:	6078      	str	r0, [r7, #4]
    217a:	6039      	str	r1, [r7, #0]
/optee/optee_os/lib/libutils/isoc/bget_malloc.c:123
    217c:	bf00      	nop
    217e:	f107 070c 	add.w	r7, r7, #12
    2182:	46bd      	mov	sp, r7
    2184:	f85d 7b04 	ldr.w	r7, [sp], #4
    2188:	4770      	bx	lr

0000218a <tag_asan_alloced>:
tag_asan_alloced():
/optee/optee_os/lib/libutils/isoc/bget_malloc.c:126
    218a:	f84d 7d04 	str.w	r7, [sp, #-4]!
    218e:	b083      	sub	sp, #12
    2190:	af00      	add	r7, sp, #0
    2192:	6078      	str	r0, [r7, #4]
    2194:	6039      	str	r1, [r7, #0]
/optee/optee_os/lib/libutils/isoc/bget_malloc.c:127
    2196:	bf00      	nop
    2198:	f107 070c 	add.w	r7, r7, #12
    219c:	46bd      	mov	sp, r7
    219e:	f85d 7b04 	ldr.w	r7, [sp], #4
    21a2:	4770      	bx	lr

000021a4 <memset_unchecked>:
memset_unchecked():
/optee/optee_os/lib/libutils/isoc/bget_malloc.c:130
    21a4:	e96d 7e02 	strd	r7, lr, [sp, #-8]!
    21a8:	b084      	sub	sp, #16
    21aa:	af00      	add	r7, sp, #0
    21ac:	60f8      	str	r0, [r7, #12]
    21ae:	60b9      	str	r1, [r7, #8]
    21b0:	607a      	str	r2, [r7, #4]
/optee/optee_os/lib/libutils/isoc/bget_malloc.c:131
    21b2:	687a      	ldr	r2, [r7, #4]
    21b4:	68b9      	ldr	r1, [r7, #8]
    21b6:	68f8      	ldr	r0, [r7, #12]
    21b8:	f011 f83f 	bl	1323a <memset>
    21bc:	4603      	mov	r3, r0
/optee/optee_os/lib/libutils/isoc/bget_malloc.c:132
    21be:	4618      	mov	r0, r3
    21c0:	f107 0710 	add.w	r7, r7, #16
    21c4:	46bd      	mov	sp, r7
    21c6:	bd80      	pop	{r7, pc}

000021c8 <memcpy_unchecked>:
memcpy_unchecked():
/optee/optee_os/lib/libutils/isoc/bget_malloc.c:136
    21c8:	e96d 7e02 	strd	r7, lr, [sp, #-8]!
    21cc:	b084      	sub	sp, #16
    21ce:	af00      	add	r7, sp, #0
    21d0:	60f8      	str	r0, [r7, #12]
    21d2:	60b9      	str	r1, [r7, #8]
    21d4:	607a      	str	r2, [r7, #4]
/optee/optee_os/lib/libutils/isoc/bget_malloc.c:137
    21d6:	687a      	ldr	r2, [r7, #4]
    21d8:	68b9      	ldr	r1, [r7, #8]
    21da:	68f8      	ldr	r0, [r7, #12]
    21dc:	f010 ffb4 	bl	13148 <memcpy>
    21e0:	4603      	mov	r3, r0
/optee/optee_os/lib/libutils/isoc/bget_malloc.c:138
    21e2:	4618      	mov	r0, r3
    21e4:	f107 0710 	add.w	r7, r7, #16
    21e8:	46bd      	mov	sp, r7
    21ea:	bd80      	pop	{r7, pc}

000021ec <buf_get_pos>:
buf_get_pos():
/optee/optee_os/lib/libutils/isoc/bget.c:581
    21ec:	f84d 7d04 	str.w	r7, [sp, #-4]!
    21f0:	b087      	sub	sp, #28
    21f2:	af00      	add	r7, sp, #0
    21f4:	60f8      	str	r0, [r7, #12]
    21f6:	60b9      	str	r1, [r7, #8]
    21f8:	607a      	str	r2, [r7, #4]
    21fa:	603b      	str	r3, [r7, #0]
/optee/optee_os/lib/libutils/isoc/bget.c:582
    21fc:	f04f 0300 	mov.w	r3, #0
    2200:	617b      	str	r3, [r7, #20]
/optee/optee_os/lib/libutils/isoc/bget.c:583
    2202:	f04f 0300 	mov.w	r3, #0
    2206:	613b      	str	r3, [r7, #16]
/optee/optee_os/lib/libutils/isoc/bget.c:585
    2208:	68fb      	ldr	r3, [r7, #12]
    220a:	685b      	ldr	r3, [r3, #4]
    220c:	683a      	ldr	r2, [r7, #0]
    220e:	429a      	cmp	r2, r3
    2210:	dd02      	ble.n	2218 <buf_get_pos+0x2c>
/optee/optee_os/lib/libutils/isoc/bget.c:586
    2212:	f04f 33ff 	mov.w	r3, #4294967295	; 0xffffffff
    2216:	e02a      	b.n	226e <buf_get_pos+0x82>
/optee/optee_os/lib/libutils/isoc/bget.c:592
    2218:	68fb      	ldr	r3, [r7, #12]
    221a:	685b      	ldr	r3, [r3, #4]
    221c:	461a      	mov	r2, r3
    221e:	68fb      	ldr	r3, [r7, #12]
    2220:	441a      	add	r2, r3
    2222:	683b      	ldr	r3, [r7, #0]
    2224:	eba2 0203 	sub.w	r2, r2, r3
    2228:	687b      	ldr	r3, [r7, #4]
    222a:	4413      	add	r3, r2
    222c:	f103 0308 	add.w	r3, r3, #8
    2230:	617b      	str	r3, [r7, #20]
/optee/optee_os/lib/libutils/isoc/bget.c:594
    2232:	68bb      	ldr	r3, [r7, #8]
    2234:	f1c3 0300 	rsb	r3, r3, #0
    2238:	461a      	mov	r2, r3
    223a:	697b      	ldr	r3, [r7, #20]
    223c:	ea03 0302 	and.w	r3, r3, r2
    2240:	617b      	str	r3, [r7, #20]
/optee/optee_os/lib/libutils/isoc/bget.c:595
    2242:	68fb      	ldr	r3, [r7, #12]
    2244:	697a      	ldr	r2, [r7, #20]
    2246:	eba2 0203 	sub.w	r2, r2, r3
    224a:	687b      	ldr	r3, [r7, #4]
    224c:	eba2 0303 	sub.w	r3, r2, r3
    2250:	f1a3 0308 	sub.w	r3, r3, #8
    2254:	613b      	str	r3, [r7, #16]
/optee/optee_os/lib/libutils/isoc/bget.c:597
    2256:	693b      	ldr	r3, [r7, #16]
    2258:	2b00      	cmp	r3, #0
    225a:	d101      	bne.n	2260 <buf_get_pos+0x74>
/optee/optee_os/lib/libutils/isoc/bget.c:598
    225c:	693b      	ldr	r3, [r7, #16]
    225e:	e006      	b.n	226e <buf_get_pos+0x82>
/optee/optee_os/lib/libutils/isoc/bget.c:599
    2260:	693b      	ldr	r3, [r7, #16]
    2262:	2b0f      	cmp	r3, #15
    2264:	d901      	bls.n	226a <buf_get_pos+0x7e>
/optee/optee_os/lib/libutils/isoc/bget.c:600
    2266:	693b      	ldr	r3, [r7, #16]
    2268:	e001      	b.n	226e <buf_get_pos+0x82>
/optee/optee_os/lib/libutils/isoc/bget.c:602
    226a:	f04f 33ff 	mov.w	r3, #4294967295	; 0xffffffff
/optee/optee_os/lib/libutils/isoc/bget.c:603
    226e:	4618      	mov	r0, r3
    2270:	f107 071c 	add.w	r7, r7, #28
    2274:	46bd      	mov	sp, r7
    2276:	f85d 7b04 	ldr.w	r7, [sp], #4
    227a:	4770      	bx	lr

0000227c <bget>:
bget():
/optee/optee_os/lib/libutils/isoc/bget.c:612
    227c:	e96d 7e02 	strd	r7, lr, [sp, #-8]!
    2280:	b08c      	sub	sp, #48	; 0x30
    2282:	af00      	add	r7, sp, #0
    2284:	60f8      	str	r0, [r7, #12]
    2286:	60b9      	str	r1, [r7, #8]
    2288:	607a      	str	r2, [r7, #4]
    228a:	603b      	str	r3, [r7, #0]
/optee/optee_os/lib/libutils/isoc/bget.c:613
    228c:	68fb      	ldr	r3, [r7, #12]
    228e:	62fb      	str	r3, [r7, #44]	; 0x2c
/optee/optee_os/lib/libutils/isoc/bget.c:614
    2290:	687b      	ldr	r3, [r7, #4]
    2292:	617b      	str	r3, [r7, #20]
/optee/optee_os/lib/libutils/isoc/bget.c:625
    2294:	697b      	ldr	r3, [r7, #20]
    2296:	2b00      	cmp	r3, #0
    2298:	dc0b      	bgt.n	22b2 <bget+0x36>
/optee/optee_os/lib/libutils/isoc/bget.c:625 (discriminator 1)
    229a:	4bc3      	ldr	r3, [pc, #780]	; (25a8 <bget+0x32c>)
    229c:	447b      	add	r3, pc
    229e:	f240 2271 	movw	r2, #625	; 0x271
    22a2:	49c2      	ldr	r1, [pc, #776]	; (25ac <bget+0x330>)
    22a4:	4479      	add	r1, pc
    22a6:	48c2      	ldr	r0, [pc, #776]	; (25b0 <bget+0x334>)
    22a8:	4478      	add	r0, pc
    22aa:	f002 fd81 	bl	4db0 <_assert_log>
    22ae:	f002 fda3 	bl	4df8 <_assert_break>
/optee/optee_os/lib/libutils/isoc/bget.c:626
    22b2:	bf00      	nop
/optee/optee_os/lib/libutils/isoc/bget.c:628
    22b4:	6afb      	ldr	r3, [r7, #44]	; 0x2c
    22b6:	2b00      	cmp	r3, #0
    22b8:	db0e      	blt.n	22d8 <bget+0x5c>
/optee/optee_os/lib/libutils/isoc/bget.c:628 (discriminator 1)
    22ba:	6afb      	ldr	r3, [r7, #44]	; 0x2c
    22bc:	2b00      	cmp	r3, #0
    22be:	dd0e      	ble.n	22de <bget+0x62>
/optee/optee_os/lib/libutils/isoc/bget.c:628 (discriminator 2)
    22c0:	6afb      	ldr	r3, [r7, #44]	; 0x2c
    22c2:	2b00      	cmp	r3, #0
    22c4:	d008      	beq.n	22d8 <bget+0x5c>
/optee/optee_os/lib/libutils/isoc/bget.c:628 (discriminator 3)
    22c6:	6afb      	ldr	r3, [r7, #44]	; 0x2c
    22c8:	f1c3 0200 	rsb	r2, r3, #0
    22cc:	6afb      	ldr	r3, [r7, #44]	; 0x2c
    22ce:	ea02 0203 	and.w	r2, r2, r3
    22d2:	6afb      	ldr	r3, [r7, #44]	; 0x2c
    22d4:	429a      	cmp	r2, r3
    22d6:	d002      	beq.n	22de <bget+0x62>
/optee/optee_os/lib/libutils/isoc/bget.c:629
    22d8:	f04f 0300 	mov.w	r3, #0
    22dc:	e15e      	b.n	259c <bget+0x320>
/optee/optee_os/lib/libutils/isoc/bget.c:630
    22de:	68bb      	ldr	r3, [r7, #8]
    22e0:	f003 0307 	and.w	r3, r3, #7
    22e4:	2b00      	cmp	r3, #0
    22e6:	d002      	beq.n	22ee <bget+0x72>
/optee/optee_os/lib/libutils/isoc/bget.c:631
    22e8:	f04f 0300 	mov.w	r3, #0
    22ec:	e156      	b.n	259c <bget+0x320>
/optee/optee_os/lib/libutils/isoc/bget.c:633
    22ee:	697b      	ldr	r3, [r7, #20]
    22f0:	2b07      	cmp	r3, #7
    22f2:	d802      	bhi.n	22fa <bget+0x7e>
/optee/optee_os/lib/libutils/isoc/bget.c:634
    22f4:	f04f 0308 	mov.w	r3, #8
    22f8:	617b      	str	r3, [r7, #20]
/optee/optee_os/lib/libutils/isoc/bget.c:636
    22fa:	6afb      	ldr	r3, [r7, #44]	; 0x2c
    22fc:	2b07      	cmp	r3, #7
    22fe:	d802      	bhi.n	2306 <bget+0x8a>
/optee/optee_os/lib/libutils/isoc/bget.c:637
    2300:	f04f 0308 	mov.w	r3, #8
    2304:	62fb      	str	r3, [r7, #44]	; 0x2c
/optee/optee_os/lib/libutils/isoc/bget.c:640
    2306:	697b      	ldr	r3, [r7, #20]
    2308:	f04f 0200 	mov.w	r2, #0
    230c:	3307      	adds	r3, #7
    230e:	d701      	bvc.n	2314 <bget+0x98>
    2310:	f04f 0201 	mov.w	r2, #1
    2314:	617b      	str	r3, [r7, #20]
    2316:	4613      	mov	r3, r2
    2318:	f003 0301 	and.w	r3, r3, #1
    231c:	b2db      	uxtb	r3, r3
    231e:	2b00      	cmp	r3, #0
    2320:	d002      	beq.n	2328 <bget+0xac>
/optee/optee_os/lib/libutils/isoc/bget.c:641
    2322:	f04f 0300 	mov.w	r3, #0
    2326:	e139      	b.n	259c <bget+0x320>
/optee/optee_os/lib/libutils/isoc/bget.c:643
    2328:	697b      	ldr	r3, [r7, #20]
    232a:	f023 0307 	bic.w	r3, r3, #7
    232e:	617b      	str	r3, [r7, #20]
/optee/optee_os/lib/libutils/isoc/bget.c:648
    2330:	697b      	ldr	r3, [r7, #20]
    2332:	f04f 0200 	mov.w	r2, #0
    2336:	3308      	adds	r3, #8
    2338:	d701      	bvc.n	233e <bget+0xc2>
    233a:	f04f 0201 	mov.w	r2, #1
    233e:	617b      	str	r3, [r7, #20]
    2340:	4613      	mov	r3, r2
    2342:	f003 0301 	and.w	r3, r3, #1
    2346:	b2db      	uxtb	r3, r3
    2348:	2b00      	cmp	r3, #0
    234a:	d002      	beq.n	2352 <bget+0xd6>
/optee/optee_os/lib/libutils/isoc/bget.c:649
    234c:	f04f 0300 	mov.w	r3, #0
    2350:	e124      	b.n	259c <bget+0x320>
/optee/optee_os/lib/libutils/isoc/bget.c:650
    2352:	697a      	ldr	r2, [r7, #20]
    2354:	f04f 0100 	mov.w	r1, #0
    2358:	68bb      	ldr	r3, [r7, #8]
    235a:	18d3      	adds	r3, r2, r3
    235c:	d701      	bvc.n	2362 <bget+0xe6>
    235e:	f04f 0101 	mov.w	r1, #1
    2362:	617b      	str	r3, [r7, #20]
    2364:	460b      	mov	r3, r1
    2366:	f003 0301 	and.w	r3, r3, #1
    236a:	b2db      	uxtb	r3, r3
    236c:	2b00      	cmp	r3, #0
    236e:	d002      	beq.n	2376 <bget+0xfa>
/optee/optee_os/lib/libutils/isoc/bget.c:651
    2370:	f04f 0300 	mov.w	r3, #0
    2374:	e112      	b.n	259c <bget+0x320>
/optee/optee_os/lib/libutils/isoc/bget.c:660
    2376:	683b      	ldr	r3, [r7, #0]
    2378:	689b      	ldr	r3, [r3, #8]
    237a:	62bb      	str	r3, [r7, #40]	; 0x28
/optee/optee_os/lib/libutils/isoc/bget.c:684
    237c:	e107      	b.n	258e <bget+0x312>
/optee/optee_os/lib/libutils/isoc/bget.c:685
    237e:	697b      	ldr	r3, [r7, #20]
    2380:	68ba      	ldr	r2, [r7, #8]
    2382:	6af9      	ldr	r1, [r7, #44]	; 0x2c
    2384:	6ab8      	ldr	r0, [r7, #40]	; 0x28
    2386:	f7ff ff31 	bl	21ec <buf_get_pos>
    238a:	6278      	str	r0, [r7, #36]	; 0x24
/optee/optee_os/lib/libutils/isoc/bget.c:686
    238c:	6a7b      	ldr	r3, [r7, #36]	; 0x24
    238e:	2b00      	cmp	r3, #0
    2390:	f2c0 80fa 	blt.w	2588 <bget+0x30c>
/optee/optee_os/lib/libutils/isoc/bget.c:687
    2394:	6a7b      	ldr	r3, [r7, #36]	; 0x24
    2396:	6aba      	ldr	r2, [r7, #40]	; 0x28
    2398:	4413      	add	r3, r2
    239a:	623b      	str	r3, [r7, #32]
/optee/optee_os/lib/libutils/isoc/bget.c:688
    239c:	6abb      	ldr	r3, [r7, #40]	; 0x28
    239e:	685b      	ldr	r3, [r3, #4]
    23a0:	461a      	mov	r2, r3
    23a2:	6abb      	ldr	r3, [r7, #40]	; 0x28
    23a4:	4413      	add	r3, r2
    23a6:	61fb      	str	r3, [r7, #28]
/optee/optee_os/lib/libutils/isoc/bget.c:690
    23a8:	69fb      	ldr	r3, [r7, #28]
    23aa:	681a      	ldr	r2, [r3, #0]
    23ac:	6abb      	ldr	r3, [r7, #40]	; 0x28
    23ae:	685b      	ldr	r3, [r3, #4]
    23b0:	429a      	cmp	r2, r3
    23b2:	d00b      	beq.n	23cc <bget+0x150>
/optee/optee_os/lib/libutils/isoc/bget.c:690 (discriminator 1)
    23b4:	4b7f      	ldr	r3, [pc, #508]	; (25b4 <bget+0x338>)
    23b6:	447b      	add	r3, pc
    23b8:	f240 22b2 	movw	r2, #690	; 0x2b2
    23bc:	497e      	ldr	r1, [pc, #504]	; (25b8 <bget+0x33c>)
    23be:	4479      	add	r1, pc
    23c0:	487e      	ldr	r0, [pc, #504]	; (25bc <bget+0x340>)
    23c2:	4478      	add	r0, pc
    23c4:	f002 fcf4 	bl	4db0 <_assert_log>
    23c8:	f002 fd16 	bl	4df8 <_assert_break>
/optee/optee_os/lib/libutils/isoc/bget.c:696
    23cc:	69fb      	ldr	r3, [r7, #28]
    23ce:	f04f 0200 	mov.w	r2, #0
    23d2:	601a      	str	r2, [r3, #0]
/optee/optee_os/lib/libutils/isoc/bget.c:698
    23d4:	6abb      	ldr	r3, [r7, #40]	; 0x28
    23d6:	68db      	ldr	r3, [r3, #12]
    23d8:	689b      	ldr	r3, [r3, #8]
    23da:	6aba      	ldr	r2, [r7, #40]	; 0x28
    23dc:	429a      	cmp	r2, r3
    23de:	d00b      	beq.n	23f8 <bget+0x17c>
/optee/optee_os/lib/libutils/isoc/bget.c:698 (discriminator 1)
    23e0:	4b77      	ldr	r3, [pc, #476]	; (25c0 <bget+0x344>)
    23e2:	447b      	add	r3, pc
    23e4:	f240 22ba 	movw	r2, #698	; 0x2ba
    23e8:	4976      	ldr	r1, [pc, #472]	; (25c4 <bget+0x348>)
    23ea:	4479      	add	r1, pc
    23ec:	4876      	ldr	r0, [pc, #472]	; (25c8 <bget+0x34c>)
    23ee:	4478      	add	r0, pc
    23f0:	f002 fcde 	bl	4db0 <_assert_log>
    23f4:	f002 fd00 	bl	4df8 <_assert_break>
/optee/optee_os/lib/libutils/isoc/bget.c:699
    23f8:	6abb      	ldr	r3, [r7, #40]	; 0x28
    23fa:	689b      	ldr	r3, [r3, #8]
    23fc:	68db      	ldr	r3, [r3, #12]
    23fe:	6aba      	ldr	r2, [r7, #40]	; 0x28
    2400:	429a      	cmp	r2, r3
    2402:	d00b      	beq.n	241c <bget+0x1a0>
/optee/optee_os/lib/libutils/isoc/bget.c:699 (discriminator 1)
    2404:	4b71      	ldr	r3, [pc, #452]	; (25cc <bget+0x350>)
    2406:	447b      	add	r3, pc
    2408:	f240 22bb 	movw	r2, #699	; 0x2bb
    240c:	4970      	ldr	r1, [pc, #448]	; (25d0 <bget+0x354>)
    240e:	4479      	add	r1, pc
    2410:	4870      	ldr	r0, [pc, #448]	; (25d4 <bget+0x358>)
    2412:	4478      	add	r0, pc
    2414:	f002 fccc 	bl	4db0 <_assert_log>
    2418:	f002 fcee 	bl	4df8 <_assert_break>
/optee/optee_os/lib/libutils/isoc/bget.c:701
    241c:	6a7b      	ldr	r3, [r7, #36]	; 0x24
    241e:	2b00      	cmp	r3, #0
    2420:	d110      	bne.n	2444 <bget+0x1c8>
/optee/optee_os/lib/libutils/isoc/bget.c:706
    2422:	6abb      	ldr	r3, [r7, #40]	; 0x28
    2424:	68db      	ldr	r3, [r3, #12]
    2426:	6aba      	ldr	r2, [r7, #40]	; 0x28
    2428:	6892      	ldr	r2, [r2, #8]
    242a:	609a      	str	r2, [r3, #8]
/optee/optee_os/lib/libutils/isoc/bget.c:707
    242c:	6abb      	ldr	r3, [r7, #40]	; 0x28
    242e:	689b      	ldr	r3, [r3, #8]
    2430:	6aba      	ldr	r2, [r7, #40]	; 0x28
    2432:	68d2      	ldr	r2, [r2, #12]
    2434:	60da      	str	r2, [r3, #12]
/optee/optee_os/lib/libutils/isoc/bget.c:710
    2436:	6abb      	ldr	r3, [r7, #40]	; 0x28
    2438:	685b      	ldr	r3, [r3, #4]
    243a:	f1c3 0200 	rsb	r2, r3, #0
    243e:	6abb      	ldr	r3, [r7, #40]	; 0x28
    2440:	605a      	str	r2, [r3, #4]
    2442:	e00c      	b.n	245e <bget+0x1e2>
/optee/optee_os/lib/libutils/isoc/bget.c:716
    2444:	6abb      	ldr	r3, [r7, #40]	; 0x28
    2446:	685b      	ldr	r3, [r3, #4]
    2448:	6a7a      	ldr	r2, [r7, #36]	; 0x24
    244a:	eba2 0203 	sub.w	r2, r2, r3
    244e:	6a3b      	ldr	r3, [r7, #32]
    2450:	605a      	str	r2, [r3, #4]
/optee/optee_os/lib/libutils/isoc/bget.c:717
    2452:	6a3b      	ldr	r3, [r7, #32]
    2454:	6a7a      	ldr	r2, [r7, #36]	; 0x24
    2456:	601a      	str	r2, [r3, #0]
/optee/optee_os/lib/libutils/isoc/bget.c:718
    2458:	6abb      	ldr	r3, [r7, #40]	; 0x28
    245a:	6a7a      	ldr	r2, [r7, #36]	; 0x24
    245c:	605a      	str	r2, [r3, #4]
/optee/optee_os/lib/libutils/isoc/bget.c:721
    245e:	6a3b      	ldr	r3, [r7, #32]
    2460:	685b      	ldr	r3, [r3, #4]
    2462:	2b00      	cmp	r3, #0
    2464:	db0b      	blt.n	247e <bget+0x202>
/optee/optee_os/lib/libutils/isoc/bget.c:721 (discriminator 1)
    2466:	4b5c      	ldr	r3, [pc, #368]	; (25d8 <bget+0x35c>)
    2468:	447b      	add	r3, pc
    246a:	f240 22d1 	movw	r2, #721	; 0x2d1
    246e:	495b      	ldr	r1, [pc, #364]	; (25dc <bget+0x360>)
    2470:	4479      	add	r1, pc
    2472:	485b      	ldr	r0, [pc, #364]	; (25e0 <bget+0x364>)
    2474:	4478      	add	r0, pc
    2476:	f002 fc9b 	bl	4db0 <_assert_log>
    247a:	f002 fcbd 	bl	4df8 <_assert_break>
/optee/optee_os/lib/libutils/isoc/bget.c:727
    247e:	6a3b      	ldr	r3, [r7, #32]
    2480:	685b      	ldr	r3, [r3, #4]
    2482:	f1c3 0200 	rsb	r2, r3, #0
    2486:	697b      	ldr	r3, [r7, #20]
    2488:	eba2 0303 	sub.w	r3, r2, r3
    248c:	2b10      	cmp	r3, #16
    248e:	d962      	bls.n	2556 <bget+0x2da>
/optee/optee_os/lib/libutils/isoc/bget.c:733
    2490:	697b      	ldr	r3, [r7, #20]
    2492:	461a      	mov	r2, r3
    2494:	6a3b      	ldr	r3, [r7, #32]
    2496:	4413      	add	r3, r2
    2498:	62bb      	str	r3, [r7, #40]	; 0x28
/optee/optee_os/lib/libutils/isoc/bget.c:734
    249a:	6a3b      	ldr	r3, [r7, #32]
    249c:	685b      	ldr	r3, [r3, #4]
    249e:	f1c3 0200 	rsb	r2, r3, #0
    24a2:	697b      	ldr	r3, [r7, #20]
    24a4:	eba2 0203 	sub.w	r2, r2, r3
    24a8:	6abb      	ldr	r3, [r7, #40]	; 0x28
    24aa:	605a      	str	r2, [r3, #4]
/optee/optee_os/lib/libutils/isoc/bget.c:735
    24ac:	6abb      	ldr	r3, [r7, #40]	; 0x28
    24ae:	f04f 0200 	mov.w	r2, #0
    24b2:	601a      	str	r2, [r3, #0]
/optee/optee_os/lib/libutils/isoc/bget.c:736
    24b4:	6a3b      	ldr	r3, [r7, #32]
    24b6:	685a      	ldr	r2, [r3, #4]
    24b8:	6abb      	ldr	r3, [r7, #40]	; 0x28
    24ba:	685b      	ldr	r3, [r3, #4]
    24bc:	441a      	add	r2, r3
    24be:	6a3b      	ldr	r3, [r7, #32]
    24c0:	605a      	str	r2, [r3, #4]
/optee/optee_os/lib/libutils/isoc/bget.c:738
    24c2:	683b      	ldr	r3, [r7, #0]
    24c4:	68db      	ldr	r3, [r3, #12]
    24c6:	689a      	ldr	r2, [r3, #8]
    24c8:	683b      	ldr	r3, [r7, #0]
    24ca:	429a      	cmp	r2, r3
    24cc:	d00b      	beq.n	24e6 <bget+0x26a>
/optee/optee_os/lib/libutils/isoc/bget.c:738 (discriminator 1)
    24ce:	4b45      	ldr	r3, [pc, #276]	; (25e4 <bget+0x368>)
    24d0:	447b      	add	r3, pc
    24d2:	f240 22e2 	movw	r2, #738	; 0x2e2
    24d6:	4944      	ldr	r1, [pc, #272]	; (25e8 <bget+0x36c>)
    24d8:	4479      	add	r1, pc
    24da:	4844      	ldr	r0, [pc, #272]	; (25ec <bget+0x370>)
    24dc:	4478      	add	r0, pc
    24de:	f002 fc67 	bl	4db0 <_assert_log>
    24e2:	f002 fc89 	bl	4df8 <_assert_break>
/optee/optee_os/lib/libutils/isoc/bget.c:740
    24e6:	683b      	ldr	r3, [r7, #0]
    24e8:	689b      	ldr	r3, [r3, #8]
    24ea:	68da      	ldr	r2, [r3, #12]
    24ec:	683b      	ldr	r3, [r7, #0]
    24ee:	429a      	cmp	r2, r3
    24f0:	d00b      	beq.n	250a <bget+0x28e>
/optee/optee_os/lib/libutils/isoc/bget.c:740 (discriminator 1)
    24f2:	4b3f      	ldr	r3, [pc, #252]	; (25f0 <bget+0x374>)
    24f4:	447b      	add	r3, pc
    24f6:	f44f 7239 	mov.w	r2, #740	; 0x2e4
    24fa:	493e      	ldr	r1, [pc, #248]	; (25f4 <bget+0x378>)
    24fc:	4479      	add	r1, pc
    24fe:	483e      	ldr	r0, [pc, #248]	; (25f8 <bget+0x37c>)
    2500:	4478      	add	r0, pc
    2502:	f002 fc55 	bl	4db0 <_assert_log>
    2506:	f002 fc77 	bl	4df8 <_assert_break>
/optee/optee_os/lib/libutils/isoc/bget.c:742
    250a:	683a      	ldr	r2, [r7, #0]
    250c:	6abb      	ldr	r3, [r7, #40]	; 0x28
    250e:	609a      	str	r2, [r3, #8]
/optee/optee_os/lib/libutils/isoc/bget.c:743
    2510:	683b      	ldr	r3, [r7, #0]
    2512:	68da      	ldr	r2, [r3, #12]
    2514:	6abb      	ldr	r3, [r7, #40]	; 0x28
    2516:	60da      	str	r2, [r3, #12]
/optee/optee_os/lib/libutils/isoc/bget.c:744
    2518:	683b      	ldr	r3, [r7, #0]
    251a:	6aba      	ldr	r2, [r7, #40]	; 0x28
    251c:	60da      	str	r2, [r3, #12]
/optee/optee_os/lib/libutils/isoc/bget.c:745
    251e:	6abb      	ldr	r3, [r7, #40]	; 0x28
    2520:	68db      	ldr	r3, [r3, #12]
    2522:	6aba      	ldr	r2, [r7, #40]	; 0x28
    2524:	609a      	str	r2, [r3, #8]
/optee/optee_os/lib/libutils/isoc/bget.c:747
    2526:	6abb      	ldr	r3, [r7, #40]	; 0x28
    2528:	685b      	ldr	r3, [r3, #4]
    252a:	461a      	mov	r2, r3
    252c:	6abb      	ldr	r3, [r7, #40]	; 0x28
    252e:	4413      	add	r3, r2
    2530:	69fa      	ldr	r2, [r7, #28]
    2532:	429a      	cmp	r2, r3
    2534:	d00b      	beq.n	254e <bget+0x2d2>
/optee/optee_os/lib/libutils/isoc/bget.c:747 (discriminator 1)
    2536:	4b31      	ldr	r3, [pc, #196]	; (25fc <bget+0x380>)
    2538:	447b      	add	r3, pc
    253a:	f240 22eb 	movw	r2, #747	; 0x2eb
    253e:	4930      	ldr	r1, [pc, #192]	; (2600 <bget+0x384>)
    2540:	4479      	add	r1, pc
    2542:	4830      	ldr	r0, [pc, #192]	; (2604 <bget+0x388>)
    2544:	4478      	add	r0, pc
    2546:	f002 fc33 	bl	4db0 <_assert_log>
    254a:	f002 fc55 	bl	4df8 <_assert_break>
/optee/optee_os/lib/libutils/isoc/bget.c:748
    254e:	6abb      	ldr	r3, [r7, #40]	; 0x28
    2550:	685a      	ldr	r2, [r3, #4]
    2552:	69fb      	ldr	r3, [r7, #28]
    2554:	601a      	str	r2, [r3, #0]
/optee/optee_os/lib/libutils/isoc/bget.c:752
    2556:	683b      	ldr	r3, [r7, #0]
    2558:	691a      	ldr	r2, [r3, #16]
    255a:	6a3b      	ldr	r3, [r7, #32]
    255c:	685b      	ldr	r3, [r3, #4]
    255e:	eba2 0203 	sub.w	r2, r2, r3
    2562:	683b      	ldr	r3, [r7, #0]
    2564:	611a      	str	r2, [r3, #16]
/optee/optee_os/lib/libutils/isoc/bget.c:753
    2566:	683b      	ldr	r3, [r7, #0]
    2568:	695b      	ldr	r3, [r3, #20]
    256a:	f103 0201 	add.w	r2, r3, #1
    256e:	683b      	ldr	r3, [r7, #0]
    2570:	615a      	str	r2, [r3, #20]
/optee/optee_os/lib/libutils/isoc/bget.c:755
    2572:	6a3b      	ldr	r3, [r7, #32]
    2574:	f103 0308 	add.w	r3, r3, #8
    2578:	61bb      	str	r3, [r7, #24]
/optee/optee_os/lib/libutils/isoc/bget.c:756
    257a:	697b      	ldr	r3, [r7, #20]
    257c:	4619      	mov	r1, r3
    257e:	69b8      	ldr	r0, [r7, #24]
    2580:	f7ff fe03 	bl	218a <tag_asan_alloced>
/optee/optee_os/lib/libutils/isoc/bget.c:757
    2584:	69bb      	ldr	r3, [r7, #24]
    2586:	e009      	b.n	259c <bget+0x320>
/optee/optee_os/lib/libutils/isoc/bget.c:759
    2588:	6abb      	ldr	r3, [r7, #40]	; 0x28
    258a:	689b      	ldr	r3, [r3, #8]
    258c:	62bb      	str	r3, [r7, #40]	; 0x28
/optee/optee_os/lib/libutils/isoc/bget.c:684
    258e:	683b      	ldr	r3, [r7, #0]
    2590:	6aba      	ldr	r2, [r7, #40]	; 0x28
    2592:	429a      	cmp	r2, r3
    2594:	f47f aef3 	bne.w	237e <bget+0x102>
/optee/optee_os/lib/libutils/isoc/bget.c:838
    2598:	f04f 0300 	mov.w	r3, #0
/optee/optee_os/lib/libutils/isoc/bget.c:839 (discriminator 1)
    259c:	4618      	mov	r0, r3
    259e:	f107 0730 	add.w	r7, r7, #48	; 0x30
    25a2:	46bd      	mov	sp, r7
    25a4:	bd80      	pop	{r7, pc}
    25a6:	bf00      	nop
    25a8:	000132a4 	.word	0x000132a4
    25ac:	00012fb4 	.word	0x00012fb4
    25b0:	00012fcc 	.word	0x00012fcc
    25b4:	0001318a 	.word	0x0001318a
    25b8:	00012e9a 	.word	0x00012e9a
    25bc:	00012ebe 	.word	0x00012ebe
    25c0:	0001315e 	.word	0x0001315e
    25c4:	00012e6e 	.word	0x00012e6e
    25c8:	00012eb2 	.word	0x00012eb2
    25cc:	0001313a 	.word	0x0001313a
    25d0:	00012e4a 	.word	0x00012e4a
    25d4:	00012eaa 	.word	0x00012eaa
    25d8:	000130d8 	.word	0x000130d8
    25dc:	00012de8 	.word	0x00012de8
    25e0:	00012e64 	.word	0x00012e64
    25e4:	00013070 	.word	0x00013070
    25e8:	00012d80 	.word	0x00012d80
    25ec:	00012e10 	.word	0x00012e10
    25f0:	0001304c 	.word	0x0001304c
    25f4:	00012d5c 	.word	0x00012d5c
    25f8:	00012e28 	.word	0x00012e28
    25fc:	00013008 	.word	0x00013008
    2600:	00012d18 	.word	0x00012d18
    2604:	00012e20 	.word	0x00012e20

00002608 <bgetz>:
bgetz():
/optee/optee_os/lib/libutils/isoc/bget.c:850
    2608:	e96d 7e02 	strd	r7, lr, [sp, #-8]!
    260c:	b088      	sub	sp, #32
    260e:	af00      	add	r7, sp, #0
    2610:	60f8      	str	r0, [r7, #12]
    2612:	60b9      	str	r1, [r7, #8]
    2614:	607a      	str	r2, [r7, #4]
    2616:	603b      	str	r3, [r7, #0]
/optee/optee_os/lib/libutils/isoc/bget.c:851
    2618:	683b      	ldr	r3, [r7, #0]
    261a:	687a      	ldr	r2, [r7, #4]
    261c:	68b9      	ldr	r1, [r7, #8]
    261e:	68f8      	ldr	r0, [r7, #12]
    2620:	f7ff fe2c 	bl	227c <bget>
    2624:	61b8      	str	r0, [r7, #24]
/optee/optee_os/lib/libutils/isoc/bget.c:853
    2626:	69bb      	ldr	r3, [r7, #24]
    2628:	2b00      	cmp	r3, #0
    262a:	d035      	beq.n	2698 <bgetz+0x90>
/optee/optee_os/lib/libutils/isoc/bget.c:857
    262c:	69bb      	ldr	r3, [r7, #24]
    262e:	f1a3 0308 	sub.w	r3, r3, #8
    2632:	617b      	str	r3, [r7, #20]
/optee/optee_os/lib/libutils/isoc/bget.c:858
    2634:	697b      	ldr	r3, [r7, #20]
    2636:	685b      	ldr	r3, [r3, #4]
    2638:	f1c3 0300 	rsb	r3, r3, #0
    263c:	61fb      	str	r3, [r7, #28]
/optee/optee_os/lib/libutils/isoc/bget.c:859
    263e:	69fb      	ldr	r3, [r7, #28]
    2640:	2b00      	cmp	r3, #0
    2642:	d10e      	bne.n	2662 <bgetz+0x5a>
/optee/optee_os/lib/libutils/isoc/bget.c:862
    2644:	69bb      	ldr	r3, [r7, #24]
    2646:	f1a3 0310 	sub.w	r3, r3, #16
    264a:	613b      	str	r3, [r7, #16]
/optee/optee_os/lib/libutils/isoc/bget.c:863
    264c:	693b      	ldr	r3, [r7, #16]
    264e:	681b      	ldr	r3, [r3, #0]
    2650:	461a      	mov	r2, r3
    2652:	693b      	ldr	r3, [r7, #16]
    2654:	685b      	ldr	r3, [r3, #4]
    2656:	eba2 0303 	sub.w	r3, r2, r3
    265a:	f1a3 0310 	sub.w	r3, r3, #16
    265e:	61fb      	str	r3, [r7, #28]
    2660:	e003      	b.n	266a <bgetz+0x62>
/optee/optee_os/lib/libutils/isoc/bget.c:865
    2662:	69fb      	ldr	r3, [r7, #28]
    2664:	f1a3 0308 	sub.w	r3, r3, #8
    2668:	61fb      	str	r3, [r7, #28]
/optee/optee_os/lib/libutils/isoc/bget.c:867
    266a:	69fa      	ldr	r2, [r7, #28]
    266c:	687b      	ldr	r3, [r7, #4]
    266e:	429a      	cmp	r2, r3
    2670:	da0b      	bge.n	268a <bgetz+0x82>
/optee/optee_os/lib/libutils/isoc/bget.c:867 (discriminator 1)
    2672:	4b0c      	ldr	r3, [pc, #48]	; (26a4 <bgetz+0x9c>)
    2674:	447b      	add	r3, pc
    2676:	f240 3263 	movw	r2, #867	; 0x363
    267a:	490b      	ldr	r1, [pc, #44]	; (26a8 <bgetz+0xa0>)
    267c:	4479      	add	r1, pc
    267e:	480b      	ldr	r0, [pc, #44]	; (26ac <bgetz+0xa4>)
    2680:	4478      	add	r0, pc
    2682:	f002 fb95 	bl	4db0 <_assert_log>
    2686:	f002 fbb7 	bl	4df8 <_assert_break>
/optee/optee_os/lib/libutils/isoc/bget.c:868
    268a:	69fb      	ldr	r3, [r7, #28]
    268c:	461a      	mov	r2, r3
    268e:	f04f 0100 	mov.w	r1, #0
    2692:	69b8      	ldr	r0, [r7, #24]
    2694:	f7ff fd86 	bl	21a4 <memset_unchecked>
/optee/optee_os/lib/libutils/isoc/bget.c:870
    2698:	69bb      	ldr	r3, [r7, #24]
/optee/optee_os/lib/libutils/isoc/bget.c:871
    269a:	4618      	mov	r0, r3
    269c:	f107 0720 	add.w	r7, r7, #32
    26a0:	46bd      	mov	sp, r7
    26a2:	bd80      	pop	{r7, pc}
    26a4:	00012ed4 	.word	0x00012ed4
    26a8:	00012bdc 	.word	0x00012bdc
    26ac:	00012d0c 	.word	0x00012d0c

000026b0 <bgetr>:
bgetr():
/optee/optee_os/lib/libutils/isoc/bget.c:884
    26b0:	e96d 7e02 	strd	r7, lr, [sp, #-8]!
    26b4:	b088      	sub	sp, #32
    26b6:	af00      	add	r7, sp, #0
    26b8:	60f8      	str	r0, [r7, #12]
    26ba:	60b9      	str	r1, [r7, #8]
    26bc:	607a      	str	r2, [r7, #4]
    26be:	603b      	str	r3, [r7, #0]
/optee/optee_os/lib/libutils/isoc/bget.c:889
    26c0:	6abb      	ldr	r3, [r7, #40]	; 0x28
    26c2:	683a      	ldr	r2, [r7, #0]
    26c4:	6879      	ldr	r1, [r7, #4]
    26c6:	68b8      	ldr	r0, [r7, #8]
    26c8:	f7ff fdd8 	bl	227c <bget>
    26cc:	61f8      	str	r0, [r7, #28]
    26ce:	69fb      	ldr	r3, [r7, #28]
    26d0:	2b00      	cmp	r3, #0
    26d2:	d102      	bne.n	26da <bgetr+0x2a>
/optee/optee_os/lib/libutils/isoc/bget.c:890
    26d4:	f04f 0300 	mov.w	r3, #0
    26d8:	e042      	b.n	2760 <bgetr+0xb0>
/optee/optee_os/lib/libutils/isoc/bget.c:892
    26da:	68fb      	ldr	r3, [r7, #12]
    26dc:	2b00      	cmp	r3, #0
    26de:	d101      	bne.n	26e4 <bgetr+0x34>
/optee/optee_os/lib/libutils/isoc/bget.c:893
    26e0:	69fb      	ldr	r3, [r7, #28]
    26e2:	e03d      	b.n	2760 <bgetr+0xb0>
/optee/optee_os/lib/libutils/isoc/bget.c:895
    26e4:	68fb      	ldr	r3, [r7, #12]
    26e6:	f1a3 0308 	sub.w	r3, r3, #8
    26ea:	61bb      	str	r3, [r7, #24]
/optee/optee_os/lib/libutils/isoc/bget.c:896
    26ec:	69bb      	ldr	r3, [r7, #24]
    26ee:	685b      	ldr	r3, [r3, #4]
    26f0:	f1c3 0300 	rsb	r3, r3, #0
    26f4:	617b      	str	r3, [r7, #20]
/optee/optee_os/lib/libutils/isoc/bget.c:906
    26f6:	697b      	ldr	r3, [r7, #20]
    26f8:	f1a3 0308 	sub.w	r3, r3, #8
    26fc:	617b      	str	r3, [r7, #20]
/optee/optee_os/lib/libutils/isoc/bget.c:907
    26fe:	697b      	ldr	r3, [r7, #20]
    2700:	2b00      	cmp	r3, #0
    2702:	dc0b      	bgt.n	271c <bgetr+0x6c>
/optee/optee_os/lib/libutils/isoc/bget.c:907 (discriminator 1)
    2704:	4b19      	ldr	r3, [pc, #100]	; (276c <bgetr+0xbc>)
    2706:	447b      	add	r3, pc
    2708:	f240 328b 	movw	r2, #907	; 0x38b
    270c:	4918      	ldr	r1, [pc, #96]	; (2770 <bgetr+0xc0>)
    270e:	4479      	add	r1, pc
    2710:	4818      	ldr	r0, [pc, #96]	; (2774 <bgetr+0xc4>)
    2712:	4478      	add	r0, pc
    2714:	f002 fb4c 	bl	4db0 <_assert_log>
    2718:	f002 fb6e 	bl	4df8 <_assert_break>
/optee/optee_os/lib/libutils/isoc/bget.c:909
    271c:	697a      	ldr	r2, [r7, #20]
    271e:	683b      	ldr	r3, [r7, #0]
    2720:	4293      	cmp	r3, r2
    2722:	bfa8      	it	ge
    2724:	4613      	movge	r3, r2
/optee/optee_os/lib/libutils/isoc/bget.c:908
    2726:	461a      	mov	r2, r3
    2728:	68f9      	ldr	r1, [r7, #12]
    272a:	69f8      	ldr	r0, [r7, #28]
    272c:	f010 fd0c 	bl	13148 <memcpy>
/optee/optee_os/lib/libutils/isoc/bget.c:912
    2730:	683a      	ldr	r2, [r7, #0]
    2732:	697b      	ldr	r3, [r7, #20]
    2734:	429a      	cmp	r2, r3
    2736:	dd0c      	ble.n	2752 <bgetr+0xa2>
/optee/optee_os/lib/libutils/isoc/bget.c:913
    2738:	697b      	ldr	r3, [r7, #20]
    273a:	69fa      	ldr	r2, [r7, #28]
    273c:	eb02 0003 	add.w	r0, r2, r3
    2740:	683a      	ldr	r2, [r7, #0]
    2742:	697b      	ldr	r3, [r7, #20]
    2744:	eba2 0303 	sub.w	r3, r2, r3
    2748:	461a      	mov	r2, r3
    274a:	f04f 0100 	mov.w	r1, #0
    274e:	f010 fd74 	bl	1323a <memset>
/optee/optee_os/lib/libutils/isoc/bget.c:915
    2752:	f04f 0200 	mov.w	r2, #0
    2756:	6ab9      	ldr	r1, [r7, #40]	; 0x28
    2758:	68f8      	ldr	r0, [r7, #12]
    275a:	f000 f80d 	bl	2778 <brel>
/optee/optee_os/lib/libutils/isoc/bget.c:916
    275e:	69fb      	ldr	r3, [r7, #28]
/optee/optee_os/lib/libutils/isoc/bget.c:917
    2760:	4618      	mov	r0, r3
    2762:	f107 0720 	add.w	r7, r7, #32
    2766:	46bd      	mov	sp, r7
    2768:	bd80      	pop	{r7, pc}
    276a:	bf00      	nop
    276c:	00012e4a 	.word	0x00012e4a
    2770:	00012b4a 	.word	0x00012b4a
    2774:	00012c8a 	.word	0x00012c8a

00002778 <brel>:
brel():
/optee/optee_os/lib/libutils/isoc/bget.c:925
    2778:	f84d 4d0c 	str.w	r4, [sp, #-12]!
    277c:	e9cd 7e01 	strd	r7, lr, [sp, #4]
    2780:	b089      	sub	sp, #36	; 0x24
    2782:	af00      	add	r7, sp, #0
    2784:	60f8      	str	r0, [r7, #12]
    2786:	60b9      	str	r1, [r7, #8]
    2788:	607a      	str	r2, [r7, #4]
/optee/optee_os/lib/libutils/isoc/bget.c:929
    278a:	68fb      	ldr	r3, [r7, #12]
    278c:	f1a3 0308 	sub.w	r3, r3, #8
    2790:	61fb      	str	r3, [r7, #28]
/optee/optee_os/lib/libutils/isoc/bget.c:931
    2792:	68bb      	ldr	r3, [r7, #8]
    2794:	699b      	ldr	r3, [r3, #24]
    2796:	f103 0201 	add.w	r2, r3, #1
    279a:	68bb      	ldr	r3, [r7, #8]
    279c:	619a      	str	r2, [r3, #24]
/optee/optee_os/lib/libutils/isoc/bget.c:933
    279e:	68fb      	ldr	r3, [r7, #12]
    27a0:	2b00      	cmp	r3, #0
    27a2:	d10b      	bne.n	27bc <brel+0x44>
/optee/optee_os/lib/libutils/isoc/bget.c:933 (discriminator 1)
    27a4:	4ba1      	ldr	r3, [pc, #644]	; (2a2c <brel+0x2b4>)
    27a6:	447b      	add	r3, pc
    27a8:	f240 32a5 	movw	r2, #933	; 0x3a5
    27ac:	49a0      	ldr	r1, [pc, #640]	; (2a30 <brel+0x2b8>)
    27ae:	4479      	add	r1, pc
    27b0:	48a0      	ldr	r0, [pc, #640]	; (2a34 <brel+0x2bc>)
    27b2:	4478      	add	r0, pc
    27b4:	f002 fafc 	bl	4db0 <_assert_log>
    27b8:	f002 fb1e 	bl	4df8 <_assert_break>
/optee/optee_os/lib/libutils/isoc/bget.c:965
    27bc:	69fb      	ldr	r3, [r7, #28]
    27be:	685b      	ldr	r3, [r3, #4]
    27c0:	2b00      	cmp	r3, #0
    27c2:	db02      	blt.n	27ca <brel+0x52>
/optee/optee_os/lib/libutils/isoc/bget.c:966
    27c4:	f04f 0300 	mov.w	r3, #0
    27c8:	61bb      	str	r3, [r7, #24]
/optee/optee_os/lib/libutils/isoc/bget.c:968
    27ca:	69fb      	ldr	r3, [r7, #28]
    27cc:	685b      	ldr	r3, [r3, #4]
    27ce:	2b00      	cmp	r3, #0
    27d0:	db0b      	blt.n	27ea <brel+0x72>
/optee/optee_os/lib/libutils/isoc/bget.c:968 (discriminator 1)
    27d2:	4b99      	ldr	r3, [pc, #612]	; (2a38 <brel+0x2c0>)
    27d4:	447b      	add	r3, pc
    27d6:	f44f 7272 	mov.w	r2, #968	; 0x3c8
    27da:	4998      	ldr	r1, [pc, #608]	; (2a3c <brel+0x2c4>)
    27dc:	4479      	add	r1, pc
    27de:	4898      	ldr	r0, [pc, #608]	; (2a40 <brel+0x2c8>)
    27e0:	4478      	add	r0, pc
    27e2:	f002 fae5 	bl	4db0 <_assert_log>
    27e6:	f002 fb07 	bl	4df8 <_assert_break>
/optee/optee_os/lib/libutils/isoc/bget.c:969
    27ea:	69fb      	ldr	r3, [r7, #28]
    27ec:	685b      	ldr	r3, [r3, #4]
    27ee:	f1c3 0300 	rsb	r3, r3, #0
    27f2:	617b      	str	r3, [r7, #20]
/optee/optee_os/lib/libutils/isoc/bget.c:974
    27f4:	69fb      	ldr	r3, [r7, #28]
    27f6:	685b      	ldr	r3, [r3, #4]
    27f8:	f1c3 0300 	rsb	r3, r3, #0
    27fc:	69fa      	ldr	r2, [r7, #28]
    27fe:	4413      	add	r3, r2
    2800:	681b      	ldr	r3, [r3, #0]
    2802:	2b00      	cmp	r3, #0
    2804:	d00b      	beq.n	281e <brel+0xa6>
/optee/optee_os/lib/libutils/isoc/bget.c:974 (discriminator 1)
    2806:	4b8f      	ldr	r3, [pc, #572]	; (2a44 <brel+0x2cc>)
    2808:	447b      	add	r3, pc
    280a:	f240 32ce 	movw	r2, #974	; 0x3ce
    280e:	498e      	ldr	r1, [pc, #568]	; (2a48 <brel+0x2d0>)
    2810:	4479      	add	r1, pc
    2812:	488e      	ldr	r0, [pc, #568]	; (2a4c <brel+0x2d4>)
    2814:	4478      	add	r0, pc
    2816:	f002 facb 	bl	4db0 <_assert_log>
    281a:	f002 faed 	bl	4df8 <_assert_break>
/optee/optee_os/lib/libutils/isoc/bget.c:977
    281e:	68bb      	ldr	r3, [r7, #8]
    2820:	691a      	ldr	r2, [r3, #16]
    2822:	69fb      	ldr	r3, [r7, #28]
    2824:	685b      	ldr	r3, [r3, #4]
    2826:	441a      	add	r2, r3
    2828:	68bb      	ldr	r3, [r7, #8]
    282a:	611a      	str	r2, [r3, #16]
/optee/optee_os/lib/libutils/isoc/bget.c:978
    282c:	68bb      	ldr	r3, [r7, #8]
    282e:	691b      	ldr	r3, [r3, #16]
    2830:	2b00      	cmp	r3, #0
    2832:	da0b      	bge.n	284c <brel+0xd4>
/optee/optee_os/lib/libutils/isoc/bget.c:978 (discriminator 1)
    2834:	4b86      	ldr	r3, [pc, #536]	; (2a50 <brel+0x2d8>)
    2836:	447b      	add	r3, pc
    2838:	f240 32d2 	movw	r2, #978	; 0x3d2
    283c:	4985      	ldr	r1, [pc, #532]	; (2a54 <brel+0x2dc>)
    283e:	4479      	add	r1, pc
    2840:	4885      	ldr	r0, [pc, #532]	; (2a58 <brel+0x2e0>)
    2842:	4478      	add	r0, pc
    2844:	f002 fab4 	bl	4db0 <_assert_log>
    2848:	f002 fad6 	bl	4df8 <_assert_break>
/optee/optee_os/lib/libutils/isoc/bget.c:983
    284c:	69fb      	ldr	r3, [r7, #28]
    284e:	681b      	ldr	r3, [r3, #0]
    2850:	2b00      	cmp	r3, #0
    2852:	d026      	beq.n	28a2 <brel+0x12a>
/optee/optee_os/lib/libutils/isoc/bget.c:991
    2854:	69fb      	ldr	r3, [r7, #28]
    2856:	685c      	ldr	r4, [r3, #4]
/optee/optee_os/lib/libutils/isoc/bget.c:994
    2858:	69fb      	ldr	r3, [r7, #28]
    285a:	681b      	ldr	r3, [r3, #0]
    285c:	f1c3 0300 	rsb	r3, r3, #0
    2860:	69fa      	ldr	r2, [r7, #28]
    2862:	4413      	add	r3, r2
    2864:	685a      	ldr	r2, [r3, #4]
    2866:	69fb      	ldr	r3, [r7, #28]
    2868:	681b      	ldr	r3, [r3, #0]
    286a:	429a      	cmp	r2, r3
    286c:	d00b      	beq.n	2886 <brel+0x10e>
/optee/optee_os/lib/libutils/isoc/bget.c:994 (discriminator 1)
    286e:	4b7b      	ldr	r3, [pc, #492]	; (2a5c <brel+0x2e4>)
    2870:	447b      	add	r3, pc
    2872:	f240 32e2 	movw	r2, #994	; 0x3e2
    2876:	497a      	ldr	r1, [pc, #488]	; (2a60 <brel+0x2e8>)
    2878:	4479      	add	r1, pc
    287a:	487a      	ldr	r0, [pc, #488]	; (2a64 <brel+0x2ec>)
    287c:	4478      	add	r0, pc
    287e:	f002 fa97 	bl	4db0 <_assert_log>
    2882:	f002 fab9 	bl	4df8 <_assert_break>
/optee/optee_os/lib/libutils/isoc/bget.c:995
    2886:	69fb      	ldr	r3, [r7, #28]
    2888:	681b      	ldr	r3, [r3, #0]
    288a:	f1c3 0300 	rsb	r3, r3, #0
    288e:	69fa      	ldr	r2, [r7, #28]
    2890:	4413      	add	r3, r2
    2892:	61fb      	str	r3, [r7, #28]
/optee/optee_os/lib/libutils/isoc/bget.c:996
    2894:	69fb      	ldr	r3, [r7, #28]
    2896:	685b      	ldr	r3, [r3, #4]
    2898:	eba3 0204 	sub.w	r2, r3, r4
    289c:	69fb      	ldr	r3, [r7, #28]
    289e:	605a      	str	r2, [r3, #4]
    28a0:	e037      	b.n	2912 <brel+0x19a>
/optee/optee_os/lib/libutils/isoc/bget.c:1002
    28a2:	68bb      	ldr	r3, [r7, #8]
    28a4:	68db      	ldr	r3, [r3, #12]
    28a6:	689a      	ldr	r2, [r3, #8]
    28a8:	68bb      	ldr	r3, [r7, #8]
    28aa:	429a      	cmp	r2, r3
    28ac:	d00b      	beq.n	28c6 <brel+0x14e>
/optee/optee_os/lib/libutils/isoc/bget.c:1002 (discriminator 1)
    28ae:	4b6e      	ldr	r3, [pc, #440]	; (2a68 <brel+0x2f0>)
    28b0:	447b      	add	r3, pc
    28b2:	f240 32ea 	movw	r2, #1002	; 0x3ea
    28b6:	496d      	ldr	r1, [pc, #436]	; (2a6c <brel+0x2f4>)
    28b8:	4479      	add	r1, pc
    28ba:	486d      	ldr	r0, [pc, #436]	; (2a70 <brel+0x2f8>)
    28bc:	4478      	add	r0, pc
    28be:	f002 fa77 	bl	4db0 <_assert_log>
    28c2:	f002 fa99 	bl	4df8 <_assert_break>
/optee/optee_os/lib/libutils/isoc/bget.c:1003
    28c6:	68bb      	ldr	r3, [r7, #8]
    28c8:	689b      	ldr	r3, [r3, #8]
    28ca:	68da      	ldr	r2, [r3, #12]
    28cc:	68bb      	ldr	r3, [r7, #8]
    28ce:	429a      	cmp	r2, r3
    28d0:	d00b      	beq.n	28ea <brel+0x172>
/optee/optee_os/lib/libutils/isoc/bget.c:1003 (discriminator 1)
    28d2:	4b68      	ldr	r3, [pc, #416]	; (2a74 <brel+0x2fc>)
    28d4:	447b      	add	r3, pc
    28d6:	f240 32eb 	movw	r2, #1003	; 0x3eb
    28da:	4967      	ldr	r1, [pc, #412]	; (2a78 <brel+0x300>)
    28dc:	4479      	add	r1, pc
    28de:	4867      	ldr	r0, [pc, #412]	; (2a7c <brel+0x304>)
    28e0:	4478      	add	r0, pc
    28e2:	f002 fa65 	bl	4db0 <_assert_log>
    28e6:	f002 fa87 	bl	4df8 <_assert_break>
/optee/optee_os/lib/libutils/isoc/bget.c:1004
    28ea:	68ba      	ldr	r2, [r7, #8]
    28ec:	69fb      	ldr	r3, [r7, #28]
    28ee:	609a      	str	r2, [r3, #8]
/optee/optee_os/lib/libutils/isoc/bget.c:1005
    28f0:	68bb      	ldr	r3, [r7, #8]
    28f2:	68da      	ldr	r2, [r3, #12]
    28f4:	69fb      	ldr	r3, [r7, #28]
    28f6:	60da      	str	r2, [r3, #12]
/optee/optee_os/lib/libutils/isoc/bget.c:1006
    28f8:	68bb      	ldr	r3, [r7, #8]
    28fa:	69fa      	ldr	r2, [r7, #28]
    28fc:	60da      	str	r2, [r3, #12]
/optee/optee_os/lib/libutils/isoc/bget.c:1007
    28fe:	69fb      	ldr	r3, [r7, #28]
    2900:	68db      	ldr	r3, [r3, #12]
    2902:	69fa      	ldr	r2, [r7, #28]
    2904:	609a      	str	r2, [r3, #8]
/optee/optee_os/lib/libutils/isoc/bget.c:1008
    2906:	69fb      	ldr	r3, [r7, #28]
    2908:	685b      	ldr	r3, [r3, #4]
    290a:	f1c3 0200 	rsb	r2, r3, #0
    290e:	69fb      	ldr	r3, [r7, #28]
    2910:	605a      	str	r2, [r3, #4]
/optee/optee_os/lib/libutils/isoc/bget.c:1016
    2912:	69fb      	ldr	r3, [r7, #28]
    2914:	685b      	ldr	r3, [r3, #4]
    2916:	461a      	mov	r2, r3
    2918:	69fb      	ldr	r3, [r7, #28]
    291a:	4413      	add	r3, r2
    291c:	61bb      	str	r3, [r7, #24]
/optee/optee_os/lib/libutils/isoc/bget.c:1017
    291e:	69bb      	ldr	r3, [r7, #24]
    2920:	685b      	ldr	r3, [r3, #4]
    2922:	2b00      	cmp	r3, #0
    2924:	dd50      	ble.n	29c8 <brel+0x250>
/optee/optee_os/lib/libutils/isoc/bget.c:1022
    2926:	69bb      	ldr	r3, [r7, #24]
    2928:	685b      	ldr	r3, [r3, #4]
    292a:	461a      	mov	r2, r3
    292c:	69bb      	ldr	r3, [r7, #24]
    292e:	4413      	add	r3, r2
    2930:	681a      	ldr	r2, [r3, #0]
    2932:	69bb      	ldr	r3, [r7, #24]
    2934:	685b      	ldr	r3, [r3, #4]
    2936:	429a      	cmp	r2, r3
    2938:	d00b      	beq.n	2952 <brel+0x1da>
/optee/optee_os/lib/libutils/isoc/bget.c:1022 (discriminator 1)
    293a:	4b51      	ldr	r3, [pc, #324]	; (2a80 <brel+0x308>)
    293c:	447b      	add	r3, pc
    293e:	f240 32fe 	movw	r2, #1022	; 0x3fe
    2942:	4950      	ldr	r1, [pc, #320]	; (2a84 <brel+0x30c>)
    2944:	4479      	add	r1, pc
    2946:	4850      	ldr	r0, [pc, #320]	; (2a88 <brel+0x310>)
    2948:	4478      	add	r0, pc
    294a:	f002 fa31 	bl	4db0 <_assert_log>
    294e:	f002 fa53 	bl	4df8 <_assert_break>
/optee/optee_os/lib/libutils/isoc/bget.c:1023
    2952:	69bb      	ldr	r3, [r7, #24]
    2954:	68db      	ldr	r3, [r3, #12]
    2956:	689b      	ldr	r3, [r3, #8]
    2958:	69ba      	ldr	r2, [r7, #24]
    295a:	429a      	cmp	r2, r3
    295c:	d00b      	beq.n	2976 <brel+0x1fe>
/optee/optee_os/lib/libutils/isoc/bget.c:1023 (discriminator 1)
    295e:	4b4b      	ldr	r3, [pc, #300]	; (2a8c <brel+0x314>)
    2960:	447b      	add	r3, pc
    2962:	f240 32ff 	movw	r2, #1023	; 0x3ff
    2966:	494a      	ldr	r1, [pc, #296]	; (2a90 <brel+0x318>)
    2968:	4479      	add	r1, pc
    296a:	484a      	ldr	r0, [pc, #296]	; (2a94 <brel+0x31c>)
    296c:	4478      	add	r0, pc
    296e:	f002 fa1f 	bl	4db0 <_assert_log>
    2972:	f002 fa41 	bl	4df8 <_assert_break>
/optee/optee_os/lib/libutils/isoc/bget.c:1024
    2976:	69bb      	ldr	r3, [r7, #24]
    2978:	689b      	ldr	r3, [r3, #8]
    297a:	68db      	ldr	r3, [r3, #12]
    297c:	69ba      	ldr	r2, [r7, #24]
    297e:	429a      	cmp	r2, r3
    2980:	d00b      	beq.n	299a <brel+0x222>
/optee/optee_os/lib/libutils/isoc/bget.c:1024 (discriminator 1)
    2982:	4b45      	ldr	r3, [pc, #276]	; (2a98 <brel+0x320>)
    2984:	447b      	add	r3, pc
    2986:	f44f 6280 	mov.w	r2, #1024	; 0x400
    298a:	4944      	ldr	r1, [pc, #272]	; (2a9c <brel+0x324>)
    298c:	4479      	add	r1, pc
    298e:	4844      	ldr	r0, [pc, #272]	; (2aa0 <brel+0x328>)
    2990:	4478      	add	r0, pc
    2992:	f002 fa0d 	bl	4db0 <_assert_log>
    2996:	f002 fa2f 	bl	4df8 <_assert_break>
/optee/optee_os/lib/libutils/isoc/bget.c:1025
    299a:	69bb      	ldr	r3, [r7, #24]
    299c:	68db      	ldr	r3, [r3, #12]
    299e:	69ba      	ldr	r2, [r7, #24]
    29a0:	6892      	ldr	r2, [r2, #8]
    29a2:	609a      	str	r2, [r3, #8]
/optee/optee_os/lib/libutils/isoc/bget.c:1026
    29a4:	69bb      	ldr	r3, [r7, #24]
    29a6:	689b      	ldr	r3, [r3, #8]
    29a8:	69ba      	ldr	r2, [r7, #24]
    29aa:	68d2      	ldr	r2, [r2, #12]
    29ac:	60da      	str	r2, [r3, #12]
/optee/optee_os/lib/libutils/isoc/bget.c:1027
    29ae:	69fb      	ldr	r3, [r7, #28]
    29b0:	685a      	ldr	r2, [r3, #4]
    29b2:	69bb      	ldr	r3, [r7, #24]
    29b4:	685b      	ldr	r3, [r3, #4]
    29b6:	441a      	add	r2, r3
    29b8:	69fb      	ldr	r3, [r7, #28]
    29ba:	605a      	str	r2, [r3, #4]
/optee/optee_os/lib/libutils/isoc/bget.c:1036
    29bc:	69fb      	ldr	r3, [r7, #28]
    29be:	685b      	ldr	r3, [r3, #4]
    29c0:	461a      	mov	r2, r3
    29c2:	69fb      	ldr	r3, [r7, #28]
    29c4:	4413      	add	r3, r2
    29c6:	61bb      	str	r3, [r7, #24]
/optee/optee_os/lib/libutils/isoc/bget.c:1038
    29c8:	687b      	ldr	r3, [r7, #4]
    29ca:	2b00      	cmp	r3, #0
    29cc:	d00b      	beq.n	29e6 <brel+0x26e>
/optee/optee_os/lib/libutils/isoc/bget.c:1039
    29ce:	69fb      	ldr	r3, [r7, #28]
    29d0:	f103 0010 	add.w	r0, r3, #16
/optee/optee_os/lib/libutils/isoc/bget.c:1040
    29d4:	69fb      	ldr	r3, [r7, #28]
    29d6:	685b      	ldr	r3, [r3, #4]
    29d8:	f1a3 0310 	sub.w	r3, r3, #16
/optee/optee_os/lib/libutils/isoc/bget.c:1039
    29dc:	461a      	mov	r2, r3
    29de:	f04f 0155 	mov.w	r1, #85	; 0x55
    29e2:	f7ff fbdf 	bl	21a4 <memset_unchecked>
/optee/optee_os/lib/libutils/isoc/bget.c:1042
    29e6:	69bb      	ldr	r3, [r7, #24]
    29e8:	685b      	ldr	r3, [r3, #4]
    29ea:	2b00      	cmp	r3, #0
    29ec:	db0b      	blt.n	2a06 <brel+0x28e>
/optee/optee_os/lib/libutils/isoc/bget.c:1042 (discriminator 1)
    29ee:	4b2d      	ldr	r3, [pc, #180]	; (2aa4 <brel+0x32c>)
    29f0:	447b      	add	r3, pc
    29f2:	f240 4212 	movw	r2, #1042	; 0x412
    29f6:	492c      	ldr	r1, [pc, #176]	; (2aa8 <brel+0x330>)
    29f8:	4479      	add	r1, pc
    29fa:	482c      	ldr	r0, [pc, #176]	; (2aac <brel+0x334>)
    29fc:	4478      	add	r0, pc
    29fe:	f002 f9d7 	bl	4db0 <_assert_log>
    2a02:	f002 f9f9 	bl	4df8 <_assert_break>
/optee/optee_os/lib/libutils/isoc/bget.c:1047
    2a06:	69fb      	ldr	r3, [r7, #28]
    2a08:	685a      	ldr	r2, [r3, #4]
    2a0a:	69bb      	ldr	r3, [r7, #24]
    2a0c:	601a      	str	r2, [r3, #0]
/optee/optee_os/lib/libutils/isoc/bget.c:1074
    2a0e:	697b      	ldr	r3, [r7, #20]
    2a10:	4619      	mov	r1, r3
    2a12:	68f8      	ldr	r0, [r7, #12]
    2a14:	f7ff fbac 	bl	2170 <tag_asan_free>
/optee/optee_os/lib/libutils/isoc/bget.c:1075
    2a18:	bf00      	nop
    2a1a:	f107 0724 	add.w	r7, r7, #36	; 0x24
    2a1e:	46bd      	mov	sp, r7
    2a20:	e9dd 4700 	ldrd	r4, r7, [sp]
    2a24:	b002      	add	sp, #8
    2a26:	f85d fb04 	ldr.w	pc, [sp], #4
    2a2a:	bf00      	nop
    2a2c:	00012db2 	.word	0x00012db2
    2a30:	00012aaa 	.word	0x00012aaa
    2a34:	00012bf6 	.word	0x00012bf6
    2a38:	00012d84 	.word	0x00012d84
    2a3c:	00012a7c 	.word	0x00012a7c
    2a40:	00012bd4 	.word	0x00012bd4
    2a44:	00012d50 	.word	0x00012d50
    2a48:	00012a48 	.word	0x00012a48
    2a4c:	00012bb0 	.word	0x00012bb0
    2a50:	00012d22 	.word	0x00012d22
    2a54:	00012a1a 	.word	0x00012a1a
    2a58:	00012bae 	.word	0x00012bae
    2a5c:	00012ce8 	.word	0x00012ce8
    2a60:	000129e0 	.word	0x000129e0
    2a64:	00012b8c 	.word	0x00012b8c
    2a68:	00012ca8 	.word	0x00012ca8
    2a6c:	000129a0 	.word	0x000129a0
    2a70:	00012a30 	.word	0x00012a30
    2a74:	00012c84 	.word	0x00012c84
    2a78:	0001297c 	.word	0x0001297c
    2a7c:	00012a48 	.word	0x00012a48
    2a80:	00012c1c 	.word	0x00012c1c
    2a84:	00012914 	.word	0x00012914
    2a88:	00012afc 	.word	0x00012afc
    2a8c:	00012bf8 	.word	0x00012bf8
    2a90:	000128f0 	.word	0x000128f0
    2a94:	00012b14 	.word	0x00012b14
    2a98:	00012bd4 	.word	0x00012bd4
    2a9c:	000128cc 	.word	0x000128cc
    2aa0:	00012b10 	.word	0x00012b10
    2aa4:	00012b68 	.word	0x00012b68
    2aa8:	00012860 	.word	0x00012860
    2aac:	00012ac4 	.word	0x00012ac4

00002ab0 <bpool>:
bpool():
/optee/optee_os/lib/libutils/isoc/bget.c:1101
    2ab0:	e96d 7e02 	strd	r7, lr, [sp, #-8]!
    2ab4:	b086      	sub	sp, #24
    2ab6:	af00      	add	r7, sp, #0
    2ab8:	60f8      	str	r0, [r7, #12]
    2aba:	60b9      	str	r1, [r7, #8]
    2abc:	607a      	str	r2, [r7, #4]
/optee/optee_os/lib/libutils/isoc/bget.c:1102
    2abe:	68fb      	ldr	r3, [r7, #12]
    2ac0:	617b      	str	r3, [r7, #20]
/optee/optee_os/lib/libutils/isoc/bget.c:1106
    2ac2:	68bb      	ldr	r3, [r7, #8]
    2ac4:	f023 0307 	bic.w	r3, r3, #7
    2ac8:	60bb      	str	r3, [r7, #8]
/optee/optee_os/lib/libutils/isoc/bget.c:1125
    2aca:	68bb      	ldr	r3, [r7, #8]
    2acc:	f1a3 0308 	sub.w	r3, r3, #8
    2ad0:	2b00      	cmp	r3, #0
    2ad2:	da0b      	bge.n	2aec <bpool+0x3c>
/optee/optee_os/lib/libutils/isoc/bget.c:1125 (discriminator 1)
    2ad4:	4b2c      	ldr	r3, [pc, #176]	; (2b88 <bpool+0xd8>)
    2ad6:	447b      	add	r3, pc
    2ad8:	f240 4265 	movw	r2, #1125	; 0x465
    2adc:	492b      	ldr	r1, [pc, #172]	; (2b8c <bpool+0xdc>)
    2ade:	4479      	add	r1, pc
    2ae0:	482b      	ldr	r0, [pc, #172]	; (2b90 <bpool+0xe0>)
    2ae2:	4478      	add	r0, pc
    2ae4:	f002 f964 	bl	4db0 <_assert_log>
    2ae8:	f002 f986 	bl	4df8 <_assert_break>
/optee/optee_os/lib/libutils/isoc/bget.c:1131
    2aec:	697b      	ldr	r3, [r7, #20]
    2aee:	f04f 0200 	mov.w	r2, #0
    2af2:	601a      	str	r2, [r3, #0]
/optee/optee_os/lib/libutils/isoc/bget.c:1135
    2af4:	687b      	ldr	r3, [r7, #4]
    2af6:	68db      	ldr	r3, [r3, #12]
    2af8:	689a      	ldr	r2, [r3, #8]
    2afa:	687b      	ldr	r3, [r7, #4]
    2afc:	429a      	cmp	r2, r3
    2afe:	d00b      	beq.n	2b18 <bpool+0x68>
/optee/optee_os/lib/libutils/isoc/bget.c:1135 (discriminator 1)
    2b00:	4b24      	ldr	r3, [pc, #144]	; (2b94 <bpool+0xe4>)
    2b02:	447b      	add	r3, pc
    2b04:	f240 426f 	movw	r2, #1135	; 0x46f
    2b08:	4923      	ldr	r1, [pc, #140]	; (2b98 <bpool+0xe8>)
    2b0a:	4479      	add	r1, pc
    2b0c:	4823      	ldr	r0, [pc, #140]	; (2b9c <bpool+0xec>)
    2b0e:	4478      	add	r0, pc
    2b10:	f002 f94e 	bl	4db0 <_assert_log>
    2b14:	f002 f970 	bl	4df8 <_assert_break>
/optee/optee_os/lib/libutils/isoc/bget.c:1136
    2b18:	687b      	ldr	r3, [r7, #4]
    2b1a:	689b      	ldr	r3, [r3, #8]
    2b1c:	68da      	ldr	r2, [r3, #12]
    2b1e:	687b      	ldr	r3, [r7, #4]
    2b20:	429a      	cmp	r2, r3
    2b22:	d00b      	beq.n	2b3c <bpool+0x8c>
/optee/optee_os/lib/libutils/isoc/bget.c:1136 (discriminator 1)
    2b24:	4b1e      	ldr	r3, [pc, #120]	; (2ba0 <bpool+0xf0>)
    2b26:	447b      	add	r3, pc
    2b28:	f44f 628e 	mov.w	r2, #1136	; 0x470
    2b2c:	491d      	ldr	r1, [pc, #116]	; (2ba4 <bpool+0xf4>)
    2b2e:	4479      	add	r1, pc
    2b30:	481d      	ldr	r0, [pc, #116]	; (2ba8 <bpool+0xf8>)
    2b32:	4478      	add	r0, pc
    2b34:	f002 f93c 	bl	4db0 <_assert_log>
    2b38:	f002 f95e 	bl	4df8 <_assert_break>
/optee/optee_os/lib/libutils/isoc/bget.c:1137
    2b3c:	687a      	ldr	r2, [r7, #4]
    2b3e:	697b      	ldr	r3, [r7, #20]
    2b40:	609a      	str	r2, [r3, #8]
/optee/optee_os/lib/libutils/isoc/bget.c:1138
    2b42:	687b      	ldr	r3, [r7, #4]
    2b44:	68da      	ldr	r2, [r3, #12]
    2b46:	697b      	ldr	r3, [r7, #20]
    2b48:	60da      	str	r2, [r3, #12]
/optee/optee_os/lib/libutils/isoc/bget.c:1139
    2b4a:	687b      	ldr	r3, [r7, #4]
    2b4c:	697a      	ldr	r2, [r7, #20]
    2b4e:	60da      	str	r2, [r3, #12]
/optee/optee_os/lib/libutils/isoc/bget.c:1140
    2b50:	697b      	ldr	r3, [r7, #20]
    2b52:	68db      	ldr	r3, [r3, #12]
    2b54:	697a      	ldr	r2, [r7, #20]
    2b56:	609a      	str	r2, [r3, #8]
/optee/optee_os/lib/libutils/isoc/bget.c:1150
    2b58:	68bb      	ldr	r3, [r7, #8]
    2b5a:	f1a3 0308 	sub.w	r3, r3, #8
    2b5e:	60bb      	str	r3, [r7, #8]
/optee/optee_os/lib/libutils/isoc/bget.c:1151
    2b60:	697b      	ldr	r3, [r7, #20]
    2b62:	68ba      	ldr	r2, [r7, #8]
    2b64:	605a      	str	r2, [r3, #4]
/optee/optee_os/lib/libutils/isoc/bget.c:1156
    2b66:	68bb      	ldr	r3, [r7, #8]
    2b68:	697a      	ldr	r2, [r7, #20]
    2b6a:	4413      	add	r3, r2
    2b6c:	613b      	str	r3, [r7, #16]
/optee/optee_os/lib/libutils/isoc/bget.c:1157
    2b6e:	693b      	ldr	r3, [r7, #16]
    2b70:	68ba      	ldr	r2, [r7, #8]
    2b72:	601a      	str	r2, [r3, #0]
/optee/optee_os/lib/libutils/isoc/bget.c:1160
    2b74:	693b      	ldr	r3, [r7, #16]
    2b76:	f04f 4200 	mov.w	r2, #2147483648	; 0x80000000
    2b7a:	605a      	str	r2, [r3, #4]
/optee/optee_os/lib/libutils/isoc/bget.c:1161
    2b7c:	bf00      	nop
    2b7e:	f107 0718 	add.w	r7, r7, #24
    2b82:	46bd      	mov	sp, r7
    2b84:	bd80      	pop	{r7, pc}
    2b86:	bf00      	nop
    2b88:	00012a8a 	.word	0x00012a8a
    2b8c:	0001277a 	.word	0x0001277a
    2b90:	000129f2 	.word	0x000129f2
    2b94:	00012a5e 	.word	0x00012a5e
    2b98:	0001274e 	.word	0x0001274e
    2b9c:	000127de 	.word	0x000127de
    2ba0:	00012a3a 	.word	0x00012a3a
    2ba4:	0001272a 	.word	0x0001272a
    2ba8:	000127f6 	.word	0x000127f6

00002bac <bstats>:
bstats():
/optee/optee_os/lib/libutils/isoc/bget.c:1171
    2bac:	e96d 7e02 	strd	r7, lr, [sp, #-8]!
    2bb0:	b086      	sub	sp, #24
    2bb2:	af00      	add	r7, sp, #0
    2bb4:	60f8      	str	r0, [r7, #12]
    2bb6:	60b9      	str	r1, [r7, #8]
    2bb8:	607a      	str	r2, [r7, #4]
    2bba:	603b      	str	r3, [r7, #0]
/optee/optee_os/lib/libutils/isoc/bget.c:1172
    2bbc:	6a7b      	ldr	r3, [r7, #36]	; 0x24
    2bbe:	689b      	ldr	r3, [r3, #8]
    2bc0:	617b      	str	r3, [r7, #20]
/optee/optee_os/lib/libutils/isoc/bget.c:1174
    2bc2:	6a7b      	ldr	r3, [r7, #36]	; 0x24
    2bc4:	695a      	ldr	r2, [r3, #20]
    2bc6:	683b      	ldr	r3, [r7, #0]
    2bc8:	601a      	str	r2, [r3, #0]
/optee/optee_os/lib/libutils/isoc/bget.c:1175
    2bca:	6a7b      	ldr	r3, [r7, #36]	; 0x24
    2bcc:	699a      	ldr	r2, [r3, #24]
    2bce:	6a3b      	ldr	r3, [r7, #32]
    2bd0:	601a      	str	r2, [r3, #0]
/optee/optee_os/lib/libutils/isoc/bget.c:1176
    2bd2:	6a7b      	ldr	r3, [r7, #36]	; 0x24
    2bd4:	691a      	ldr	r2, [r3, #16]
    2bd6:	68fb      	ldr	r3, [r7, #12]
    2bd8:	601a      	str	r2, [r3, #0]
/optee/optee_os/lib/libutils/isoc/bget.c:1177
    2bda:	68bb      	ldr	r3, [r7, #8]
    2bdc:	f04f 0200 	mov.w	r2, #0
    2be0:	601a      	str	r2, [r3, #0]
/optee/optee_os/lib/libutils/isoc/bget.c:1178
    2be2:	687b      	ldr	r3, [r7, #4]
    2be4:	f04f 32ff 	mov.w	r2, #4294967295	; 0xffffffff
    2be8:	601a      	str	r2, [r3, #0]
/optee/optee_os/lib/libutils/isoc/bget.c:1179
    2bea:	e023      	b.n	2c34 <bstats+0x88>
/optee/optee_os/lib/libutils/isoc/bget.c:1180
    2bec:	697b      	ldr	r3, [r7, #20]
    2bee:	685b      	ldr	r3, [r3, #4]
    2bf0:	2b00      	cmp	r3, #0
    2bf2:	dc0b      	bgt.n	2c0c <bstats+0x60>
/optee/optee_os/lib/libutils/isoc/bget.c:1180 (discriminator 1)
    2bf4:	4b14      	ldr	r3, [pc, #80]	; (2c48 <bstats+0x9c>)
    2bf6:	447b      	add	r3, pc
    2bf8:	f240 429c 	movw	r2, #1180	; 0x49c
    2bfc:	4913      	ldr	r1, [pc, #76]	; (2c4c <bstats+0xa0>)
    2bfe:	4479      	add	r1, pc
    2c00:	4813      	ldr	r0, [pc, #76]	; (2c50 <bstats+0xa4>)
    2c02:	4478      	add	r0, pc
    2c04:	f002 f8d4 	bl	4db0 <_assert_log>
    2c08:	f002 f8f6 	bl	4df8 <_assert_break>
/optee/optee_os/lib/libutils/isoc/bget.c:1181
    2c0c:	68bb      	ldr	r3, [r7, #8]
    2c0e:	681a      	ldr	r2, [r3, #0]
    2c10:	697b      	ldr	r3, [r7, #20]
    2c12:	685b      	ldr	r3, [r3, #4]
    2c14:	441a      	add	r2, r3
    2c16:	68bb      	ldr	r3, [r7, #8]
    2c18:	601a      	str	r2, [r3, #0]
/optee/optee_os/lib/libutils/isoc/bget.c:1182
    2c1a:	697b      	ldr	r3, [r7, #20]
    2c1c:	685a      	ldr	r2, [r3, #4]
    2c1e:	687b      	ldr	r3, [r7, #4]
    2c20:	681b      	ldr	r3, [r3, #0]
    2c22:	429a      	cmp	r2, r3
    2c24:	dd03      	ble.n	2c2e <bstats+0x82>
/optee/optee_os/lib/libutils/isoc/bget.c:1183
    2c26:	697b      	ldr	r3, [r7, #20]
    2c28:	685a      	ldr	r2, [r3, #4]
    2c2a:	687b      	ldr	r3, [r7, #4]
    2c2c:	601a      	str	r2, [r3, #0]
/optee/optee_os/lib/libutils/isoc/bget.c:1185
    2c2e:	697b      	ldr	r3, [r7, #20]
    2c30:	689b      	ldr	r3, [r3, #8]
    2c32:	617b      	str	r3, [r7, #20]
/optee/optee_os/lib/libutils/isoc/bget.c:1179
    2c34:	6a7b      	ldr	r3, [r7, #36]	; 0x24
    2c36:	697a      	ldr	r2, [r7, #20]
    2c38:	429a      	cmp	r2, r3
    2c3a:	d1d7      	bne.n	2bec <bstats+0x40>
/optee/optee_os/lib/libutils/isoc/bget.c:1187
    2c3c:	bf00      	nop
    2c3e:	bf00      	nop
    2c40:	f107 0718 	add.w	r7, r7, #24
    2c44:	46bd      	mov	sp, r7
    2c46:	bd80      	pop	{r7, pc}
    2c48:	00012972 	.word	0x00012972
    2c4c:	0001265a 	.word	0x0001265a
    2c50:	0001290a 	.word	0x0001290a

00002c54 <malloc_lock>:
malloc_lock():
/optee/optee_os/lib/libutils/isoc/bget_malloc.c:176
    2c54:	f84d 7d04 	str.w	r7, [sp, #-4]!
    2c58:	b083      	sub	sp, #12
    2c5a:	af00      	add	r7, sp, #0
    2c5c:	6078      	str	r0, [r7, #4]
/optee/optee_os/lib/libutils/isoc/bget_malloc.c:177
    2c5e:	f04f 0300 	mov.w	r3, #0
/optee/optee_os/lib/libutils/isoc/bget_malloc.c:178
    2c62:	4618      	mov	r0, r3
    2c64:	f107 070c 	add.w	r7, r7, #12
    2c68:	46bd      	mov	sp, r7
    2c6a:	f85d 7b04 	ldr.w	r7, [sp], #4
    2c6e:	4770      	bx	lr

00002c70 <malloc_unlock>:
malloc_unlock():
/optee/optee_os/lib/libutils/isoc/bget_malloc.c:182
