
d3bc8433-2eb5-4c00-a005-3f87c1d3b405.elf:     file format elf32-littlearm
d3bc8433-2eb5-4c00-a005-3f87c1d3b405.elf
architecture: armv7, flags 0x00000150:
HAS_SYMS, DYNAMIC, D_PAGED
start address 0x0000254c

Program Header:
0x70000001 off    0x0001870c vaddr 0x0001770c paddr 0x0001770c align 2**2
         filesz 0x00000b60 memsz 0x00000b60 flags r--
    LOAD off    0x00001000 vaddr 0x00000000 paddr 0x00000000 align 2**12
         filesz 0x00018328 memsz 0x00018328 flags r-x
    LOAD off    0x0001a000 vaddr 0x00019000 paddr 0x00019000 align 2**12
         filesz 0x0000070c memsz 0x0000b770 flags rw-
 DYNAMIC off    0x0001a000 vaddr 0x00019000 paddr 0x00019000 align 2**2
         filesz 0x00000088 memsz 0x00000088 flags rw-
   STACK off    0x00000000 vaddr 0x00000000 paddr 0x00000000 align 2**4
         filesz 0x00000000 memsz 0x00000000 flags rwx

Dynamic Section:
  HASH                 0x000182fc
  GNU_HASH             0x00016728
  STRTAB               0x000182cc
  SYMTAB               0x0001826c
  STRSZ                0x0000002e
  SYMENT               0x00000010
  DEBUG                0x00000000
  REL                  0x000190dc
  RELSZ                0x00000128
  RELENT               0x00000008
  FLAGS_1              0x08000000
  RELCOUNT             0x00000013
private flags = 5000400: [Version5 EABI] [hard-float ABI]

Sections:
Idx Name          Size      VMA       LMA       File off  Algn
  0 .ta_head      00000020  00000000  00000000  00001000  2**3
                  CONTENTS, ALLOC, LOAD, READONLY, DATA
  1 .text         00014ef8  00000020  00000020  00001020  2**2
                  CONTENTS, ALLOC, LOAD, READONLY, CODE
  2 .rodata       0000180e  00014f18  00014f18  00015f18  2**2
                  CONTENTS, ALLOC, LOAD, READONLY, DATA
  3 .gnu.hash     0000002c  00016728  00016728  00017728  2**2
                  CONTENTS, ALLOC, LOAD, READONLY, DATA
  4 .ARM.extab    00000fb8  00016754  00016754  00017754  2**2
                  CONTENTS, ALLOC, LOAD, READONLY, DATA
  5 .ARM.exidx    00000b60  0001770c  0001770c  0001870c  2**2
                  CONTENTS, ALLOC, LOAD, READONLY, DATA
  6 .dynsym       00000060  0001826c  0001826c  0001926c  2**2
                  CONTENTS, ALLOC, LOAD, READONLY, DATA
  7 .dynstr       0000002e  000182cc  000182cc  000192cc  2**0
                  CONTENTS, ALLOC, LOAD, READONLY, DATA
  8 .hash         0000002c  000182fc  000182fc  000192fc  2**2
                  CONTENTS, ALLOC, LOAD, READONLY, DATA
  9 .dynamic      00000088  00019000  00019000  0001a000  2**2
                  CONTENTS, ALLOC, LOAD, DATA
 10 .got          00000054  00019088  00019088  0001a088  2**2
                  CONTENTS, ALLOC, LOAD, DATA
 11 .rel.got      00000090  00019174  00019174  0001a174  2**2
                  CONTENTS, ALLOC, LOAD, READONLY, DATA
 12 .data         00000508  00019204  00019204  0001a204  2**2
                  CONTENTS, ALLOC, LOAD, DATA
 13 .bss          0000b064  0001970c  0001970c  0001a70c  2**2
                  ALLOC
 14 .debug_info   0000d879  00000000  00000000  0001a70c  2**0
                  CONTENTS, READONLY, DEBUGGING, OCTETS
 15 .debug_abbrev 00002c17  00000000  00000000  00027f85  2**0
                  CONTENTS, READONLY, DEBUGGING, OCTETS
 16 .debug_aranges 000005e8  00000000  00000000  0002aba0  2**3
                  CONTENTS, READONLY, DEBUGGING, OCTETS
 17 .debug_macro  000199a8  00000000  00000000  0002b188  2**0
                  CONTENTS, READONLY, DEBUGGING, OCTETS
 18 .debug_line   0000ac18  00000000  00000000  00044b30  2**0
                  CONTENTS, READONLY, DEBUGGING, OCTETS
 19 .debug_str    00017f2b  00000000  00000000  0004f748  2**0
                  CONTENTS, READONLY, DEBUGGING, OCTETS
 20 .comment      0000005d  00000000  00000000  00067673  2**0
                  CONTENTS, READONLY
 21 .ARM.attributes 00000033  00000000  00000000  000676d0  2**0
                  CONTENTS, READONLY
 22 .debug_frame  000039c4  00000000  00000000  00067704  2**2
                  CONTENTS, READONLY, DEBUGGING, OCTETS
 23 .rel.dyn      00000098  000190dc  000190dc  0001a0dc  2**2
                  CONTENTS, ALLOC, LOAD, READONLY, DATA
 24 .debug_ranges 00000228  00000000  00000000  0006b0c8  2**3
                  CONTENTS, READONLY, DEBUGGING, OCTETS
SYMBOL TABLE:
00000000 l    d  .ta_head	00000000 .ta_head
00000020 l    d  .text	00000000 .text
00014f18 l    d  .rodata	00000000 .rodata
00016728 l    d  .gnu.hash	00000000 .gnu.hash
00016754 l    d  .ARM.extab	00000000 .ARM.extab
0001770c l    d  .ARM.exidx	00000000 .ARM.exidx
0001826c l    d  .dynsym	00000000 .dynsym
000182cc l    d  .dynstr	00000000 .dynstr
000182fc l    d  .hash	00000000 .hash
00019000 l    d  .dynamic	00000000 .dynamic
00019088 l    d  .got	00000000 .got
00019174 l    d  .rel.got	00000000 .rel.got
00019204 l    d  .data	00000000 .data
0001970c l    d  .bss	00000000 .bss
00000000 l    d  .debug_info	00000000 .debug_info
00000000 l    d  .debug_abbrev	00000000 .debug_abbrev
00000000 l    d  .debug_aranges	00000000 .debug_aranges
00000000 l    d  .debug_macro	00000000 .debug_macro
00000000 l    d  .debug_line	00000000 .debug_line
00000000 l    d  .debug_str	00000000 .debug_str
00000000 l    d  .comment	00000000 .comment
00000000 l    d  .ARM.attributes	00000000 .ARM.attributes
00000000 l    d  .debug_frame	00000000 .debug_frame
000190dc l    d  .rel.dyn	00000000 .rel.dyn
00000000 l    d  .debug_ranges	00000000 .debug_ranges
00000000 l    df *ABS*	00000000 user_ta_header.c
00015620 l     O .rodata	00000001 __compound_literal.0
00015621 l     O .rodata	00000001 __compound_literal.1
00015622 l     O .rodata	00000001 __compound_literal.2
00015624 l     O .rodata	00000004 __compound_literal.3
00015628 l     O .rodata	00000004 __compound_literal.4
00000000 l    df *ABS*	00000000 ta1.c
00014f18 l     O .rodata	00000010 pta_attestation_uuid
00019720 l     O .bss	00000004 connections_head
00000200 l     F .text	00000094 ta2tee_algo_id
00015524 l     O .rodata	0000000f __func__.12
00000294 l     F .text	00000058 ta2tee_key_size
00015534 l     O .rodata	00000010 __func__.11
000002ec l     F .text	0000006c ta2tee_mode_id
00015544 l     O .rodata	0000000f __func__.10
00000358 l     F .text	00000240 alloc_resources
00015554 l     O .rodata	00000010 __func__.9
00000598 l     F .text	0000016c set_aes_key
00015564 l     O .rodata	0000000c __func__.8
00000704 l     F .text	00000110 reset_aes_iv
00015570 l     O .rodata	0000000d __func__.7
00000814 l     F .text	000002bc set_key
00015580 l     O .rodata	00000008 __func__.6
00000ad0 l     F .text	000002c8 attest
00015588 l     O .rodata	00000007 __func__.5
00015590 l     O .rodata	00000014 __func__.4
000155a4 l     O .rodata	00000015 __func__.3
000155bc l     O .rodata	00000019 __func__.2
000155d8 l     O .rodata	0000001a __func__.1
000155f4 l     O .rodata	0000001b __func__.0
00000000 l    df *ABS*	00000000 spongent.c
00000000 l    df *ABS*	00000000 ./ta_entry_a32.o
00000000 l    df *ABS*	00000000 bget_malloc.c
00002550 l     F .text	0000001a tag_asan_free
0000256a l     F .text	0000001a tag_asan_alloced
00002584 l     F .text	00000024 memset_unchecked
000025a8 l     F .text	00000024 memcpy_unchecked
000025cc l     F .text	00000090 buf_get_pos
000159d4 l     O .rodata	00000005 __func__.8
000159dc l     O .rodata	00000006 __func__.7
000159e4 l     O .rodata	00000006 __func__.6
000159ec l     O .rodata	00000005 __func__.5
000159f4 l     O .rodata	00000006 __func__.4
000159fc l     O .rodata	00000007 __func__.3
00003034 l     F .text	0000001c malloc_lock
00003050 l     F .text	0000001a malloc_unlock
0001969c l     O .data	0000005c malloc_ctx
0000306a l     F .text	0000001a print_oom
00003084 l     F .text	00000064 raw_malloc_return_hook
000030e8 l     F .text	00000044 gen_malloc_reset_stats
00003148 l     F .text	00000042 gen_malloc_get_stats
000031b0 l     F .text	00000018 raw_malloc_validate_pools
000031c8 l     F .text	0000002c bpool_foreach_iterator_init
000031f4 l     F .text	000000d8 bpool_foreach_pool
00015a04 l     O .rodata	00000013 __func__.2
000032cc l     F .text	00000076 bpool_foreach
00003342 l     F .text	0000009c raw_memalign
000033de l     F .text	0000002e raw_malloc
0000340c l     F .text	00000032 raw_free
0000343e l     F .text	000000ca raw_calloc
00003508 l     F .text	000000ac raw_realloc
000035b4 l     F .text	0000005c bget_buf_size
00015a18 l     O .rodata	0000000e __func__.1
00003660 l     F .text	0000004c free_helper
00003700 l     F .text	0000002e realloc_unlocked
000037d0 l     F .text	00000026 get_payload_start_size
00003832 l     F .text	00000122 gen_malloc_add_pool
00015a28 l     O .rodata	00000014 __func__.0
00003954 l     F .text	000000a8 gen_malloc_buffer_is_within_alloced
000039fc l     F .text	000000ba gen_malloc_buffer_overlaps_heap
00000000 l    df *ABS*	00000000 trace.c
00003ba4 l     F .text	00000054 trace_level_to_string
00015a60 l     O .rodata	00000005 lvl_strs.0
00003bf8 l     F .text	00000060 print_thread_id
00003c58 l     F .text	0000001e print_core_id
00000000 l    df *ABS*	00000000 snprintk.c
00015a68 l     O .rodata	00000011 hexdigits
00015a7c l     O .rodata	00000011 HEXDIGITS
00004180 l     F .text	00000fe0 kprintf
000040e2 l     F .text	0000009e uuid2str
00000000 l    df *ABS*	00000000 arm32_aeabi_ldivmod_a32.o
00000000 l    df *ABS*	00000000 assert.c
00000000 l    df *ABS*	00000000 trace_ext.c
00000000 l    df *ABS*	00000000 tee_api.c
00021724 l     O .bss	00000004 tee_api_instance_data
00005308 l     F .text	000002fe copy_param
00005606 l     F .text	00000110 update_out_param
00015b28 l     O .rodata	0000000b __func__.0
00000000 l    df *ABS*	00000000 tee_api_operations.c
00005d50 l     F .text	0000006e __tee_alg_get_class
00005dbe l     F .text	00000046 __tee_alg_get_main_alg
00005e04 l     F .text	00000036 __tee_alg_get_key_type
00005e3a l     F .text	0000022e __tee_alg_get_digest_size
00007628 l     F .text	00000048 init_hash_operation
00007822 l     F .text	00000330 tee_buffer_update
00000000 l    df *ABS*	00000000 tee_api_panic.c
00009836 l     F .text	00000024 check_res
0000985a l     F .text	00000040 check_access
00000000 l    df *ABS*	00000000 tee_system_pta.c
00009a38 l     F .text	00000064 reg_pair_to_64
00009a9c l     F .text	0000003a reg_pair_from_64
00009ad6 l     F .text	0000007e invoke_system_pta
00021728 l     O .bss	00000004 sess.3
00015bf4 l     O .rodata	00000010 uuid.2
00015c04 l     O .rodata	0000000a __func__.1
00015c10 l     O .rodata	00000017 __func__.0
00000000 l    df *ABS*	00000000 utee_syscalls_a32.o
00000000 l    df *ABS*	00000000 user_ta_entry.c
0000a218 l     F .text	00000010 __utee_gprof_init
0000a228 l     F .text	00000010 __utee_gprof_fini
000196f8 l     O .data	00000008 ta_sessions
0002175c l     O .bss	00000001 init_done
00019700 l     O .data	00000008 __phdr_info_head
00021760 l     O .bss	00000004 _num_mod_init
0000a238 l     F .text	000000cc _init_iterate_phdr_cb
00015c44 l     O .rodata	00000016 __func__.0
0000a304 l     F .text	000000fc _get_fn_array
0000a54c l     F .text	00000074 _fini_iterate_phdr_cb
0000a5e0 l     F .text	0000005c init_instance
0000a63c l     F .text	00000018 uninit_instance
0000a654 l     F .text	00000058 ta_header_save_params
0000a6ac l     F .text	00000044 ta_header_get_session
0000a6f0 l     F .text	000000c0 ta_header_add_session
0000a7b0 l     F .text	000000d4 ta_header_remove_session
0000a884 l     F .text	00000182 to_utee_params
0000aa06 l     F .text	000000e2 from_utee_params
0000aae8 l     F .text	0000008e entry_open_session
0000ab76 l     F .text	00000040 entry_close_session
0000abb6 l     F .text	00000070 entry_invoke_command
00000000 l    df *ABS*	00000000 abort.c
00000000 l    df *ABS*	00000000 tee_api_arith_mpi.c
0000acbc l     F .text	00000030 api_panic
0000acec l     F .text	00000030 mpi_panic
00021764 l     O .bss	00003000 data.17
00015d28 l     O .rodata	00000012 __func__.16
0000ad84 l     F .text	00000090 copy_mpi_to_bigint
0000ae14 l     F .text	000000a0 get_mpi
00015d3c l     O .rodata	00000008 __func__.15
00015d44 l     O .rodata	0000000f __func__.14
00015d54 l     O .rodata	0000001f __func__.13
00015d74 l     O .rodata	00000019 __func__.12
00015d90 l     O .rodata	00000015 __func__.11
0000b43e l     F .text	000000fe bigint_binary
00015da8 l     O .rodata	0000000e __func__.10
0000b53c l     F .text	00000184 bigint_binary_mod
00015db8 l     O .rodata	00000012 __func__.9
00015dcc l     O .rodata	0000000e __func__.8
00015ddc l     O .rodata	0000000e __func__.7
00015dec l     O .rodata	0000000e __func__.6
00015dfc l     O .rodata	00000011 __func__.5
00015e10 l     O .rodata	00000018 __func__.4
0000bd50 l     F .text	0000002a mpi_is_odd
0000bd7a l     F .text	00000032 mpi_is_even
0000bdac l     F .text	00000794 mpi_egcd
00015e28 l     O .rodata	00000009 __func__.3
00015e34 l     O .rodata	0000001d __func__.2
0000c7d0 l     F .text	00000030 rng_read
00015e54 l     O .rodata	00000019 __func__.1
00015e70 l     O .rodata	00000015 __func__.0
00000000 l    df *ABS*	00000000 tcb.c
00024764 l     O .bss	00000004 _tcb
00024768 l     O .bss	00000004 _tls_size
00015f24 l     O .rodata	00000010 __func__.1
00015f34 l     O .rodata	00000010 __func__.0
00000000 l    df *ABS*	00000000 bignum.c
0000ceec l     F .text	00000024 mbedtls_mpi_zeroize
0000cf10 l     F .text	0000003a mpi_init
0000d830 l     F .text	0000004e mbedtls_clz
0000d91a l     F .text	00000082 mpi_get_digit
0000dbae l     F .text	000000da mpi_write_hlp
0000de80 l     F .text	0000005a mpi_uint_bigendian_to_host_c
0000deda l     F .text	0000001c mpi_uint_bigendian_to_host
0000def6 l     F .text	00000072 mpi_bigendian_to_host
0000e838 l     F .text	00000052 ct_lt_mpi_uint
0000eba0 l     F .text	000000c8 mpi_sub_hlp
0000ef3c l     F .text	00001a1e mpi_mul_hlp
00010b2a l     F .text	000000d6 mbedtls_int_div_int
00015f58 l     O .rodata	000002a0 small_prime
000124f8 l     F .text	000000a8 mpi_check_small_factors
000125a0 l     F .text	000002d2 mpi_miller_rabin
000161f8 l     O .rodata	00000024 gcd_pairs
00000000 l    df *ABS*	00000000 platform_util.c
00019708 l     O .data	00000004 memset_func
00000000 l    df *ABS*	00000000 mempool.c
000131a8 l     F .text	00000018 get_pool
000131c0 l     F .text	00000018 put_pool
00016704 l     O .rodata	00000013 __func__.1
00016718 l     O .rodata	0000000e __func__.0
00000000 l    df *ABS*	00000000 memcmp.c
00000000 l    df *ABS*	00000000 memcpy.c
00000000 l    df *ABS*	00000000 memset.c
00000000 l    df *ABS*	00000000 aeabi_unwind.c
00000000 l    df *ABS*	00000000 memchr.c
00000000 l    df *ABS*	00000000 strlen.c
00000000 l    df *ABS*	00000000 arm32_aeabi_ldivmod.c
00013904 l     F .text	0000012a division_lqr
00013a2e l     F .text	0000007c ul_div_qr
00000000 l    df *ABS*	00000000 tee_api_objects.c
00000000 l    df *ABS*	00000000 snprintf.c
00000000 l    df *ABS*	00000000 memmove.c
00000000 l    df *ABS*	00000000 consttime_memcmp.c
00000000 l    df *ABS*	00000000 
00019000 l     O *ABS*	00000000 _DYNAMIC
00019088 l     O *ABS*	00000000 _GLOBAL_OFFSET_TABLE_
000052d0 g     F .text	00000038 putchar
00001410 g     F .text	00000040 entry
000141d6 g     F .text	00000164 TEE_PopulateTransientObject
0000c8d0 g     F .text	00000024 TEE_BigIntConvertToFMM
0000bb58 g     F .text	00000024 TEE_BigIntSquareMod
0000b206 g     F .text	000001ba TEE_BigIntShiftRight
00009c9c g     F .text	000000cc tee_invoke_supp_plugin
0000d030 g     F .text	00000108 mbedtls_mpi_grow
00013b0c g     F .text	000000e0 __l_divmod
00007670 g     F .text	0000005c TEE_DigestUpdate
00005ca8 g     F .text	00000020 TEE_Realloc
000072b2 g     F .text	00000232 TEE_SetOperationKey2
00009a04 g     F .text	00000034 __utee_check_inout_annotation
00005224 g     F .text	00000074 printf
0001433a g     F .text	00000048 TEE_InitRefAttribute
00009d90 g     F .text	00000014 _utee_log
00005834 g     F .text	00000126 TEE_InvokeTACommand
0000989a g     F .text	0000005a __utee_check_outbuf_annotation
0000cf68 g     F .text	0000003c mbedtls_mpi_init_mempool
0000a02c g     F .text	00000014 _utee_cryp_random_number_generate
0000e1c8 g     F .text	000000e4 mbedtls_mpi_write_binary
00008590 g     F .text	00000224 TEE_AEEncryptFinal
000017be g     F .text	000000c0 retnuoCl
0000400e g     F .text	0000002e vsnprintk
0000eeec g     F .text	00000050 mbedtls_mpi_sub_int
00001ad4 g     F .text	0000004e Init
00014d26 g     F .text	0000013e memmove
00014cbc g     F .text	0000003c snprintf
0000b1ca g     F .text	0000003c TEE_BigIntCmpS32
00014382 g     F .text	00000048 TEE_InitValueAttribute
0000d138 g     F .text	00000154 mbedtls_mpi_shrink
00013736 g     F .text	00000010 __aeabi_unwind_cpp_pr0
0000b6c0 g     F .text	00000034 TEE_BigIntAdd
0000016c g     F .text	00000094 find_connections
000016be g     F .text	00000046 copy_n
00009f8c g     F .text	00000014 _utee_cryp_obj_restrict_usage
0001561c g     O .rodata	00000004 ta_heap_size
00014176 g     F .text	00000060 TEE_ResetTransientObject
0000a0b4 g     F .text	00000018 _utee_asymm_operate
0000d99c g     F .text	00000212 mbedtls_mpi_read_string
0000778a g     F .text	00000098 TEE_CipherInit
0000b728 g     F .text	000000b0 TEE_BigIntNeg
0000a150 g     F .text	00000014 _utee_storage_free_enum
00000020 g       .text	00000000 __text_start
00014930 g     F .text	0000005a TEE_StartPersistentObjectEnumerator
0000e42e g     F .text	0000016a mbedtls_mpi_shift_r
00003b0c g     F .text	0000002c malloc_buffer_overlaps_heap
00009ef4 g     F .text	00000014 _utee_hash_init
0000bae8 g     F .text	00000038 TEE_BigIntSubMod
000013cc g     F .text	00000044 output
00012946 g     F .text	00000314 mbedtls_mpi_gen_prime
0000d69a g     F .text	0000004e mbedtls_mpi_get_bit
0000e032 g     F .text	000000c0 mbedtls_mpi_read_binary
00008282 g     F .text	000000ee TEE_AEInit
00003c76 g     F .text	00000036 trace_printf
000114be g     F .text	00000130 mbedtls_mpi_montmul
0000a204 g     F .text	00000014 _utee_cache_operation
00013528 g     F .text	000000f2 memcpy
0000c8f4 g     F .text	0000009c TEE_BigIntConvertFromFMM
0001970c g     O .bss	00000004 total_node
0000981c g     F .text	0000001a TEE_Panic
00001ec0 g     F .text	000005d8 SpongentWrap
00005178 g     F .text	00000018 __aeabi_uldivmod
000074e4 g     F .text	00000144 TEE_CopyOperation
00005298 g     F .text	00000038 puts
0000c990 g     F .text	00000110 TEE_BigIntComputeFMM
0000318a g     F .text	00000026 malloc_get_stats
00005c14 g     F .text	0000002c TEE_GetREETime
00014872 g     F .text	0000005a TEE_AllocatePersistentObjectEnumerator
00019648 g     O .data	00000054 ta_props
00008994 g     F .text	000001c2 TEE_AsymmetricEncrypt
000098f4 g     F .text	00000040 __utee_check_instring_annotation
00003610 g     F .text	00000050 malloc
00013438 g     F .text	00000024 __ta_entry_c
000144ce g     F .text	00000126 TEE_GenerateKey
00014cf8 g     F .text	0000002e vsnprintf
00019644 g     O .data	00000004 trace_level
0000b174 g     F .text	00000056 TEE_BigIntCmp
000156e8 g     O .rodata	00000004 ta_num_props
00002a90 g     F .text	000000c8 bgetr
0000a0e4 g     F .text	00000018 _utee_storage_obj_open
00000d98 g     F .text	00000634 handle_output
000133bc g     F .text	0000007c mempool_free
00007b52 g     F .text	000001b6 TEE_CipherUpdate
00009f08 g     F .text	00000014 _utee_hash_update
0000af9a g     F .text	00000086 TEE_BigIntConvertToOctetString
00006f1c g     F .text	000001cc TEE_GetOperationInfoMultiple
0000d87e g     F .text	00000078 mbedtls_mpi_bitlen
0000b3c0 g     F .text	00000046 TEE_BigIntGetBit
00015618 g     O .rodata	00000003 trace_ext_prefix
0000a18c g     F .text	00000014 _utee_storage_next_enum
000029e8 g     F .text	000000a8 bgetz
00005a5c g     F .text	0000001c TEE_GetInstanceData
00005b12 g     F .text	00000038 TEE_Wait
0001095a g     F .text	00000192 mbedtls_mpi_mul_mpi
00001750 g     F .text	0000006e lCounter
00013756 g     F .text	00000010 __aeabi_unwind_cpp_pr2
00005d06 g     F .text	00000024 TEE_CacheFlush
00003cac g     F .text	0000030c trace_vprintf
00001484 g     F .text	00000030 TA_DestroyEntryPoint
0000cf4a g     F .text	0000001e mbedtls_mpi_init
0000a114 g     F .text	00000014 _utee_storage_obj_del
0000d7b6 g     F .text	0000007a mbedtls_mpi_lsb
00005190 g     F .text	00000048 _assert_log
00009ecc g     F .text	00000014 _utee_cryp_state_copy
0000c8b4 g     F .text	0000001c TEE_BigIntFMMContextSizeInU32
00009bec g     F .text	000000b0 tee_unmap
000081a8 g     F .text	000000da TEE_MACCompareFinal
00001baa g     F .text	000000e8 Pad
00014802 g     F .text	00000070 TEE_RenamePersistentObject
000076cc g     F .text	000000be TEE_DigestDoFinal
0000ad1c g     F .text	00000068 _TEE_MathAPI_Init
0000caa0 g     F .text	0000030c __utee_tcb_init
0000ed44 g     F .text	000000ac mbedtls_mpi_add_mpi
0000ac9c g     F .text	00000020 abort
000019ce g     F .text	00000106 Permute
0000998c g     F .text	00000034 __utee_check_out_annotation
00019724 g     O .bss	00008000 ta_heap
0000bb7c g     F .text	0000010c TEE_BigIntInvMod
0000a400 g     F .text	0000014c __utee_call_elf_init_fn
00019204 g     O .data	00000040 S
00001550 g     F .text	0000008c TA_CloseSessionEntryPoint
00009dfc g     F .text	00000014 _utee_close_ta_session
00000048 g     F .text	0000009c connections_add
00008b56 g     F .text	000001c2 TEE_AsymmetricDecrypt
000145f4 g     F .text	000000be TEE_OpenPersistentObject
0000edf0 g     F .text	000000ac mbedtls_mpi_sub_mpi
00014e64 g     F .text	000000b4 consttime_memcmp
00009d7c g     F .text	00000014 _utee_return
00009da4 g     F .text	00000014 __utee_panic
0000cdac g     F .text	00000038 __tls_get_addr
000015dc g     F .text	000000a8 TA_InvokeCommandEntryPoint
0000a5c0 g     F .text	00000020 __utee_call_elf_fini_fn
00003814 g     F .text	0000001e free_wipe
0001324c g     F .text	000000f4 mempool_alloc
00009d68 g     F .text	00000014 _utee_panic
00013340 g     F .text	0000007c mempool_calloc
0000a1f0 g     F .text	00000014 _utee_cryp_obj_generate_key
0000a1c8 g     F .text	00000014 _utee_storage_obj_trunc
000143ca g     F .text	0000004c TEE_CopyObjectAttributes
00009e50 g     F .text	00000014 _utee_unmask_cancellation
000036ac g     F .text	00000054 calloc
00005c40 g     F .text	00000068 TEE_Malloc
000059f6 g     F .text	00000042 TEE_CheckMemoryAccessRights
00002506 g     F .text	00000046 SpongentMac
00013aaa g     F .text	00000062 __ul_divmod
00009db8 g     F .text	00000018 _utee_get_property
0000d62c g     F .text	0000006e mbedtls_mpi_lset
00014a4c g     F .text	00000092 TEE_ReadObjectData
00013ebc g     F .text	000000cc TEE_GetObjectBufferAttribute
000014b4 g     F .text	0000009c TA_OpenSessionEntryPoint
00006e64 g     F .text	0000004a TEE_FreeOperation
0000cde4 g     F .text	00000108 dl_iterate_phdr
00024770 g       .bss	00000000 __ftrace_buf_end
0002172c g     O .bss	00000004 ta_param_types
00011246 g     F .text	00000052 mbedtls_mpi_div_int
00013bec g     F .text	0000017e __utee_from_attr
00012872 g     F .text	000000ac mbedtls_mpi_is_prime_ext
0000c800 g     F .text	00000054 TEE_BigIntIsProbablePrime
00010aec g     F .text	0000003e mbedtls_mpi_mul_int
000147bc g     F .text	00000046 TEE_CloseAndDeletePersistentObject1
00011634 g     F .text	00000760 mbedtls_mpi_exp_mod
0000d3a6 g     F .text	00000114 mbedtls_mpi_safe_cond_assign
00002498 g     F .text	0000006e SpongentUnwrap
0000e88a g     F .text	0000013e mbedtls_mpi_lt_mpi_ct
000087b4 g     F .text	000001e0 TEE_AEDecryptFinal
0000aeb4 g     F .text	0000006c TEE_BigIntInit
00009934 g     F .text	00000058 __utee_check_outstring_annotation
00005a78 g     F .text	00000024 TEE_MemMove
00013178 g     F .text	00000030 mbedtls_platform_zeroize
0000af20 g     F .text	0000007a TEE_BigIntConvertFromOctetString
0000a09c g     F .text	00000018 _utee_authenc_dec_final
0000e598 g     F .text	0000012e mbedtls_mpi_cmp_abs
0000a1a0 g     F .text	00000014 _utee_storage_obj_read
00007fc0 g     F .text	00000072 TEE_MACInit
00008d18 g     F .text	000001b4 TEE_AsymmetricSignDigest
00013766 g     F .text	00000114 memchr
0000598e g     F .text	00000034 TEE_UnmaskCancellation
00013d6a g     F .text	0000006e TEE_GetObjectInfo
00012c5a g     F .text	0000051e mbedtls_mpi_self_test
00001b22 g     F .text	00000058 Absorb
000018d8 g     F .text	000000f6 pLayer
0000a1dc g     F .text	00000014 _utee_storage_obj_seek
000083ea g     F .text	000001a6 TEE_AEUpdate
00014116 g     F .text	00000060 TEE_FreeTransientObject
00009e3c g     F .text	00000014 _utee_check_access_rights
0000e9c8 g     F .text	0000004c mbedtls_mpi_cmp_int
0000a164 g     F .text	00000014 _utee_storage_reset_enum
00009248 g     F .text	00000026 rand
000099c0 g     F .text	00000044 __utee_check_attr_in_annotation
0000a06c g     F .text	00000018 _utee_authenc_update_payload
00006eae g     F .text	0000006e TEE_GetOperationInfo
0000ba44 g     F .text	0000006c TEE_BigIntMod
00011336 g     F .text	0000011a mbedtls_mpi_mod_int
0000df68 g     F .text	000000ca mbedtls_mpi_read_binary_le
0000b8d8 g     F .text	0000016c TEE_BigIntDiv
00009fb4 g     F .text	00000014 _utee_cryp_obj_alloc
00001704 g     F .text	0000004c PrintState
00024770 g       .bss	00000000 __ftrace_buf_start
0000d28c g     F .text	000000d8 mbedtls_mpi_copy
0000926e g     F .text	000005ae TEE_IsAlgorithmSupported
0000312c g     F .text	0000001c malloc_reset_stats
000040ae g     F .text	00000034 __vsprintf
00001dfc g     F .text	000000c4 Duplexing
00001b7a g     F .text	00000030 Squeeze
00009ea0 g     F .text	00000014 _utee_set_ta_time
00009e10 g     F .text	00000018 _utee_invoke_ta_command
00013e70 g     F .text	0000004c TEE_RestrictObjectUsage1
0000372e g     F .text	0000004e realloc
0000d364 g     F .text	00000042 mbedtls_mpi_swap
000131d8 g     F .text	00000074 mempool_alloc_pool
0000b7d8 g     F .text	000000e0 TEE_BigIntMul
000070e8 g     F .text	00000080 TEE_ResetOperation
0000e2ac g     F .text	00000182 mbedtls_mpi_shift_l
0000e6c6 g     F .text	00000172 mbedtls_mpi_cmp_mpi
00005ac0 g     F .text	00000026 TEE_MemFill
00013470 g     F .text	000000b8 memcmp
00003ab6 g     F .text	0000002a malloc_add_pool
00008032 g     F .text	00000082 TEE_MACUpdate
0000187e g     F .text	0000005a Pi
00003b80 g     F .text	00000024 trace_get_level
0000ea14 g     F .text	0000018c mbedtls_mpi_add_abs
00013e24 g     F .text	0000004c TEE_RestrictObjectUsage
0000c88e g     F .text	00000026 TEE_BigIntFMMSizeInU32
0000c854 g     F .text	0000001e TEE_BigIntInitFMM
0001407a g     F .text	00000032 TEE_CloseObject
00009f34 g     F .text	00000014 _utee_cipher_init
0000ac26 g     F .text	00000076 __utee_entry
00014f18 g       .text	00000000 __text_end
0000bc88 g     F .text	000000c8 TEE_BigIntRelativePrime
00011298 g     F .text	0000009e mbedtls_mpi_mod_mpi
000000e4 g     F .text	00000088 connections_get
00009f78 g     F .text	00000014 _utee_cryp_obj_get_info
00002e90 g     F .text	000000fc bpool
00009eb4 g     F .text	00000018 _utee_cryp_state_alloc
0000595a g     F .text	00000034 TEE_GetCancellationFlag
00011d94 g     F .text	000001ec mbedtls_mpi_gcd
00005bce g     F .text	00000046 TEE_SetTAPersistentTime
0000e0f2 g     F .text	000000d6 mbedtls_mpi_write_binary_le
0001361a g     F .text	0000011c memset
00005b4a g     F .text	00000084 TEE_GetTAPersistentTime
00003fb8 g     F .text	0000001e dhex_dump
000146b2 g     F .text	000000d8 TEE_CreatePersistentObject
000059c2 g     F .text	00000034 TEE_MaskCancellation
00008370 g     F .text	0000007a TEE_AEUpdateAAD
00014b5c g     F .text	0000006c TEE_TruncateObjectData
00009fa0 g     F .text	00000014 _utee_cryp_obj_get_attr
00013dd8 g     F .text	0000004c TEE_GetObjectInfo1
00009f60 g     F .text	00000018 _utee_cipher_final
00003b38 g     F .text	00000048 trace_set_level
00013f88 g     F .text	000000f2 TEE_GetObjectValueAttribute
00007168 g     F .text	0000014a TEE_SetOperationKey
00009ee0 g     F .text	00000014 _utee_cryp_state_free
00009de4 g     F .text	00000018 _utee_open_ta_session
0000b0a0 g     F .text	000000d4 TEE_BigIntConvertToS32
0000b6f4 g     F .text	00000034 TEE_BigIntSub
00001684 g     F .text	0000003a min
0001345c g     F .text	00000014 tahead_get_trace_level
0000a178 g     F .text	00000014 _utee_storage_start_enum
00014bc8 g     F .text	000000f4 TEE_SeekObjectData
00009b54 g     F .text	00000098 tee_map_zi
000115ee g     F .text	00000046 mbedtls_mpi_montred
0000377c g     F .text	00000054 memalign
00007d08 g     F .text	000002b8 TEE_CipherDoFinal
0000b020 g     F .text	00000080 TEE_BigIntConvertFromS32
0000ee9c g     F .text	00000050 mbedtls_mpi_add_int
0000a084 g     F .text	00000018 _utee_authenc_enc_final
00003ae0 g     F .text	0000002c malloc_buffer_is_within_alloced
00009fc8 g     F .text	00000014 _utee_cryp_obj_close
0000c872 g     F .text	0000001c TEE_BigIntInitFMMContext
00009e64 g     F .text	00000014 _utee_mask_cancellation
0000a128 g     F .text	00000014 _utee_storage_obj_rename
00014ade g     F .text	0000007e TEE_WriteObjectData
000148fe g     F .text	00000032 TEE_ResetPersistentObjectEnumerator
0000b8b8 g     F .text	00000020 TEE_BigIntSquare
0000a1b4 g     F .text	00000014 _utee_storage_obj_write
00001450 g     F .text	00000034 TA_CreateEntryPoint
0000254c g     F .text	00000004 __ta_entry
0000a058 g     F .text	00000014 _utee_authenc_update_aad
00011450 g     F .text	0000006e mbedtls_mpi_montg_init
00003fd8 g     F .text	00000036 snprintk
0000b406 g     F .text	00000038 TEE_BigIntGetBitCount
0000a004 g     F .text	00000014 _utee_cryp_obj_copy
0000bb20 g     F .text	00000038 TEE_BigIntMulMod
0001202c g     F .text	000004cc mbedtls_mpi_inv_mod
00009056 g     F .text	000001c6 TEE_DeriveKey
00021730 g     O .bss	00000020 ta_params
00010c00 g     F .text	00000646 mbedtls_mpi_div_mpi
0000d8f6 g     F .text	00000024 mbedtls_mpi_size
0000265c g     F .text	0000038c bget
000140ac g     F .text	0000006a TEE_AllocateTransientObject
00009e78 g     F .text	00000014 _utee_wait
0000d6e8 g     F .text	000000ce mbedtls_mpi_set_bit
00005cc8 g     F .text	0000001a TEE_Free
0001291e g     F .text	00000028 mbedtls_mpi_is_prime
00000020 g     F .text	00000028 malloc_aligned
00005d2a g     F .text	00000024 TEE_CacheInvalidate
000051d8 g     F .text	00000014 _assert_break
0000bab0 g     F .text	00000038 TEE_BigIntAddMod
00009e8c g     F .text	00000014 _utee_get_time
00006068 g     F .text	00000dfc TEE_AllocateOperation
00009ff0 g     F .text	00000014 _utee_cryp_obj_populate
0000921c g     F .text	0000002c TEE_GenerateRandom
00005a9c g     F .text	00000024 TEE_MemCompare
00009f48 g     F .text	00000018 _utee_cipher_update
0000403c g     F .text	00000072 __vsnprintf
00021750 g     O .bss	0000000c __elf_phdr_info
000148cc g     F .text	00000032 TEE_FreePersistentObjectEnumerator
00005716 g     F .text	000000ee TEE_OpenTASession
000051ec g     F .text	00000024 trace_ext_puts
00019710 g     O .bss	00000010 module_key
00005210 g     F .text	00000014 trace_ext_get_thread_id
0001478a g     F .text	00000032 TEE_CloseAndDeletePersistentObject
0000a018 g     F .text	00000014 _utee_cryp_derive_key
0000cfa4 g     F .text	0000008c mbedtls_mpi_free
00009fdc g     F .text	00000014 _utee_cryp_obj_reset
00005ce2 g     F .text	00000024 TEE_CacheClean
00009dd0 g     F .text	00000014 _utee_get_property_name_to_index
0000d4ba g     F .text	00000172 mbedtls_mpi_safe_cond_swap
0000a040 g     F .text	00000018 _utee_authenc_init
00014416 g     F .text	000000b8 TEE_CopyObjectAttributes1
0001387a g     F .text	0000008a strlen
0000c540 g     F .text	00000290 TEE_BigIntComputeExtendedGcd
00013746 g     F .text	00000010 __aeabi_unwind_cpp_pr1
0000a13c g     F .text	00000014 _utee_storage_alloc_enum
00001c92 g     F .text	0000016a SpongentHash
00005ae6 g     F .text	0000002c TEE_GetSystemTime
0000a0cc g     F .text	00000018 _utee_asymm_verify
00000000 g     O .ta_head	00000020 ta_head
00002b58 g     F .text	00000338 brel
0000ec68 g     F .text	000000dc mbedtls_mpi_sub_abs
00011f80 g     F .text	000000ac mbedtls_mpi_fill_random
00019244 g     O .data	00000400 sBoxLayer
00005a38 g     F .text	00000024 TEE_SetInstanceData
00009e28 g     F .text	00000014 _utee_get_cancellation_flag
00005160 g     F .text	00000018 __aeabi_ldivmod
0000dc88 g     F .text	000001f8 mbedtls_mpi_write_string
0001498a g     F .text	000000c2 TEE_GetNextPersistentObject
00005804 g     F .text	00000030 TEE_CloseTASession
00008ecc g     F .text	0000018a TEE_AsymmetricVerifyDigest
0000a0fc g     F .text	00000018 _utee_storage_obj_create
000037f6 g     F .text	0000001e free
00002f8c g     F .text	000000a8 bstats
000080b4 g     F .text	000000f4 TEE_MACComputeFinal
0002476c g     O .bss	00000004 mbedtls_mpi_mempool
00009f1c g     F .text	00000018 _utee_hash_final



Disassembly of section .text:

00000020 <malloc_aligned>:
malloc_aligned():
/usr/src/app/examples/example_trustzone/ta1/ta1.c:14
      20:	e96d 7e02 	strd	r7, lr, [sp, #-8]!
      24:	b082      	sub	sp, #8
      26:	af00      	add	r7, sp, #0
      28:	6078      	str	r0, [r7, #4]
/usr/src/app/examples/example_trustzone/ta1/ta1.c:15
      2a:	687b      	ldr	r3, [r7, #4]
      2c:	f103 0301 	add.w	r3, r3, #1
      30:	f023 0301 	bic.w	r3, r3, #1
      34:	607b      	str	r3, [r7, #4]
/usr/src/app/examples/example_trustzone/ta1/ta1.c:17
      36:	6878      	ldr	r0, [r7, #4]
      38:	f003 faea 	bl	3610 <malloc>
      3c:	4603      	mov	r3, r0
/usr/src/app/examples/example_trustzone/ta1/ta1.c:18
      3e:	4618      	mov	r0, r3
      40:	f107 0708 	add.w	r7, r7, #8
      44:	46bd      	mov	sp, r7
      46:	bd80      	pop	{r7, pc}

00000048 <connections_add>:
connections_add():
/usr/src/app/examples/example_trustzone/ta1/ta1.c:40
      48:	e96d 7e02 	strd	r7, lr, [sp, #-8]!
      4c:	b084      	sub	sp, #16
      4e:	af00      	add	r7, sp, #0
      50:	6078      	str	r0, [r7, #4]
/usr/src/app/examples/example_trustzone/ta1/ta1.c:41
      52:	f04f 001c 	mov.w	r0, #28
      56:	f7ff ffe3 	bl	20 <malloc_aligned>
      5a:	60b8      	str	r0, [r7, #8]
/usr/src/app/examples/example_trustzone/ta1/ta1.c:43
      5c:	68bb      	ldr	r3, [r7, #8]
      5e:	2b00      	cmp	r3, #0
      60:	d102      	bne.n	68 <connections_add+0x20>
/usr/src/app/examples/example_trustzone/ta1/ta1.c:44
      62:	f04f 0300 	mov.w	r3, #0
      66:	e02f      	b.n	c8 <connections_add+0x80>
/usr/src/app/examples/example_trustzone/ta1/ta1.c:46
      68:	4b1a      	ldr	r3, [pc, #104]	; (d4 <connections_add+0x8c>)
      6a:	447b      	add	r3, pc
      6c:	4618      	mov	r0, r3
      6e:	f005 f913 	bl	5298 <puts>
/usr/src/app/examples/example_trustzone/ta1/ta1.c:47
      72:	f04f 0300 	mov.w	r3, #0
      76:	60fb      	str	r3, [r7, #12]
      78:	e00f      	b.n	9a <connections_add+0x52>
/usr/src/app/examples/example_trustzone/ta1/ta1.c:48 (discriminator 3)
      7a:	687a      	ldr	r2, [r7, #4]
      7c:	68fb      	ldr	r3, [r7, #12]
      7e:	4413      	add	r3, r2
      80:	f103 0308 	add.w	r3, r3, #8
      84:	781b      	ldrb	r3, [r3, #0]
      86:	4619      	mov	r1, r3
      88:	4b13      	ldr	r3, [pc, #76]	; (d8 <connections_add+0x90>)
      8a:	447b      	add	r3, pc
      8c:	4618      	mov	r0, r3
      8e:	f005 f8c9 	bl	5224 <printf>
/usr/src/app/examples/example_trustzone/ta1/ta1.c:47 (discriminator 3)
      92:	68fb      	ldr	r3, [r7, #12]
      94:	f103 0301 	add.w	r3, r3, #1
      98:	60fb      	str	r3, [r7, #12]
/usr/src/app/examples/example_trustzone/ta1/ta1.c:47 (discriminator 1)
      9a:	68fb      	ldr	r3, [r7, #12]
      9c:	2b0f      	cmp	r3, #15
      9e:	ddec      	ble.n	7a <connections_add+0x32>
/usr/src/app/examples/example_trustzone/ta1/ta1.c:51
      a0:	68ba      	ldr	r2, [r7, #8]
      a2:	687b      	ldr	r3, [r7, #4]
      a4:	4610      	mov	r0, r2
      a6:	4619      	mov	r1, r3
      a8:	f04f 0318 	mov.w	r3, #24
      ac:	461a      	mov	r2, r3
      ae:	f013 fa3b 	bl	13528 <memcpy>
/usr/src/app/examples/example_trustzone/ta1/ta1.c:52
      b2:	4b0a      	ldr	r3, [pc, #40]	; (dc <connections_add+0x94>)
      b4:	447b      	add	r3, pc
      b6:	681a      	ldr	r2, [r3, #0]
      b8:	68bb      	ldr	r3, [r7, #8]
      ba:	619a      	str	r2, [r3, #24]
/usr/src/app/examples/example_trustzone/ta1/ta1.c:53
      bc:	4b08      	ldr	r3, [pc, #32]	; (e0 <connections_add+0x98>)
      be:	447b      	add	r3, pc
      c0:	68ba      	ldr	r2, [r7, #8]
      c2:	601a      	str	r2, [r3, #0]
/usr/src/app/examples/example_trustzone/ta1/ta1.c:54
      c4:	f04f 0301 	mov.w	r3, #1
/usr/src/app/examples/example_trustzone/ta1/ta1.c:55
      c8:	4618      	mov	r0, r3
      ca:	f107 0710 	add.w	r7, r7, #16
      ce:	46bd      	mov	sp, r7
      d0:	bd80      	pop	{r7, pc}
      d2:	bf00      	nop
      d4:	00014eba 	.word	0x00014eba
      d8:	00014ec2 	.word	0x00014ec2
      dc:	00019668 	.word	0x00019668
      e0:	0001965e 	.word	0x0001965e

000000e4 <connections_get>:
connections_get():
/usr/src/app/examples/example_trustzone/ta1/ta1.c:58
      e4:	e96d 7e02 	strd	r7, lr, [sp, #-8]!
      e8:	b086      	sub	sp, #24
      ea:	af00      	add	r7, sp, #0
      ec:	4603      	mov	r3, r0
      ee:	80fb      	strh	r3, [r7, #6]
/usr/src/app/examples/example_trustzone/ta1/ta1.c:59
      f0:	4b1b      	ldr	r3, [pc, #108]	; (160 <connections_get+0x7c>)
      f2:	447b      	add	r3, pc
      f4:	4618      	mov	r0, r3
      f6:	f005 f8cf 	bl	5298 <puts>
/usr/src/app/examples/example_trustzone/ta1/ta1.c:60
      fa:	4b1a      	ldr	r3, [pc, #104]	; (164 <connections_get+0x80>)
      fc:	447b      	add	r3, pc
      fe:	681b      	ldr	r3, [r3, #0]
     100:	617b      	str	r3, [r7, #20]
/usr/src/app/examples/example_trustzone/ta1/ta1.c:62
     102:	e022      	b.n	14a <connections_get+0x66>
/usr/src/app/examples/example_trustzone/ta1/ta1.c:63
     104:	697b      	ldr	r3, [r7, #20]
     106:	60fb      	str	r3, [r7, #12]
/usr/src/app/examples/example_trustzone/ta1/ta1.c:65
     108:	68fb      	ldr	r3, [r7, #12]
     10a:	885b      	ldrh	r3, [r3, #2]
     10c:	88fa      	ldrh	r2, [r7, #6]
     10e:	429a      	cmp	r2, r3
     110:	d118      	bne.n	144 <connections_get+0x60>
/usr/src/app/examples/example_trustzone/ta1/ta1.c:66
     112:	f04f 0300 	mov.w	r3, #0
     116:	613b      	str	r3, [r7, #16]
     118:	e00f      	b.n	13a <connections_get+0x56>
/usr/src/app/examples/example_trustzone/ta1/ta1.c:67 (discriminator 3)
     11a:	68fa      	ldr	r2, [r7, #12]
     11c:	693b      	ldr	r3, [r7, #16]
     11e:	4413      	add	r3, r2
     120:	f103 0308 	add.w	r3, r3, #8
     124:	781b      	ldrb	r3, [r3, #0]
     126:	4619      	mov	r1, r3
     128:	4b0f      	ldr	r3, [pc, #60]	; (168 <connections_get+0x84>)
     12a:	447b      	add	r3, pc
     12c:	4618      	mov	r0, r3
     12e:	f005 f879 	bl	5224 <printf>
/usr/src/app/examples/example_trustzone/ta1/ta1.c:66 (discriminator 3)
     132:	693b      	ldr	r3, [r7, #16]
     134:	f103 0301 	add.w	r3, r3, #1
     138:	613b      	str	r3, [r7, #16]
/usr/src/app/examples/example_trustzone/ta1/ta1.c:66 (discriminator 1)
     13a:	693b      	ldr	r3, [r7, #16]
     13c:	2b0f      	cmp	r3, #15
     13e:	ddec      	ble.n	11a <connections_get+0x36>
/usr/src/app/examples/example_trustzone/ta1/ta1.c:68
     140:	68fb      	ldr	r3, [r7, #12]
     142:	e007      	b.n	154 <connections_get+0x70>
/usr/src/app/examples/example_trustzone/ta1/ta1.c:71
     144:	697b      	ldr	r3, [r7, #20]
     146:	699b      	ldr	r3, [r3, #24]
     148:	617b      	str	r3, [r7, #20]
/usr/src/app/examples/example_trustzone/ta1/ta1.c:62
     14a:	697b      	ldr	r3, [r7, #20]
     14c:	2b00      	cmp	r3, #0
     14e:	d1d9      	bne.n	104 <connections_get+0x20>
/usr/src/app/examples/example_trustzone/ta1/ta1.c:74
     150:	f04f 0300 	mov.w	r3, #0
/usr/src/app/examples/example_trustzone/ta1/ta1.c:75
     154:	4618      	mov	r0, r3
     156:	f107 0718 	add.w	r7, r7, #24
     15a:	46bd      	mov	sp, r7
     15c:	bd80      	pop	{r7, pc}
     15e:	bf00      	nop
     160:	00014e62 	.word	0x00014e62
     164:	00019620 	.word	0x00019620
     168:	00014e22 	.word	0x00014e22

0000016c <find_connections>:
find_connections():
/usr/src/app/examples/example_trustzone/ta1/ta1.c:78
     16c:	e96d 7e02 	strd	r7, lr, [sp, #-8]!
     170:	b086      	sub	sp, #24
     172:	af00      	add	r7, sp, #0
     174:	4603      	mov	r3, r0
     176:	60b9      	str	r1, [r7, #8]
     178:	607a      	str	r2, [r7, #4]
     17a:	81fb      	strh	r3, [r7, #14]
/usr/src/app/examples/example_trustzone/ta1/ta1.c:79
     17c:	4b1d      	ldr	r3, [pc, #116]	; (1f4 <find_connections+0x88>)
     17e:	447b      	add	r3, pc
     180:	4618      	mov	r0, r3
     182:	f005 f84f 	bl	5224 <printf>
/usr/src/app/examples/example_trustzone/ta1/ta1.c:80
     186:	4b1c      	ldr	r3, [pc, #112]	; (1f8 <find_connections+0x8c>)
     188:	447b      	add	r3, pc
     18a:	681b      	ldr	r3, [r3, #0]
     18c:	617b      	str	r3, [r7, #20]
/usr/src/app/examples/example_trustzone/ta1/ta1.c:82
     18e:	e027      	b.n	1e0 <find_connections+0x74>
/usr/src/app/examples/example_trustzone/ta1/ta1.c:83
     190:	697b      	ldr	r3, [r7, #20]
     192:	613b      	str	r3, [r7, #16]
/usr/src/app/examples/example_trustzone/ta1/ta1.c:85
     194:	693b      	ldr	r3, [r7, #16]
     196:	889b      	ldrh	r3, [r3, #4]
     198:	89fa      	ldrh	r2, [r7, #14]
     19a:	429a      	cmp	r2, r3
     19c:	d11d      	bne.n	1da <find_connections+0x6e>
/usr/src/app/examples/example_trustzone/ta1/ta1.c:86
     19e:	693b      	ldr	r3, [r7, #16]
     1a0:	8859      	ldrh	r1, [r3, #2]
     1a2:	687b      	ldr	r3, [r7, #4]
     1a4:	781b      	ldrb	r3, [r3, #0]
     1a6:	ea4f 0383 	mov.w	r3, r3, lsl #2
     1aa:	68ba      	ldr	r2, [r7, #8]
     1ac:	4413      	add	r3, r2
     1ae:	460a      	mov	r2, r1
     1b0:	601a      	str	r2, [r3, #0]
/usr/src/app/examples/example_trustzone/ta1/ta1.c:87
     1b2:	687b      	ldr	r3, [r7, #4]
     1b4:	781b      	ldrb	r3, [r3, #0]
     1b6:	ea4f 0383 	mov.w	r3, r3, lsl #2
     1ba:	68ba      	ldr	r2, [r7, #8]
     1bc:	4413      	add	r3, r2
     1be:	681b      	ldr	r3, [r3, #0]
     1c0:	4619      	mov	r1, r3
     1c2:	4b0e      	ldr	r3, [pc, #56]	; (1fc <find_connections+0x90>)
     1c4:	447b      	add	r3, pc
     1c6:	4618      	mov	r0, r3
     1c8:	f005 f82c 	bl	5224 <printf>
/usr/src/app/examples/example_trustzone/ta1/ta1.c:88
     1cc:	687b      	ldr	r3, [r7, #4]
     1ce:	781b      	ldrb	r3, [r3, #0]
     1d0:	f103 0301 	add.w	r3, r3, #1
     1d4:	b2da      	uxtb	r2, r3
     1d6:	687b      	ldr	r3, [r7, #4]
     1d8:	701a      	strb	r2, [r3, #0]
/usr/src/app/examples/example_trustzone/ta1/ta1.c:91
     1da:	697b      	ldr	r3, [r7, #20]
     1dc:	699b      	ldr	r3, [r3, #24]
     1de:	617b      	str	r3, [r7, #20]
/usr/src/app/examples/example_trustzone/ta1/ta1.c:82
     1e0:	697b      	ldr	r3, [r7, #20]
     1e2:	2b00      	cmp	r3, #0
     1e4:	d1d4      	bne.n	190 <find_connections+0x24>
/usr/src/app/examples/example_trustzone/ta1/ta1.c:94
     1e6:	bf00      	nop
     1e8:	bf00      	nop
     1ea:	f107 0718 	add.w	r7, r7, #24
     1ee:	46bd      	mov	sp, r7
     1f0:	bd80      	pop	{r7, pc}
     1f2:	bf00      	nop
     1f4:	00014e06 	.word	0x00014e06
     1f8:	00019594 	.word	0x00019594
     1fc:	00014df8 	.word	0x00014df8

00000200 <ta2tee_algo_id>:
ta2tee_algo_id():
/usr/src/app/examples/example_trustzone/ta1/ta1.c:111
     200:	e96d 7e02 	strd	r7, lr, [sp, #-8]!
     204:	b084      	sub	sp, #16
     206:	af02      	add	r7, sp, #8
     208:	6078      	str	r0, [r7, #4]
     20a:	6039      	str	r1, [r7, #0]
/usr/src/app/examples/example_trustzone/ta1/ta1.c:112
     20c:	687b      	ldr	r3, [r7, #4]
     20e:	2b02      	cmp	r3, #2
     210:	d01b      	beq.n	24a <ta2tee_algo_id+0x4a>
     212:	687b      	ldr	r3, [r7, #4]
     214:	2b02      	cmp	r3, #2
     216:	d821      	bhi.n	25c <ta2tee_algo_id+0x5c>
     218:	687b      	ldr	r3, [r7, #4]
     21a:	2b00      	cmp	r3, #0
     21c:	d003      	beq.n	226 <ta2tee_algo_id+0x26>
     21e:	687b      	ldr	r3, [r7, #4]
     220:	2b01      	cmp	r3, #1
     222:	d009      	beq.n	238 <ta2tee_algo_id+0x38>
     224:	e01a      	b.n	25c <ta2tee_algo_id+0x5c>
/usr/src/app/examples/example_trustzone/ta1/ta1.c:114
     226:	683a      	ldr	r2, [r7, #0]
     228:	f04f 0310 	mov.w	r3, #16
     22c:	f2c1 0300 	movt	r3, #4096	; 0x1000
     230:	6013      	str	r3, [r2, #0]
/usr/src/app/examples/example_trustzone/ta1/ta1.c:115
     232:	f04f 0300 	mov.w	r3, #0
     236:	e024      	b.n	282 <ta2tee_algo_id+0x82>
/usr/src/app/examples/example_trustzone/ta1/ta1.c:117
     238:	683a      	ldr	r2, [r7, #0]
     23a:	f44f 7388 	mov.w	r3, #272	; 0x110
     23e:	f2c1 0300 	movt	r3, #4096	; 0x1000
     242:	6013      	str	r3, [r2, #0]
/usr/src/app/examples/example_trustzone/ta1/ta1.c:118
     244:	f04f 0300 	mov.w	r3, #0
     248:	e01b      	b.n	282 <ta2tee_algo_id+0x82>
/usr/src/app/examples/example_trustzone/ta1/ta1.c:120
     24a:	683a      	ldr	r2, [r7, #0]
     24c:	f44f 6301 	mov.w	r3, #2064	; 0x810
     250:	f2c4 0300 	movt	r3, #16384	; 0x4000
     254:	6013      	str	r3, [r2, #0]
/usr/src/app/examples/example_trustzone/ta1/ta1.c:121
     256:	f04f 0300 	mov.w	r3, #0
     25a:	e012      	b.n	282 <ta2tee_algo_id+0x82>
/usr/src/app/examples/example_trustzone/ta1/ta1.c:123
     25c:	687b      	ldr	r3, [r7, #4]
     25e:	9301      	str	r3, [sp, #4]
     260:	4b0a      	ldr	r3, [pc, #40]	; (28c <ta2tee_algo_id+0x8c>)
     262:	447b      	add	r3, pc
     264:	9300      	str	r3, [sp, #0]
     266:	f04f 0301 	mov.w	r3, #1
     26a:	f04f 0201 	mov.w	r2, #1
     26e:	f04f 017b 	mov.w	r1, #123	; 0x7b
     272:	4807      	ldr	r0, [pc, #28]	; (290 <ta2tee_algo_id+0x90>)
     274:	4478      	add	r0, pc
     276:	f003 fcfe 	bl	3c76 <trace_printf>
/usr/src/app/examples/example_trustzone/ta1/ta1.c:124
     27a:	f04f 0306 	mov.w	r3, #6
     27e:	f6cf 73ff 	movt	r3, #65535	; 0xffff
/usr/src/app/examples/example_trustzone/ta1/ta1.c:126
     282:	4618      	mov	r0, r3
     284:	f107 0708 	add.w	r7, r7, #8
     288:	46bd      	mov	sp, r7
     28a:	bd80      	pop	{r7, pc}
     28c:	00014d66 	.word	0x00014d66
     290:	000152ac 	.word	0x000152ac

00000294 <ta2tee_key_size>:
ta2tee_key_size():
/usr/src/app/examples/example_trustzone/ta1/ta1.c:128
     294:	e96d 7e02 	strd	r7, lr, [sp, #-8]!
     298:	b084      	sub	sp, #16
     29a:	af02      	add	r7, sp, #8
     29c:	6078      	str	r0, [r7, #4]
     29e:	6039      	str	r1, [r7, #0]
/usr/src/app/examples/example_trustzone/ta1/ta1.c:129
     2a0:	687b      	ldr	r3, [r7, #4]
     2a2:	2b10      	cmp	r3, #16
     2a4:	d105      	bne.n	2b2 <ta2tee_key_size+0x1e>
/usr/src/app/examples/example_trustzone/ta1/ta1.c:131
     2a6:	683b      	ldr	r3, [r7, #0]
     2a8:	687a      	ldr	r2, [r7, #4]
     2aa:	601a      	str	r2, [r3, #0]
/usr/src/app/examples/example_trustzone/ta1/ta1.c:132
     2ac:	f04f 0300 	mov.w	r3, #0
     2b0:	e012      	b.n	2d8 <ta2tee_key_size+0x44>
/usr/src/app/examples/example_trustzone/ta1/ta1.c:134
     2b2:	687b      	ldr	r3, [r7, #4]
     2b4:	9301      	str	r3, [sp, #4]
     2b6:	4b0b      	ldr	r3, [pc, #44]	; (2e4 <ta2tee_key_size+0x50>)
     2b8:	447b      	add	r3, pc
     2ba:	9300      	str	r3, [sp, #0]
     2bc:	f04f 0301 	mov.w	r3, #1
     2c0:	f04f 0201 	mov.w	r2, #1
     2c4:	f04f 0186 	mov.w	r1, #134	; 0x86
     2c8:	4807      	ldr	r0, [pc, #28]	; (2e8 <ta2tee_key_size+0x54>)
     2ca:	4478      	add	r0, pc
     2cc:	f003 fcd3 	bl	3c76 <trace_printf>
/usr/src/app/examples/example_trustzone/ta1/ta1.c:135
     2d0:	f04f 0306 	mov.w	r3, #6
     2d4:	f6cf 73ff 	movt	r3, #65535	; 0xffff
/usr/src/app/examples/example_trustzone/ta1/ta1.c:137
     2d8:	4618      	mov	r0, r3
     2da:	f107 0708 	add.w	r7, r7, #8
     2de:	46bd      	mov	sp, r7
     2e0:	bd80      	pop	{r7, pc}
     2e2:	bf00      	nop
     2e4:	00014d20 	.word	0x00014d20
     2e8:	00015266 	.word	0x00015266

000002ec <ta2tee_mode_id>:
ta2tee_mode_id():
/usr/src/app/examples/example_trustzone/ta1/ta1.c:139
     2ec:	e96d 7e02 	strd	r7, lr, [sp, #-8]!
     2f0:	b084      	sub	sp, #16
     2f2:	af02      	add	r7, sp, #8
     2f4:	6078      	str	r0, [r7, #4]
     2f6:	6039      	str	r1, [r7, #0]
/usr/src/app/examples/example_trustzone/ta1/ta1.c:140
     2f8:	687b      	ldr	r3, [r7, #4]
     2fa:	2b00      	cmp	r3, #0
     2fc:	d009      	beq.n	312 <ta2tee_mode_id+0x26>
     2fe:	687b      	ldr	r3, [r7, #4]
     300:	2b01      	cmp	r3, #1
     302:	d10d      	bne.n	320 <ta2tee_mode_id+0x34>
/usr/src/app/examples/example_trustzone/ta1/ta1.c:142
     304:	683b      	ldr	r3, [r7, #0]
     306:	f04f 0200 	mov.w	r2, #0
     30a:	601a      	str	r2, [r3, #0]
/usr/src/app/examples/example_trustzone/ta1/ta1.c:143
     30c:	f04f 0300 	mov.w	r3, #0
     310:	e019      	b.n	346 <ta2tee_mode_id+0x5a>
/usr/src/app/examples/example_trustzone/ta1/ta1.c:145
     312:	683b      	ldr	r3, [r7, #0]
     314:	f04f 0201 	mov.w	r2, #1
     318:	601a      	str	r2, [r3, #0]
/usr/src/app/examples/example_trustzone/ta1/ta1.c:146
     31a:	f04f 0300 	mov.w	r3, #0
     31e:	e012      	b.n	346 <ta2tee_mode_id+0x5a>
/usr/src/app/examples/example_trustzone/ta1/ta1.c:148
     320:	687b      	ldr	r3, [r7, #4]
     322:	9301      	str	r3, [sp, #4]
     324:	4b0a      	ldr	r3, [pc, #40]	; (350 <ta2tee_mode_id+0x64>)
     326:	447b      	add	r3, pc
     328:	9300      	str	r3, [sp, #0]
     32a:	f04f 0301 	mov.w	r3, #1
     32e:	f04f 0201 	mov.w	r2, #1
     332:	f04f 0194 	mov.w	r1, #148	; 0x94
     336:	4807      	ldr	r0, [pc, #28]	; (354 <ta2tee_mode_id+0x68>)
     338:	4478      	add	r0, pc
     33a:	f003 fc9c 	bl	3c76 <trace_printf>
/usr/src/app/examples/example_trustzone/ta1/ta1.c:149
     33e:	f04f 0306 	mov.w	r3, #6
     342:	f6cf 73ff 	movt	r3, #65535	; 0xffff
/usr/src/app/examples/example_trustzone/ta1/ta1.c:151
     346:	4618      	mov	r0, r3
     348:	f107 0708 	add.w	r7, r7, #8
     34c:	46bd      	mov	sp, r7
     34e:	bd80      	pop	{r7, pc}
     350:	00014cc6 	.word	0x00014cc6
     354:	00015208 	.word	0x00015208

00000358 <alloc_resources>:
alloc_resources():
/usr/src/app/examples/example_trustzone/ta1/ta1.c:154
     358:	e96d 7e02 	strd	r7, lr, [sp, #-8]!
     35c:	b08c      	sub	sp, #48	; 0x30
     35e:	af02      	add	r7, sp, #8
     360:	60f8      	str	r0, [r7, #12]
     362:	60b9      	str	r1, [r7, #8]
     364:	607a      	str	r2, [r7, #4]
     366:	603b      	str	r3, [r7, #0]
/usr/src/app/examples/example_trustzone/ta1/ta1.c:162
     368:	68fb      	ldr	r3, [r7, #12]
     36a:	9301      	str	r3, [sp, #4]
     36c:	4b80      	ldr	r3, [pc, #512]	; (570 <alloc_resources+0x218>)
     36e:	447b      	add	r3, pc
     370:	9300      	str	r3, [sp, #0]
     372:	f04f 0301 	mov.w	r3, #1
     376:	f04f 0203 	mov.w	r2, #3
     37a:	f04f 01a2 	mov.w	r1, #162	; 0xa2
     37e:	487d      	ldr	r0, [pc, #500]	; (574 <alloc_resources+0x21c>)
     380:	4478      	add	r0, pc
     382:	f003 fc78 	bl	3c76 <trace_printf>
/usr/src/app/examples/example_trustzone/ta1/ta1.c:163
     386:	68fb      	ldr	r3, [r7, #12]
     388:	623b      	str	r3, [r7, #32]
/usr/src/app/examples/example_trustzone/ta1/ta1.c:165
     38a:	6a3b      	ldr	r3, [r7, #32]
     38c:	4619      	mov	r1, r3
     38e:	68b8      	ldr	r0, [r7, #8]
     390:	f7ff ff36 	bl	200 <ta2tee_algo_id>
     394:	6278      	str	r0, [r7, #36]	; 0x24
/usr/src/app/examples/example_trustzone/ta1/ta1.c:166
     396:	6a7b      	ldr	r3, [r7, #36]	; 0x24
     398:	2b00      	cmp	r3, #0
     39a:	d001      	beq.n	3a0 <alloc_resources+0x48>
/usr/src/app/examples/example_trustzone/ta1/ta1.c:167
     39c:	6a7b      	ldr	r3, [r7, #36]	; 0x24
     39e:	e0e2      	b.n	566 <alloc_resources+0x20e>
/usr/src/app/examples/example_trustzone/ta1/ta1.c:169
     3a0:	6a3b      	ldr	r3, [r7, #32]
     3a2:	f103 0308 	add.w	r3, r3, #8
     3a6:	4619      	mov	r1, r3
     3a8:	6878      	ldr	r0, [r7, #4]
     3aa:	f7ff ff73 	bl	294 <ta2tee_key_size>
     3ae:	6278      	str	r0, [r7, #36]	; 0x24
/usr/src/app/examples/example_trustzone/ta1/ta1.c:170
     3b0:	6a7b      	ldr	r3, [r7, #36]	; 0x24
     3b2:	2b00      	cmp	r3, #0
     3b4:	d001      	beq.n	3ba <alloc_resources+0x62>
/usr/src/app/examples/example_trustzone/ta1/ta1.c:171
     3b6:	6a7b      	ldr	r3, [r7, #36]	; 0x24
     3b8:	e0d5      	b.n	566 <alloc_resources+0x20e>
/usr/src/app/examples/example_trustzone/ta1/ta1.c:173
     3ba:	6a3b      	ldr	r3, [r7, #32]
     3bc:	f103 0304 	add.w	r3, r3, #4
     3c0:	4619      	mov	r1, r3
     3c2:	6838      	ldr	r0, [r7, #0]
     3c4:	f7ff ff92 	bl	2ec <ta2tee_mode_id>
     3c8:	6278      	str	r0, [r7, #36]	; 0x24
/usr/src/app/examples/example_trustzone/ta1/ta1.c:174
     3ca:	6a7b      	ldr	r3, [r7, #36]	; 0x24
     3cc:	2b00      	cmp	r3, #0
     3ce:	d001      	beq.n	3d4 <alloc_resources+0x7c>
/usr/src/app/examples/example_trustzone/ta1/ta1.c:175
     3d0:	6a7b      	ldr	r3, [r7, #36]	; 0x24
     3d2:	e0c8      	b.n	566 <alloc_resources+0x20e>
/usr/src/app/examples/example_trustzone/ta1/ta1.c:177
     3d4:	6a3b      	ldr	r3, [r7, #32]
     3d6:	68db      	ldr	r3, [r3, #12]
     3d8:	2b00      	cmp	r3, #0
     3da:	d004      	beq.n	3e6 <alloc_resources+0x8e>
/usr/src/app/examples/example_trustzone/ta1/ta1.c:178
     3dc:	6a3b      	ldr	r3, [r7, #32]
     3de:	68db      	ldr	r3, [r3, #12]
     3e0:	4618      	mov	r0, r3
     3e2:	f006 fd3f 	bl	6e64 <TEE_FreeOperation>
/usr/src/app/examples/example_trustzone/ta1/ta1.c:181
     3e6:	6a3b      	ldr	r3, [r7, #32]
     3e8:	f103 000c 	add.w	r0, r3, #12
     3ec:	6a3b      	ldr	r3, [r7, #32]
     3ee:	6819      	ldr	r1, [r3, #0]
     3f0:	6a3b      	ldr	r3, [r7, #32]
     3f2:	685a      	ldr	r2, [r3, #4]
/usr/src/app/examples/example_trustzone/ta1/ta1.c:184
     3f4:	6a3b      	ldr	r3, [r7, #32]
     3f6:	689b      	ldr	r3, [r3, #8]
/usr/src/app/examples/example_trustzone/ta1/ta1.c:181
     3f8:	ea4f 03c3 	mov.w	r3, r3, lsl #3
     3fc:	f005 fe34 	bl	6068 <TEE_AllocateOperation>
     400:	6278      	str	r0, [r7, #36]	; 0x24
/usr/src/app/examples/example_trustzone/ta1/ta1.c:185
     402:	6a7b      	ldr	r3, [r7, #36]	; 0x24
     404:	2b00      	cmp	r3, #0
     406:	d011      	beq.n	42c <alloc_resources+0xd4>
/usr/src/app/examples/example_trustzone/ta1/ta1.c:186
     408:	4b5b      	ldr	r3, [pc, #364]	; (578 <alloc_resources+0x220>)
     40a:	447b      	add	r3, pc
     40c:	9300      	str	r3, [sp, #0]
     40e:	f04f 0301 	mov.w	r3, #1
     412:	f04f 0201 	mov.w	r2, #1
     416:	f04f 01ba 	mov.w	r1, #186	; 0xba
     41a:	4858      	ldr	r0, [pc, #352]	; (57c <alloc_resources+0x224>)
     41c:	4478      	add	r0, pc
     41e:	f003 fc2a 	bl	3c76 <trace_printf>
/usr/src/app/examples/example_trustzone/ta1/ta1.c:187
     422:	6a3b      	ldr	r3, [r7, #32]
     424:	f04f 0200 	mov.w	r2, #0
     428:	60da      	str	r2, [r3, #12]
/usr/src/app/examples/example_trustzone/ta1/ta1.c:188
     42a:	e081      	b.n	530 <alloc_resources+0x1d8>
/usr/src/app/examples/example_trustzone/ta1/ta1.c:192
     42c:	6a3b      	ldr	r3, [r7, #32]
     42e:	691b      	ldr	r3, [r3, #16]
     430:	2b00      	cmp	r3, #0
     432:	d004      	beq.n	43e <alloc_resources+0xe6>
/usr/src/app/examples/example_trustzone/ta1/ta1.c:193
     434:	6a3b      	ldr	r3, [r7, #32]
     436:	691b      	ldr	r3, [r3, #16]
     438:	4618      	mov	r0, r3
     43a:	f013 fe6c 	bl	14116 <TEE_FreeTransientObject>
/usr/src/app/examples/example_trustzone/ta1/ta1.c:197
     43e:	6a3b      	ldr	r3, [r7, #32]
     440:	689b      	ldr	r3, [r3, #8]
/usr/src/app/examples/example_trustzone/ta1/ta1.c:196
     442:	ea4f 01c3 	mov.w	r1, r3, lsl #3
     446:	6a3b      	ldr	r3, [r7, #32]
     448:	f103 0310 	add.w	r3, r3, #16
     44c:	461a      	mov	r2, r3
     44e:	f04f 0010 	mov.w	r0, #16
     452:	f2ca 0000 	movt	r0, #40960	; 0xa000
     456:	f013 fe29 	bl	140ac <TEE_AllocateTransientObject>
     45a:	6278      	str	r0, [r7, #36]	; 0x24
/usr/src/app/examples/example_trustzone/ta1/ta1.c:199
     45c:	6a7b      	ldr	r3, [r7, #36]	; 0x24
     45e:	2b00      	cmp	r3, #0
     460:	d011      	beq.n	486 <alloc_resources+0x12e>
/usr/src/app/examples/example_trustzone/ta1/ta1.c:200
     462:	4b47      	ldr	r3, [pc, #284]	; (580 <alloc_resources+0x228>)
     464:	447b      	add	r3, pc
     466:	9300      	str	r3, [sp, #0]
     468:	f04f 0301 	mov.w	r3, #1
     46c:	f04f 0201 	mov.w	r2, #1
     470:	f04f 01c8 	mov.w	r1, #200	; 0xc8
     474:	4843      	ldr	r0, [pc, #268]	; (584 <alloc_resources+0x22c>)
     476:	4478      	add	r0, pc
     478:	f003 fbfd 	bl	3c76 <trace_printf>
/usr/src/app/examples/example_trustzone/ta1/ta1.c:201
     47c:	6a3b      	ldr	r3, [r7, #32]
     47e:	f04f 0200 	mov.w	r2, #0
     482:	611a      	str	r2, [r3, #16]
/usr/src/app/examples/example_trustzone/ta1/ta1.c:202
     484:	e054      	b.n	530 <alloc_resources+0x1d8>
/usr/src/app/examples/example_trustzone/ta1/ta1.c:205
     486:	6a3b      	ldr	r3, [r7, #32]
     488:	689b      	ldr	r3, [r3, #8]
     48a:	f04f 0100 	mov.w	r1, #0
     48e:	4618      	mov	r0, r3
     490:	f005 fbd6 	bl	5c40 <TEE_Malloc>
     494:	61f8      	str	r0, [r7, #28]
/usr/src/app/examples/example_trustzone/ta1/ta1.c:206
     496:	69fb      	ldr	r3, [r7, #28]
     498:	2b00      	cmp	r3, #0
     49a:	d105      	bne.n	4a8 <alloc_resources+0x150>
/usr/src/app/examples/example_trustzone/ta1/ta1.c:207
     49c:	f04f 030c 	mov.w	r3, #12
     4a0:	f6cf 73ff 	movt	r3, #65535	; 0xffff
     4a4:	627b      	str	r3, [r7, #36]	; 0x24
/usr/src/app/examples/example_trustzone/ta1/ta1.c:208
     4a6:	e043      	b.n	530 <alloc_resources+0x1d8>
/usr/src/app/examples/example_trustzone/ta1/ta1.c:211
     4a8:	6a3b      	ldr	r3, [r7, #32]
     4aa:	689b      	ldr	r3, [r3, #8]
     4ac:	f107 0010 	add.w	r0, r7, #16
     4b0:	69fa      	ldr	r2, [r7, #28]
     4b2:	f04f 4140 	mov.w	r1, #3221225472	; 0xc0000000
     4b6:	f013 ff40 	bl	1433a <TEE_InitRefAttribute>
/usr/src/app/examples/example_trustzone/ta1/ta1.c:213
     4ba:	6a3b      	ldr	r3, [r7, #32]
     4bc:	691b      	ldr	r3, [r3, #16]
     4be:	f107 0110 	add.w	r1, r7, #16
     4c2:	f04f 0201 	mov.w	r2, #1
     4c6:	4618      	mov	r0, r3
     4c8:	f013 fe85 	bl	141d6 <TEE_PopulateTransientObject>
     4cc:	6278      	str	r0, [r7, #36]	; 0x24
/usr/src/app/examples/example_trustzone/ta1/ta1.c:214
     4ce:	6a7b      	ldr	r3, [r7, #36]	; 0x24
     4d0:	2b00      	cmp	r3, #0
     4d2:	d00f      	beq.n	4f4 <alloc_resources+0x19c>
/usr/src/app/examples/example_trustzone/ta1/ta1.c:215
     4d4:	6a7b      	ldr	r3, [r7, #36]	; 0x24
     4d6:	9301      	str	r3, [sp, #4]
     4d8:	4b2b      	ldr	r3, [pc, #172]	; (588 <alloc_resources+0x230>)
     4da:	447b      	add	r3, pc
     4dc:	9300      	str	r3, [sp, #0]
     4de:	f04f 0301 	mov.w	r3, #1
     4e2:	f04f 0201 	mov.w	r2, #1
     4e6:	f04f 01d7 	mov.w	r1, #215	; 0xd7
     4ea:	4828      	ldr	r0, [pc, #160]	; (58c <alloc_resources+0x234>)
     4ec:	4478      	add	r0, pc
     4ee:	f003 fbc2 	bl	3c76 <trace_printf>
/usr/src/app/examples/example_trustzone/ta1/ta1.c:216
     4f2:	e01d      	b.n	530 <alloc_resources+0x1d8>
/usr/src/app/examples/example_trustzone/ta1/ta1.c:219
     4f4:	6a3b      	ldr	r3, [r7, #32]
     4f6:	68da      	ldr	r2, [r3, #12]
     4f8:	6a3b      	ldr	r3, [r7, #32]
     4fa:	691b      	ldr	r3, [r3, #16]
     4fc:	4619      	mov	r1, r3
     4fe:	4610      	mov	r0, r2
     500:	f006 fe32 	bl	7168 <TEE_SetOperationKey>
     504:	6278      	str	r0, [r7, #36]	; 0x24
/usr/src/app/examples/example_trustzone/ta1/ta1.c:220
     506:	6a7b      	ldr	r3, [r7, #36]	; 0x24
     508:	2b00      	cmp	r3, #0
     50a:	d00f      	beq.n	52c <alloc_resources+0x1d4>
/usr/src/app/examples/example_trustzone/ta1/ta1.c:221
     50c:	6a7b      	ldr	r3, [r7, #36]	; 0x24
     50e:	9301      	str	r3, [sp, #4]
     510:	4b1f      	ldr	r3, [pc, #124]	; (590 <alloc_resources+0x238>)
     512:	447b      	add	r3, pc
     514:	9300      	str	r3, [sp, #0]
     516:	f04f 0301 	mov.w	r3, #1
     51a:	f04f 0201 	mov.w	r2, #1
     51e:	f04f 01dd 	mov.w	r1, #221	; 0xdd
     522:	481c      	ldr	r0, [pc, #112]	; (594 <alloc_resources+0x23c>)
     524:	4478      	add	r0, pc
     526:	f003 fba6 	bl	3c76 <trace_printf>
/usr/src/app/examples/example_trustzone/ta1/ta1.c:222
     52a:	e001      	b.n	530 <alloc_resources+0x1d8>
/usr/src/app/examples/example_trustzone/ta1/ta1.c:225
     52c:	6a7b      	ldr	r3, [r7, #36]	; 0x24
     52e:	e01a      	b.n	566 <alloc_resources+0x20e>
/usr/src/app/examples/example_trustzone/ta1/ta1.c:228
     530:	6a3b      	ldr	r3, [r7, #32]
     532:	68db      	ldr	r3, [r3, #12]
     534:	2b00      	cmp	r3, #0
     536:	d004      	beq.n	542 <alloc_resources+0x1ea>
/usr/src/app/examples/example_trustzone/ta1/ta1.c:229
     538:	6a3b      	ldr	r3, [r7, #32]
     53a:	68db      	ldr	r3, [r3, #12]
     53c:	4618      	mov	r0, r3
     53e:	f006 fc91 	bl	6e64 <TEE_FreeOperation>
/usr/src/app/examples/example_trustzone/ta1/ta1.c:230
     542:	6a3b      	ldr	r3, [r7, #32]
     544:	f04f 0200 	mov.w	r2, #0
     548:	60da      	str	r2, [r3, #12]
/usr/src/app/examples/example_trustzone/ta1/ta1.c:232
     54a:	6a3b      	ldr	r3, [r7, #32]
     54c:	691b      	ldr	r3, [r3, #16]
     54e:	2b00      	cmp	r3, #0
     550:	d004      	beq.n	55c <alloc_resources+0x204>
/usr/src/app/examples/example_trustzone/ta1/ta1.c:233
     552:	6a3b      	ldr	r3, [r7, #32]
     554:	691b      	ldr	r3, [r3, #16]
     556:	4618      	mov	r0, r3
     558:	f013 fddd 	bl	14116 <TEE_FreeTransientObject>
/usr/src/app/examples/example_trustzone/ta1/ta1.c:234
     55c:	6a3b      	ldr	r3, [r7, #32]
     55e:	f04f 0200 	mov.w	r2, #0
     562:	611a      	str	r2, [r3, #16]
/usr/src/app/examples/example_trustzone/ta1/ta1.c:236
     564:	6a7b      	ldr	r3, [r7, #36]	; 0x24
/usr/src/app/examples/example_trustzone/ta1/ta1.c:237 (discriminator 1)
     566:	4618      	mov	r0, r3
     568:	f107 0728 	add.w	r7, r7, #40	; 0x28
     56c:	46bd      	mov	sp, r7
     56e:	bd80      	pop	{r7, pc}
     570:	00014c8e 	.word	0x00014c8e
     574:	000151d0 	.word	0x000151d0
     578:	00014c16 	.word	0x00014c16
     57c:	00015134 	.word	0x00015134
     580:	00014bdc 	.word	0x00014bdc
     584:	000150da 	.word	0x000150da
     588:	00014b8a 	.word	0x00014b8a
     58c:	00015064 	.word	0x00015064
     590:	00014b7a 	.word	0x00014b7a
     594:	0001502c 	.word	0x0001502c

00000598 <set_aes_key>:
set_aes_key():
/usr/src/app/examples/example_trustzone/ta1/ta1.c:239
     598:	e96d 7e02 	strd	r7, lr, [sp, #-8]!
     59c:	b08e      	sub	sp, #56	; 0x38
     59e:	af04      	add	r7, sp, #16
     5a0:	60f8      	str	r0, [r7, #12]
     5a2:	60b9      	str	r1, [r7, #8]
     5a4:	607a      	str	r2, [r7, #4]
/usr/src/app/examples/example_trustzone/ta1/ta1.c:246
     5a6:	68fb      	ldr	r3, [r7, #12]
     5a8:	9301      	str	r3, [sp, #4]
     5aa:	4b4c      	ldr	r3, [pc, #304]	; (6dc <set_aes_key+0x144>)
     5ac:	447b      	add	r3, pc
     5ae:	9300      	str	r3, [sp, #0]
     5b0:	f04f 0301 	mov.w	r3, #1
     5b4:	f04f 0203 	mov.w	r2, #3
     5b8:	f04f 01f6 	mov.w	r1, #246	; 0xf6
     5bc:	4848      	ldr	r0, [pc, #288]	; (6e0 <set_aes_key+0x148>)
     5be:	4478      	add	r0, pc
     5c0:	f003 fb59 	bl	3c76 <trace_printf>
/usr/src/app/examples/example_trustzone/ta1/ta1.c:247
     5c4:	68fb      	ldr	r3, [r7, #12]
     5c6:	623b      	str	r3, [r7, #32]
/usr/src/app/examples/example_trustzone/ta1/ta1.c:251
     5c8:	4b46      	ldr	r3, [pc, #280]	; (6e4 <set_aes_key+0x14c>)
     5ca:	447b      	add	r3, pc
     5cc:	4618      	mov	r0, r3
     5ce:	f004 fe63 	bl	5298 <puts>
/usr/src/app/examples/example_trustzone/ta1/ta1.c:252
     5d2:	f04f 0300 	mov.w	r3, #0
     5d6:	627b      	str	r3, [r7, #36]	; 0x24
     5d8:	e00d      	b.n	5f6 <set_aes_key+0x5e>
/usr/src/app/examples/example_trustzone/ta1/ta1.c:253 (discriminator 3)
     5da:	6a7b      	ldr	r3, [r7, #36]	; 0x24
     5dc:	68ba      	ldr	r2, [r7, #8]
     5de:	4413      	add	r3, r2
     5e0:	781b      	ldrb	r3, [r3, #0]
     5e2:	4619      	mov	r1, r3
     5e4:	4b40      	ldr	r3, [pc, #256]	; (6e8 <set_aes_key+0x150>)
     5e6:	447b      	add	r3, pc
     5e8:	4618      	mov	r0, r3
     5ea:	f004 fe1b 	bl	5224 <printf>
/usr/src/app/examples/example_trustzone/ta1/ta1.c:252 (discriminator 3)
     5ee:	6a7b      	ldr	r3, [r7, #36]	; 0x24
     5f0:	f103 0301 	add.w	r3, r3, #1
     5f4:	627b      	str	r3, [r7, #36]	; 0x24
/usr/src/app/examples/example_trustzone/ta1/ta1.c:252 (discriminator 1)
     5f6:	6a7b      	ldr	r3, [r7, #36]	; 0x24
     5f8:	2b0f      	cmp	r3, #15
     5fa:	ddee      	ble.n	5da <set_aes_key+0x42>
/usr/src/app/examples/example_trustzone/ta1/ta1.c:256
     5fc:	6a3b      	ldr	r3, [r7, #32]
     5fe:	689b      	ldr	r3, [r3, #8]
     600:	687a      	ldr	r2, [r7, #4]
     602:	429a      	cmp	r2, r3
     604:	d016      	beq.n	634 <set_aes_key+0x9c>
/usr/src/app/examples/example_trustzone/ta1/ta1.c:257
     606:	6a3b      	ldr	r3, [r7, #32]
     608:	689b      	ldr	r3, [r3, #8]
     60a:	9302      	str	r3, [sp, #8]
     60c:	687b      	ldr	r3, [r7, #4]
     60e:	9301      	str	r3, [sp, #4]
     610:	4b36      	ldr	r3, [pc, #216]	; (6ec <set_aes_key+0x154>)
     612:	447b      	add	r3, pc
     614:	9300      	str	r3, [sp, #0]
     616:	f04f 0301 	mov.w	r3, #1
     61a:	f04f 0201 	mov.w	r2, #1
     61e:	f240 1101 	movw	r1, #257	; 0x101
     622:	4833      	ldr	r0, [pc, #204]	; (6f0 <set_aes_key+0x158>)
     624:	4478      	add	r0, pc
     626:	f003 fb26 	bl	3c76 <trace_printf>
/usr/src/app/examples/example_trustzone/ta1/ta1.c:259
     62a:	f04f 0306 	mov.w	r3, #6
     62e:	f6cf 73ff 	movt	r3, #65535	; 0xffff
     632:	e04d      	b.n	6d0 <set_aes_key+0x138>
/usr/src/app/examples/example_trustzone/ta1/ta1.c:262
     634:	f107 0010 	add.w	r0, r7, #16
     638:	687b      	ldr	r3, [r7, #4]
     63a:	68ba      	ldr	r2, [r7, #8]
     63c:	f04f 4140 	mov.w	r1, #3221225472	; 0xc0000000
     640:	f013 fe7b 	bl	1433a <TEE_InitRefAttribute>
/usr/src/app/examples/example_trustzone/ta1/ta1.c:264
     644:	6a3b      	ldr	r3, [r7, #32]
     646:	691b      	ldr	r3, [r3, #16]
     648:	4618      	mov	r0, r3
     64a:	f013 fd94 	bl	14176 <TEE_ResetTransientObject>
/usr/src/app/examples/example_trustzone/ta1/ta1.c:265
     64e:	6a3b      	ldr	r3, [r7, #32]
     650:	691b      	ldr	r3, [r3, #16]
     652:	f107 0110 	add.w	r1, r7, #16
     656:	f04f 0201 	mov.w	r2, #1
     65a:	4618      	mov	r0, r3
     65c:	f013 fdbb 	bl	141d6 <TEE_PopulateTransientObject>
     660:	61f8      	str	r0, [r7, #28]
/usr/src/app/examples/example_trustzone/ta1/ta1.c:266
     662:	69fb      	ldr	r3, [r7, #28]
     664:	2b00      	cmp	r3, #0
     666:	d010      	beq.n	68a <set_aes_key+0xf2>
/usr/src/app/examples/example_trustzone/ta1/ta1.c:267
     668:	69fb      	ldr	r3, [r7, #28]
     66a:	9301      	str	r3, [sp, #4]
     66c:	4b21      	ldr	r3, [pc, #132]	; (6f4 <set_aes_key+0x15c>)
     66e:	447b      	add	r3, pc
     670:	9300      	str	r3, [sp, #0]
     672:	f04f 0301 	mov.w	r3, #1
     676:	f04f 0201 	mov.w	r2, #1
     67a:	f240 110b 	movw	r1, #267	; 0x10b
     67e:	481e      	ldr	r0, [pc, #120]	; (6f8 <set_aes_key+0x160>)
     680:	4478      	add	r0, pc
     682:	f003 faf8 	bl	3c76 <trace_printf>
/usr/src/app/examples/example_trustzone/ta1/ta1.c:268
     686:	69fb      	ldr	r3, [r7, #28]
     688:	e022      	b.n	6d0 <set_aes_key+0x138>
/usr/src/app/examples/example_trustzone/ta1/ta1.c:271
     68a:	6a3b      	ldr	r3, [r7, #32]
     68c:	68db      	ldr	r3, [r3, #12]
     68e:	4618      	mov	r0, r3
     690:	f006 fd2a 	bl	70e8 <TEE_ResetOperation>
/usr/src/app/examples/example_trustzone/ta1/ta1.c:272
     694:	6a3b      	ldr	r3, [r7, #32]
     696:	68da      	ldr	r2, [r3, #12]
     698:	6a3b      	ldr	r3, [r7, #32]
     69a:	691b      	ldr	r3, [r3, #16]
     69c:	4619      	mov	r1, r3
     69e:	4610      	mov	r0, r2
     6a0:	f006 fd62 	bl	7168 <TEE_SetOperationKey>
     6a4:	61f8      	str	r0, [r7, #28]
/usr/src/app/examples/example_trustzone/ta1/ta1.c:273
     6a6:	69fb      	ldr	r3, [r7, #28]
     6a8:	2b00      	cmp	r3, #0
     6aa:	d010      	beq.n	6ce <set_aes_key+0x136>
/usr/src/app/examples/example_trustzone/ta1/ta1.c:274
     6ac:	69fb      	ldr	r3, [r7, #28]
     6ae:	9301      	str	r3, [sp, #4]
     6b0:	4b12      	ldr	r3, [pc, #72]	; (6fc <set_aes_key+0x164>)
     6b2:	447b      	add	r3, pc
     6b4:	9300      	str	r3, [sp, #0]
     6b6:	f04f 0301 	mov.w	r3, #1
     6ba:	f04f 0201 	mov.w	r2, #1
     6be:	f44f 7189 	mov.w	r1, #274	; 0x112
     6c2:	480f      	ldr	r0, [pc, #60]	; (700 <set_aes_key+0x168>)
     6c4:	4478      	add	r0, pc
     6c6:	f003 fad6 	bl	3c76 <trace_printf>
/usr/src/app/examples/example_trustzone/ta1/ta1.c:275
     6ca:	69fb      	ldr	r3, [r7, #28]
     6cc:	e000      	b.n	6d0 <set_aes_key+0x138>
/usr/src/app/examples/example_trustzone/ta1/ta1.c:278
     6ce:	69fb      	ldr	r3, [r7, #28]
/usr/src/app/examples/example_trustzone/ta1/ta1.c:279 (discriminator 1)
     6d0:	4618      	mov	r0, r3
     6d2:	f107 0728 	add.w	r7, r7, #40	; 0x28
     6d6:	46bd      	mov	sp, r7
     6d8:	bd80      	pop	{r7, pc}
     6da:	bf00      	nop
     6dc:	00014b00 	.word	0x00014b00
     6e0:	00014fa2 	.word	0x00014fa2
     6e4:	00014b02 	.word	0x00014b02
     6e8:	00014966 	.word	0x00014966
     6ec:	00014ae6 	.word	0x00014ae6
     6f0:	00014f3c 	.word	0x00014f3c
     6f4:	000149f6 	.word	0x000149f6
     6f8:	00014ee0 	.word	0x00014ee0
     6fc:	000149da 	.word	0x000149da
     700:	00014e9c 	.word	0x00014e9c

00000704 <reset_aes_iv>:
reset_aes_iv():
/usr/src/app/examples/example_trustzone/ta1/ta1.c:282
     704:	e96d 7e02 	strd	r7, lr, [sp, #-8]!
     708:	b08a      	sub	sp, #40	; 0x28
     70a:	af02      	add	r7, sp, #8
     70c:	60f8      	str	r0, [r7, #12]
     70e:	60b9      	str	r1, [r7, #8]
     710:	607a      	str	r2, [r7, #4]
     712:	603b      	str	r3, [r7, #0]
/usr/src/app/examples/example_trustzone/ta1/ta1.c:287
     714:	68fb      	ldr	r3, [r7, #12]
     716:	9301      	str	r3, [sp, #4]
     718:	4b36      	ldr	r3, [pc, #216]	; (7f4 <reset_aes_iv+0xf0>)
     71a:	447b      	add	r3, pc
     71c:	9300      	str	r3, [sp, #0]
     71e:	f04f 0301 	mov.w	r3, #1
     722:	f04f 0203 	mov.w	r2, #3
     726:	f240 111f 	movw	r1, #287	; 0x11f
     72a:	4833      	ldr	r0, [pc, #204]	; (7f8 <reset_aes_iv+0xf4>)
     72c:	4478      	add	r0, pc
     72e:	f003 faa2 	bl	3c76 <trace_printf>
/usr/src/app/examples/example_trustzone/ta1/ta1.c:288
     732:	68fb      	ldr	r3, [r7, #12]
     734:	617b      	str	r3, [r7, #20]
/usr/src/app/examples/example_trustzone/ta1/ta1.c:290
     736:	4b31      	ldr	r3, [pc, #196]	; (7fc <reset_aes_iv+0xf8>)
     738:	447b      	add	r3, pc
     73a:	4618      	mov	r0, r3
     73c:	f004 fdac 	bl	5298 <puts>
/usr/src/app/examples/example_trustzone/ta1/ta1.c:291
     740:	f04f 0300 	mov.w	r3, #0
     744:	61fb      	str	r3, [r7, #28]
     746:	e00d      	b.n	764 <reset_aes_iv+0x60>
/usr/src/app/examples/example_trustzone/ta1/ta1.c:292 (discriminator 3)
     748:	69fb      	ldr	r3, [r7, #28]
     74a:	68ba      	ldr	r2, [r7, #8]
     74c:	4413      	add	r3, r2
     74e:	781b      	ldrb	r3, [r3, #0]
     750:	4619      	mov	r1, r3
     752:	4b2b      	ldr	r3, [pc, #172]	; (800 <reset_aes_iv+0xfc>)
     754:	447b      	add	r3, pc
     756:	4618      	mov	r0, r3
     758:	f004 fd64 	bl	5224 <printf>
/usr/src/app/examples/example_trustzone/ta1/ta1.c:291 (discriminator 3)
     75c:	69fb      	ldr	r3, [r7, #28]
     75e:	f103 0301 	add.w	r3, r3, #1
     762:	61fb      	str	r3, [r7, #28]
/usr/src/app/examples/example_trustzone/ta1/ta1.c:291 (discriminator 1)
     764:	69fb      	ldr	r3, [r7, #28]
     766:	687a      	ldr	r2, [r7, #4]
     768:	429a      	cmp	r2, r3
     76a:	d8ed      	bhi.n	748 <reset_aes_iv+0x44>
/usr/src/app/examples/example_trustzone/ta1/ta1.c:293
     76c:	f04f 000a 	mov.w	r0, #10
     770:	f004 fdae 	bl	52d0 <putchar>
/usr/src/app/examples/example_trustzone/ta1/ta1.c:294
     774:	f04f 0300 	mov.w	r3, #0
     778:	61bb      	str	r3, [r7, #24]
     77a:	e00d      	b.n	798 <reset_aes_iv+0x94>
/usr/src/app/examples/example_trustzone/ta1/ta1.c:295 (discriminator 3)
     77c:	69bb      	ldr	r3, [r7, #24]
     77e:	683a      	ldr	r2, [r7, #0]
     780:	4413      	add	r3, r2
     782:	781b      	ldrb	r3, [r3, #0]
     784:	4619      	mov	r1, r3
     786:	4b1f      	ldr	r3, [pc, #124]	; (804 <reset_aes_iv+0x100>)
     788:	447b      	add	r3, pc
     78a:	4618      	mov	r0, r3
     78c:	f004 fd4a 	bl	5224 <printf>
/usr/src/app/examples/example_trustzone/ta1/ta1.c:294 (discriminator 3)
     790:	69bb      	ldr	r3, [r7, #24]
     792:	f103 0301 	add.w	r3, r3, #1
     796:	61bb      	str	r3, [r7, #24]
/usr/src/app/examples/example_trustzone/ta1/ta1.c:294 (discriminator 1)
     798:	69bb      	ldr	r3, [r7, #24]
     79a:	6aba      	ldr	r2, [r7, #40]	; 0x28
     79c:	429a      	cmp	r2, r3
     79e:	d8ed      	bhi.n	77c <reset_aes_iv+0x78>
/usr/src/app/examples/example_trustzone/ta1/ta1.c:297
     7a0:	4b19      	ldr	r3, [pc, #100]	; (808 <reset_aes_iv+0x104>)
     7a2:	447b      	add	r3, pc
     7a4:	4618      	mov	r0, r3
     7a6:	f004 fd3d 	bl	5224 <printf>
/usr/src/app/examples/example_trustzone/ta1/ta1.c:299
     7aa:	697b      	ldr	r3, [r7, #20]
     7ac:	68d8      	ldr	r0, [r3, #12]
     7ae:	f04f 0310 	mov.w	r3, #16
     7b2:	9301      	str	r3, [sp, #4]
     7b4:	687b      	ldr	r3, [r7, #4]
     7b6:	9300      	str	r3, [sp, #0]
     7b8:	f04f 0380 	mov.w	r3, #128	; 0x80
     7bc:	6aba      	ldr	r2, [r7, #40]	; 0x28
     7be:	6839      	ldr	r1, [r7, #0]
     7c0:	f007 fd5f 	bl	8282 <TEE_AEInit>
/usr/src/app/examples/example_trustzone/ta1/ta1.c:301
     7c4:	4b11      	ldr	r3, [pc, #68]	; (80c <reset_aes_iv+0x108>)
     7c6:	447b      	add	r3, pc
     7c8:	4618      	mov	r0, r3
     7ca:	f004 fd2b 	bl	5224 <printf>
/usr/src/app/examples/example_trustzone/ta1/ta1.c:303
     7ce:	697b      	ldr	r3, [r7, #20]
     7d0:	68db      	ldr	r3, [r3, #12]
     7d2:	687a      	ldr	r2, [r7, #4]
     7d4:	68b9      	ldr	r1, [r7, #8]
     7d6:	4618      	mov	r0, r3
     7d8:	f007 fdca 	bl	8370 <TEE_AEUpdateAAD>
/usr/src/app/examples/example_trustzone/ta1/ta1.c:305
     7dc:	4b0c      	ldr	r3, [pc, #48]	; (810 <reset_aes_iv+0x10c>)
     7de:	447b      	add	r3, pc
     7e0:	4618      	mov	r0, r3
     7e2:	f004 fd1f 	bl	5224 <printf>
/usr/src/app/examples/example_trustzone/ta1/ta1.c:307
     7e6:	f04f 0300 	mov.w	r3, #0
/usr/src/app/examples/example_trustzone/ta1/ta1.c:308
     7ea:	4618      	mov	r0, r3
     7ec:	f107 0720 	add.w	r7, r7, #32
     7f0:	46bd      	mov	sp, r7
     7f2:	bd80      	pop	{r7, pc}
     7f4:	00014a02 	.word	0x00014a02
     7f8:	00014e40 	.word	0x00014e40
     7fc:	00014a08 	.word	0x00014a08
     800:	000147f8 	.word	0x000147f8
     804:	000147c4 	.word	0x000147c4
     808:	000149d6 	.word	0x000149d6
     80c:	000149da 	.word	0x000149da
     810:	000149ea 	.word	0x000149ea

00000814 <set_key>:
set_key():
/usr/src/app/examples/example_trustzone/ta1/ta1.c:312
     814:	e96d 4504 	strd	r4, r5, [sp, #-16]!
     818:	e9cd 7e02 	strd	r7, lr, [sp, #8]
     81c:	b0a0      	sub	sp, #128	; 0x80
     81e:	af04      	add	r7, sp, #16
     820:	60f8      	str	r0, [r7, #12]
     822:	60b9      	str	r1, [r7, #8]
     824:	607a      	str	r2, [r7, #4]
     826:	4ca2      	ldr	r4, [pc, #648]	; (ab0 <set_key+0x29c>)
     828:	447c      	add	r4, pc
/usr/src/app/examples/example_trustzone/ta1/ta1.c:313
     82a:	f04f 030c 	mov.w	r3, #12
     82e:	f6cf 73ff 	movt	r3, #65535	; 0xffff
     832:	66fb      	str	r3, [r7, #108]	; 0x6c
/usr/src/app/examples/example_trustzone/ta1/ta1.c:314
     834:	f240 5355 	movw	r3, #1365	; 0x555
     838:	657b      	str	r3, [r7, #84]	; 0x54
/usr/src/app/examples/example_trustzone/ta1/ta1.c:321
     83a:	68fb      	ldr	r3, [r7, #12]
     83c:	9301      	str	r3, [sp, #4]
     83e:	4b9d      	ldr	r3, [pc, #628]	; (ab4 <set_key+0x2a0>)
     840:	447b      	add	r3, pc
     842:	9300      	str	r3, [sp, #0]
     844:	f04f 0301 	mov.w	r3, #1
     848:	f04f 0203 	mov.w	r2, #3
     84c:	f240 1141 	movw	r1, #321	; 0x141
     850:	4899      	ldr	r0, [pc, #612]	; (ab8 <set_key+0x2a4>)
     852:	4478      	add	r0, pc
     854:	f003 fa0f 	bl	3c76 <trace_printf>
/usr/src/app/examples/example_trustzone/ta1/ta1.c:322
     858:	68fb      	ldr	r3, [r7, #12]
     85a:	653b      	str	r3, [r7, #80]	; 0x50
/usr/src/app/examples/example_trustzone/ta1/ta1.c:323
     85c:	f04f 0300 	mov.w	r3, #0
     860:	617b      	str	r3, [r7, #20]
     862:	f107 0318 	add.w	r3, r7, #24
     866:	efc0 0010 	vmov.i32	d16, #0	; 0x00000000
     86a:	edc3 0b00 	vstr	d16, [r3]
     86e:	edc3 0b01 	vstr	d16, [r3, #4]
/usr/src/app/examples/example_trustzone/ta1/ta1.c:324
     872:	f04f 0310 	mov.w	r3, #16
     876:	64fb      	str	r3, [r7, #76]	; 0x4c
/usr/src/app/examples/example_trustzone/ta1/ta1.c:326
     878:	f04f 0300 	mov.w	r3, #0
     87c:	f04f 0210 	mov.w	r2, #16
     880:	f04f 0102 	mov.w	r1, #2
     884:	6d38      	ldr	r0, [r7, #80]	; 0x50
     886:	f7ff fd67 	bl	358 <alloc_resources>
/usr/src/app/examples/example_trustzone/ta1/ta1.c:327
     88a:	f04f 0210 	mov.w	r2, #16
     88e:	4b8b      	ldr	r3, [pc, #556]	; (abc <set_key+0x2a8>)
     890:	58e3      	ldr	r3, [r4, r3]
     892:	4619      	mov	r1, r3
     894:	6d38      	ldr	r0, [r7, #80]	; 0x50
     896:	f7ff fe7f 	bl	598 <set_aes_key>
/usr/src/app/examples/example_trustzone/ta1/ta1.c:329
     89a:	687b      	ldr	r3, [r7, #4]
     89c:	6819      	ldr	r1, [r3, #0]
     89e:	687b      	ldr	r3, [r7, #4]
     8a0:	685a      	ldr	r2, [r3, #4]
     8a2:	f107 0014 	add.w	r0, r7, #20
     8a6:	6cfb      	ldr	r3, [r7, #76]	; 0x4c
     8a8:	9300      	str	r3, [sp, #0]
     8aa:	4603      	mov	r3, r0
     8ac:	6d38      	ldr	r0, [r7, #80]	; 0x50
     8ae:	f7ff ff29 	bl	704 <reset_aes_iv>
/usr/src/app/examples/example_trustzone/ta1/ta1.c:332
     8b2:	687b      	ldr	r3, [r7, #4]
     8b4:	681b      	ldr	r3, [r3, #0]
     8b6:	64bb      	str	r3, [r7, #72]	; 0x48
/usr/src/app/examples/example_trustzone/ta1/ta1.c:335
     8b8:	f04f 0300 	mov.w	r3, #0
     8bc:	647b      	str	r3, [r7, #68]	; 0x44
/usr/src/app/examples/example_trustzone/ta1/ta1.c:336
     8be:	f04f 0300 	mov.w	r3, #0
     8c2:	643b      	str	r3, [r7, #64]	; 0x40
/usr/src/app/examples/example_trustzone/ta1/ta1.c:339
     8c4:	f04f 0100 	mov.w	r1, #0
     8c8:	f04f 0010 	mov.w	r0, #16
     8cc:	f005 f9b8 	bl	5c40 <TEE_Malloc>
     8d0:	6478      	str	r0, [r7, #68]	; 0x44
/usr/src/app/examples/example_trustzone/ta1/ta1.c:340
     8d2:	687b      	ldr	r3, [r7, #4]
     8d4:	f103 0310 	add.w	r3, r3, #16
     8d8:	685b      	ldr	r3, [r3, #4]
     8da:	f04f 0100 	mov.w	r1, #0
     8de:	4618      	mov	r0, r3
     8e0:	f005 f9ae 	bl	5c40 <TEE_Malloc>
     8e4:	6438      	str	r0, [r7, #64]	; 0x40
/usr/src/app/examples/example_trustzone/ta1/ta1.c:341
     8e6:	6c7b      	ldr	r3, [r7, #68]	; 0x44
     8e8:	2b00      	cmp	r3, #0
     8ea:	f000 80cf 	beq.w	a8c <set_key+0x278>
/usr/src/app/examples/example_trustzone/ta1/ta1.c:341 (discriminator 1)
     8ee:	6c3b      	ldr	r3, [r7, #64]	; 0x40
     8f0:	2b00      	cmp	r3, #0
     8f2:	f000 80cb 	beq.w	a8c <set_key+0x278>
/usr/src/app/examples/example_trustzone/ta1/ta1.c:344
     8f6:	687b      	ldr	r3, [r7, #4]
     8f8:	f103 0310 	add.w	r3, r3, #16
     8fc:	6819      	ldr	r1, [r3, #0]
     8fe:	687b      	ldr	r3, [r7, #4]
     900:	f103 0310 	add.w	r3, r3, #16
     904:	685b      	ldr	r3, [r3, #4]
     906:	461a      	mov	r2, r3
     908:	6c38      	ldr	r0, [r7, #64]	; 0x40
     90a:	f005 f8b5 	bl	5a78 <TEE_MemMove>
/usr/src/app/examples/example_trustzone/ta1/ta1.c:346
     90e:	6d3b      	ldr	r3, [r7, #80]	; 0x50
     910:	68d8      	ldr	r0, [r3, #12]
     912:	687b      	ldr	r3, [r7, #4]
     914:	f103 0308 	add.w	r3, r3, #8
     918:	6819      	ldr	r1, [r3, #0]
/usr/src/app/examples/example_trustzone/ta1/ta1.c:347
     91a:	687b      	ldr	r3, [r7, #4]
     91c:	f103 0308 	add.w	r3, r3, #8
/usr/src/app/examples/example_trustzone/ta1/ta1.c:346
     920:	685d      	ldr	r5, [r3, #4]
/usr/src/app/examples/example_trustzone/ta1/ta1.c:347
     922:	687b      	ldr	r3, [r7, #4]
     924:	f103 0310 	add.w	r3, r3, #16
/usr/src/app/examples/example_trustzone/ta1/ta1.c:346
     928:	f103 0304 	add.w	r3, r3, #4
/usr/src/app/examples/example_trustzone/ta1/ta1.c:348
     92c:	687a      	ldr	r2, [r7, #4]
     92e:	f102 0210 	add.w	r2, r2, #16
/usr/src/app/examples/example_trustzone/ta1/ta1.c:346
     932:	6852      	ldr	r2, [r2, #4]
     934:	9202      	str	r2, [sp, #8]
     936:	6c3a      	ldr	r2, [r7, #64]	; 0x40
     938:	9201      	str	r2, [sp, #4]
     93a:	9300      	str	r3, [sp, #0]
     93c:	6c7b      	ldr	r3, [r7, #68]	; 0x44
     93e:	462a      	mov	r2, r5
     940:	f007 ff38 	bl	87b4 <TEE_AEDecryptFinal>
     944:	66f8      	str	r0, [r7, #108]	; 0x6c
/usr/src/app/examples/example_trustzone/ta1/ta1.c:350
     946:	6efb      	ldr	r3, [r7, #108]	; 0x6c
     948:	2b00      	cmp	r3, #0
     94a:	f040 80a1 	bne.w	a90 <set_key+0x27c>
/usr/src/app/examples/example_trustzone/ta1/ta1.c:351
     94e:	4b5c      	ldr	r3, [pc, #368]	; (ac0 <set_key+0x2ac>)
     950:	447b      	add	r3, pc
     952:	4618      	mov	r0, r3
     954:	f004 fca0 	bl	5298 <puts>
/usr/src/app/examples/example_trustzone/ta1/ta1.c:352
     958:	6c7b      	ldr	r3, [r7, #68]	; 0x44
     95a:	63fb      	str	r3, [r7, #60]	; 0x3c
/usr/src/app/examples/example_trustzone/ta1/ta1.c:353
     95c:	f04f 0300 	mov.w	r3, #0
     960:	66bb      	str	r3, [r7, #104]	; 0x68
     962:	e00d      	b.n	980 <set_key+0x16c>
/usr/src/app/examples/example_trustzone/ta1/ta1.c:354 (discriminator 3)
     964:	6ebb      	ldr	r3, [r7, #104]	; 0x68
     966:	6bfa      	ldr	r2, [r7, #60]	; 0x3c
     968:	4413      	add	r3, r2
     96a:	7819      	ldrb	r1, [r3, #0]
     96c:	f107 022c 	add.w	r2, r7, #44	; 0x2c
     970:	6ebb      	ldr	r3, [r7, #104]	; 0x68
     972:	4413      	add	r3, r2
     974:	460a      	mov	r2, r1
     976:	701a      	strb	r2, [r3, #0]
/usr/src/app/examples/example_trustzone/ta1/ta1.c:353 (discriminator 3)
     978:	6ebb      	ldr	r3, [r7, #104]	; 0x68
     97a:	f103 0301 	add.w	r3, r3, #1
     97e:	66bb      	str	r3, [r7, #104]	; 0x68
/usr/src/app/examples/example_trustzone/ta1/ta1.c:353 (discriminator 1)
     980:	6ebb      	ldr	r3, [r7, #104]	; 0x68
     982:	2b0f      	cmp	r3, #15
     984:	ddee      	ble.n	964 <set_key+0x150>
/usr/src/app/examples/example_trustzone/ta1/ta1.c:356
     986:	f04f 000a 	mov.w	r0, #10
     98a:	f004 fca1 	bl	52d0 <putchar>
/usr/src/app/examples/example_trustzone/ta1/ta1.c:357
     98e:	f04f 0300 	mov.w	r3, #0
     992:	667b      	str	r3, [r7, #100]	; 0x64
     994:	e00e      	b.n	9b4 <set_key+0x1a0>
/usr/src/app/examples/example_trustzone/ta1/ta1.c:358 (discriminator 3)
     996:	f107 022c 	add.w	r2, r7, #44	; 0x2c
     99a:	6e7b      	ldr	r3, [r7, #100]	; 0x64
     99c:	4413      	add	r3, r2
     99e:	781b      	ldrb	r3, [r3, #0]
     9a0:	4619      	mov	r1, r3
     9a2:	4b48      	ldr	r3, [pc, #288]	; (ac4 <set_key+0x2b0>)
     9a4:	447b      	add	r3, pc
     9a6:	4618      	mov	r0, r3
     9a8:	f004 fc3c 	bl	5224 <printf>
/usr/src/app/examples/example_trustzone/ta1/ta1.c:357 (discriminator 3)
     9ac:	6e7b      	ldr	r3, [r7, #100]	; 0x64
     9ae:	f103 0301 	add.w	r3, r3, #1
     9b2:	667b      	str	r3, [r7, #100]	; 0x64
/usr/src/app/examples/example_trustzone/ta1/ta1.c:357 (discriminator 1)
     9b4:	6e7b      	ldr	r3, [r7, #100]	; 0x64
     9b6:	2b0f      	cmp	r3, #15
     9b8:	dded      	ble.n	996 <set_key+0x182>
/usr/src/app/examples/example_trustzone/ta1/ta1.c:359
     9ba:	f04f 000a 	mov.w	r0, #10
     9be:	f004 fc87 	bl	52d0 <putchar>
/usr/src/app/examples/example_trustzone/ta1/ta1.c:361
     9c2:	f04f 0300 	mov.w	r3, #0
     9c6:	857b      	strh	r3, [r7, #42]	; 0x2a
/usr/src/app/examples/example_trustzone/ta1/ta1.c:363
     9c8:	6cbb      	ldr	r3, [r7, #72]	; 0x48
     9ca:	781b      	ldrb	r3, [r3, #0]
     9cc:	f887 3024 	strb.w	r3, [r7, #36]	; 0x24
/usr/src/app/examples/example_trustzone/ta1/ta1.c:365
     9d0:	f897 3024 	ldrb.w	r3, [r7, #36]	; 0x24
     9d4:	4619      	mov	r1, r3
     9d6:	4b3c      	ldr	r3, [pc, #240]	; (ac8 <set_key+0x2b4>)
     9d8:	447b      	add	r3, pc
     9da:	4618      	mov	r0, r3
     9dc:	f004 fc22 	bl	5224 <printf>
/usr/src/app/examples/example_trustzone/ta1/ta1.c:367
     9e0:	f04f 0300 	mov.w	r3, #0
     9e4:	663b      	str	r3, [r7, #96]	; 0x60
/usr/src/app/examples/example_trustzone/ta1/ta1.c:368
     9e6:	f04f 0300 	mov.w	r3, #0
     9ea:	84fb      	strh	r3, [r7, #38]	; 0x26
/usr/src/app/examples/example_trustzone/ta1/ta1.c:369
     9ec:	f04f 0302 	mov.w	r3, #2
     9f0:	65fb      	str	r3, [r7, #92]	; 0x5c
     9f2:	e016      	b.n	a22 <set_key+0x20e>
/usr/src/app/examples/example_trustzone/ta1/ta1.c:370 (discriminator 3)
     9f4:	8cfa      	ldrh	r2, [r7, #38]	; 0x26
     9f6:	6dfb      	ldr	r3, [r7, #92]	; 0x5c
     9f8:	6cb9      	ldr	r1, [r7, #72]	; 0x48
     9fa:	440b      	add	r3, r1
     9fc:	781b      	ldrb	r3, [r3, #0]
     9fe:	4619      	mov	r1, r3
     a00:	6e3b      	ldr	r3, [r7, #96]	; 0x60
     a02:	ea4f 03c3 	mov.w	r3, r3, lsl #3
     a06:	fa01 f303 	lsl.w	r3, r1, r3
     a0a:	b29b      	uxth	r3, r3
     a0c:	4413      	add	r3, r2
     a0e:	b29b      	uxth	r3, r3
     a10:	84fb      	strh	r3, [r7, #38]	; 0x26
/usr/src/app/examples/example_trustzone/ta1/ta1.c:371 (discriminator 3)
     a12:	6e3b      	ldr	r3, [r7, #96]	; 0x60
     a14:	f103 0301 	add.w	r3, r3, #1
     a18:	663b      	str	r3, [r7, #96]	; 0x60
/usr/src/app/examples/example_trustzone/ta1/ta1.c:369 (discriminator 3)
     a1a:	6dfb      	ldr	r3, [r7, #92]	; 0x5c
     a1c:	f103 33ff 	add.w	r3, r3, #4294967295	; 0xffffffff
     a20:	65fb      	str	r3, [r7, #92]	; 0x5c
/usr/src/app/examples/example_trustzone/ta1/ta1.c:369 (discriminator 1)
     a22:	6dfb      	ldr	r3, [r7, #92]	; 0x5c
     a24:	2b00      	cmp	r3, #0
     a26:	dce5      	bgt.n	9f4 <set_key+0x1e0>
/usr/src/app/examples/example_trustzone/ta1/ta1.c:373
     a28:	f04f 0300 	mov.w	r3, #0
     a2c:	663b      	str	r3, [r7, #96]	; 0x60
/usr/src/app/examples/example_trustzone/ta1/ta1.c:374
     a2e:	f04f 0300 	mov.w	r3, #0
     a32:	853b      	strh	r3, [r7, #40]	; 0x28
/usr/src/app/examples/example_trustzone/ta1/ta1.c:375
     a34:	f04f 0304 	mov.w	r3, #4
     a38:	65bb      	str	r3, [r7, #88]	; 0x58
     a3a:	e016      	b.n	a6a <set_key+0x256>
/usr/src/app/examples/example_trustzone/ta1/ta1.c:376 (discriminator 3)
     a3c:	8d3a      	ldrh	r2, [r7, #40]	; 0x28
     a3e:	6dbb      	ldr	r3, [r7, #88]	; 0x58
     a40:	6cb9      	ldr	r1, [r7, #72]	; 0x48
     a42:	440b      	add	r3, r1
     a44:	781b      	ldrb	r3, [r3, #0]
     a46:	4619      	mov	r1, r3
     a48:	6e3b      	ldr	r3, [r7, #96]	; 0x60
     a4a:	ea4f 03c3 	mov.w	r3, r3, lsl #3
     a4e:	fa01 f303 	lsl.w	r3, r1, r3
     a52:	b29b      	uxth	r3, r3
     a54:	4413      	add	r3, r2
     a56:	b29b      	uxth	r3, r3
     a58:	853b      	strh	r3, [r7, #40]	; 0x28
/usr/src/app/examples/example_trustzone/ta1/ta1.c:377 (discriminator 3)
     a5a:	6e3b      	ldr	r3, [r7, #96]	; 0x60
     a5c:	f103 0301 	add.w	r3, r3, #1
     a60:	663b      	str	r3, [r7, #96]	; 0x60
/usr/src/app/examples/example_trustzone/ta1/ta1.c:375 (discriminator 3)
     a62:	6dbb      	ldr	r3, [r7, #88]	; 0x58
     a64:	f103 33ff 	add.w	r3, r3, #4294967295	; 0xffffffff
     a68:	65bb      	str	r3, [r7, #88]	; 0x58
/usr/src/app/examples/example_trustzone/ta1/ta1.c:375 (discriminator 1)
     a6a:	6dbb      	ldr	r3, [r7, #88]	; 0x58
     a6c:	2b02      	cmp	r3, #2
     a6e:	dce5      	bgt.n	a3c <set_key+0x228>
/usr/src/app/examples/example_trustzone/ta1/ta1.c:379
     a70:	4b16      	ldr	r3, [pc, #88]	; (acc <set_key+0x2b8>)
     a72:	58e3      	ldr	r3, [r4, r3]
     a74:	681b      	ldr	r3, [r3, #0]
     a76:	f103 0201 	add.w	r2, r3, #1
     a7a:	4b14      	ldr	r3, [pc, #80]	; (acc <set_key+0x2b8>)
     a7c:	58e3      	ldr	r3, [r4, r3]
     a7e:	601a      	str	r2, [r3, #0]
/usr/src/app/examples/example_trustzone/ta1/ta1.c:380
     a80:	f107 0324 	add.w	r3, r7, #36	; 0x24
     a84:	4618      	mov	r0, r3
     a86:	f7ff fadf 	bl	48 <connections_add>
     a8a:	e002      	b.n	a92 <set_key+0x27e>
/usr/src/app/examples/example_trustzone/ta1/ta1.c:342
     a8c:	bf00      	nop
     a8e:	e000      	b.n	a92 <set_key+0x27e>
/usr/src/app/examples/example_trustzone/ta1/ta1.c:383
     a90:	bf00      	nop
/usr/src/app/examples/example_trustzone/ta1/ta1.c:384
     a92:	6c78      	ldr	r0, [r7, #68]	; 0x44
     a94:	f005 f918 	bl	5cc8 <TEE_Free>
/usr/src/app/examples/example_trustzone/ta1/ta1.c:385
     a98:	6c38      	ldr	r0, [r7, #64]	; 0x40
     a9a:	f005 f915 	bl	5cc8 <TEE_Free>
/usr/src/app/examples/example_trustzone/ta1/ta1.c:387
     a9e:	6efb      	ldr	r3, [r7, #108]	; 0x6c
/usr/src/app/examples/example_trustzone/ta1/ta1.c:388
     aa0:	4618      	mov	r0, r3
     aa2:	f107 0770 	add.w	r7, r7, #112	; 0x70
     aa6:	46bd      	mov	sp, r7
     aa8:	e9dd 4500 	ldrd	r4, r5, [sp]
     aac:	b002      	add	sp, #8
     aae:	bd80      	pop	{r7, pc}
     ab0:	0001885c 	.word	0x0001885c
     ab4:	000149b0 	.word	0x000149b0
     ab8:	00014d2a 	.word	0x00014d2a
     abc:	00000044 	.word	0x00000044
     ac0:	000148bc 	.word	0x000148bc
     ac4:	000145a8 	.word	0x000145a8
     ac8:	0001484c 	.word	0x0001484c
     acc:	00000010 	.word	0x00000010

00000ad0 <attest>:
attest():
/usr/src/app/examples/example_trustzone/ta1/ta1.c:394
     ad0:	f84d 4d0c 	str.w	r4, [sp, #-12]!
     ad4:	e9cd 7e01 	strd	r7, lr, [sp, #4]
     ad8:	b0a9      	sub	sp, #164	; 0xa4
     ada:	af04      	add	r7, sp, #16
     adc:	60f8      	str	r0, [r7, #12]
     ade:	60b9      	str	r1, [r7, #8]
     ae0:	607a      	str	r2, [r7, #4]
     ae2:	4ca5      	ldr	r4, [pc, #660]	; (d78 <attest+0x2a8>)
     ae4:	447c      	add	r4, pc
/usr/src/app/examples/example_trustzone/ta1/ta1.c:395
     ae6:	f04f 030c 	mov.w	r3, #12
     aea:	f6cf 73ff 	movt	r3, #65535	; 0xffff
     aee:	f8c7 3084 	str.w	r3, [r7, #132]	; 0x84
/usr/src/app/examples/example_trustzone/ta1/ta1.c:396
     af2:	f04f 0365 	mov.w	r3, #101	; 0x65
     af6:	f8c7 3080 	str.w	r3, [r7, #128]	; 0x80
/usr/src/app/examples/example_trustzone/ta1/ta1.c:402
     afa:	68fb      	ldr	r3, [r7, #12]
     afc:	9301      	str	r3, [sp, #4]
     afe:	4b9f      	ldr	r3, [pc, #636]	; (d7c <attest+0x2ac>)
     b00:	447b      	add	r3, pc
     b02:	9300      	str	r3, [sp, #0]
     b04:	f04f 0301 	mov.w	r3, #1
     b08:	f04f 0203 	mov.w	r2, #3
     b0c:	f44f 71c9 	mov.w	r1, #402	; 0x192
     b10:	489b      	ldr	r0, [pc, #620]	; (d80 <attest+0x2b0>)
     b12:	4478      	add	r0, pc
     b14:	f003 f8af 	bl	3c76 <trace_printf>
/usr/src/app/examples/example_trustzone/ta1/ta1.c:403
     b18:	68fb      	ldr	r3, [r7, #12]
     b1a:	67fb      	str	r3, [r7, #124]	; 0x7c
/usr/src/app/examples/example_trustzone/ta1/ta1.c:406
     b1c:	f04f 0300 	mov.w	r3, #0
     b20:	667b      	str	r3, [r7, #100]	; 0x64
/usr/src/app/examples/example_trustzone/ta1/ta1.c:407
     b22:	f04f 0300 	mov.w	r3, #0
     b26:	663b      	str	r3, [r7, #96]	; 0x60
/usr/src/app/examples/example_trustzone/ta1/ta1.c:408
     b28:	f04f 0306 	mov.w	r3, #6
     b2c:	67bb      	str	r3, [r7, #120]	; 0x78
/usr/src/app/examples/example_trustzone/ta1/ta1.c:415
     b2e:	4b95      	ldr	r3, [pc, #596]	; (d84 <attest+0x2b4>)
     b30:	58e3      	ldr	r3, [r4, r3]
     b32:	643b      	str	r3, [r7, #64]	; 0x40
/usr/src/app/examples/example_trustzone/ta1/ta1.c:416
     b34:	f04f 0310 	mov.w	r3, #16
     b38:	647b      	str	r3, [r7, #68]	; 0x44
/usr/src/app/examples/example_trustzone/ta1/ta1.c:419
     b3a:	f107 0360 	add.w	r3, r7, #96	; 0x60
     b3e:	9301      	str	r3, [sp, #4]
     b40:	f107 0364 	add.w	r3, r7, #100	; 0x64
     b44:	9300      	str	r3, [sp, #0]
     b46:	f04f 0300 	mov.w	r3, #0
     b4a:	f04f 0200 	mov.w	r2, #0
     b4e:	f04f 0100 	mov.w	r1, #0
     b52:	488d      	ldr	r0, [pc, #564]	; (d88 <attest+0x2b8>)
     b54:	4478      	add	r0, pc
     b56:	f004 fdde 	bl	5716 <TEE_OpenTASession>
     b5a:	f8c7 0084 	str.w	r0, [r7, #132]	; 0x84
/usr/src/app/examples/example_trustzone/ta1/ta1.c:421
     b5e:	f8d7 3084 	ldr.w	r3, [r7, #132]	; 0x84
     b62:	2b00      	cmp	r3, #0
     b64:	d002      	beq.n	b6c <attest+0x9c>
/usr/src/app/examples/example_trustzone/ta1/ta1.c:422
     b66:	f8d7 3084 	ldr.w	r3, [r7, #132]	; 0x84
     b6a:	e0fc      	b.n	d66 <attest+0x296>
/usr/src/app/examples/example_trustzone/ta1/ta1.c:425
     b6c:	6e78      	ldr	r0, [r7, #100]	; 0x64
     b6e:	f107 0360 	add.w	r3, r7, #96	; 0x60
     b72:	9301      	str	r3, [sp, #4]
     b74:	f107 0340 	add.w	r3, r7, #64	; 0x40
     b78:	9300      	str	r3, [sp, #0]
     b7a:	6fbb      	ldr	r3, [r7, #120]	; 0x78
     b7c:	f04f 0200 	mov.w	r2, #0
     b80:	f04f 0100 	mov.w	r1, #0
     b84:	f004 fe56 	bl	5834 <TEE_InvokeTACommand>
     b88:	f8c7 0084 	str.w	r0, [r7, #132]	; 0x84
/usr/src/app/examples/example_trustzone/ta1/ta1.c:427
     b8c:	f8d7 3084 	ldr.w	r3, [r7, #132]	; 0x84
     b90:	2b00      	cmp	r3, #0
     b92:	d002      	beq.n	b9a <attest+0xca>
/usr/src/app/examples/example_trustzone/ta1/ta1.c:428
     b94:	f8d7 3084 	ldr.w	r3, [r7, #132]	; 0x84
     b98:	e0e5      	b.n	d66 <attest+0x296>
/usr/src/app/examples/example_trustzone/ta1/ta1.c:431
     b9a:	6e7b      	ldr	r3, [r7, #100]	; 0x64
     b9c:	4618      	mov	r0, r3
     b9e:	f004 fe31 	bl	5804 <TEE_CloseTASession>
/usr/src/app/examples/example_trustzone/ta1/ta1.c:434
     ba2:	f04f 0300 	mov.w	r3, #0
     ba6:	633b      	str	r3, [r7, #48]	; 0x30
     ba8:	f107 0334 	add.w	r3, r7, #52	; 0x34
     bac:	efc0 0010 	vmov.i32	d16, #0	; 0x00000000
     bb0:	edc3 0b00 	vstr	d16, [r3]
     bb4:	edc3 0b01 	vstr	d16, [r3, #4]
/usr/src/app/examples/example_trustzone/ta1/ta1.c:435
     bb8:	f04f 0310 	mov.w	r3, #16
     bbc:	677b      	str	r3, [r7, #116]	; 0x74
/usr/src/app/examples/example_trustzone/ta1/ta1.c:437
     bbe:	f04f 0301 	mov.w	r3, #1
     bc2:	f04f 0210 	mov.w	r2, #16
     bc6:	f04f 0102 	mov.w	r1, #2
     bca:	6ff8      	ldr	r0, [r7, #124]	; 0x7c
     bcc:	f7ff fbc4 	bl	358 <alloc_resources>
/usr/src/app/examples/example_trustzone/ta1/ta1.c:438
     bd0:	f04f 0210 	mov.w	r2, #16
     bd4:	4b6b      	ldr	r3, [pc, #428]	; (d84 <attest+0x2b4>)
     bd6:	58e3      	ldr	r3, [r4, r3]
     bd8:	4619      	mov	r1, r3
     bda:	6ff8      	ldr	r0, [r7, #124]	; 0x7c
     bdc:	f7ff fcdc 	bl	598 <set_aes_key>
/usr/src/app/examples/example_trustzone/ta1/ta1.c:439
     be0:	687b      	ldr	r3, [r7, #4]
     be2:	6819      	ldr	r1, [r3, #0]
     be4:	687b      	ldr	r3, [r7, #4]
     be6:	685a      	ldr	r2, [r3, #4]
     be8:	f107 0030 	add.w	r0, r7, #48	; 0x30
     bec:	6f7b      	ldr	r3, [r7, #116]	; 0x74
     bee:	9300      	str	r3, [sp, #0]
     bf0:	4603      	mov	r3, r0
     bf2:	6ff8      	ldr	r0, [r7, #124]	; 0x7c
     bf4:	f7ff fd86 	bl	704 <reset_aes_iv>
/usr/src/app/examples/example_trustzone/ta1/ta1.c:441
     bf8:	f04f 0300 	mov.w	r3, #0
     bfc:	623b      	str	r3, [r7, #32]
     bfe:	f107 0324 	add.w	r3, r7, #36	; 0x24
     c02:	efc0 0010 	vmov.i32	d16, #0	; 0x00000000
     c06:	edc3 0b00 	vstr	d16, [r3]
     c0a:	edc3 0b01 	vstr	d16, [r3, #4]
/usr/src/app/examples/example_trustzone/ta1/ta1.c:442
     c0e:	f04f 0300 	mov.w	r3, #0
     c12:	613b      	str	r3, [r7, #16]
     c14:	f107 0314 	add.w	r3, r7, #20
     c18:	efc0 0010 	vmov.i32	d16, #0	; 0x00000000
     c1c:	edc3 0b00 	vstr	d16, [r3]
     c20:	edc3 0b01 	vstr	d16, [r3, #4]
/usr/src/app/examples/example_trustzone/ta1/ta1.c:443
     c24:	687b      	ldr	r3, [r7, #4]
     c26:	681a      	ldr	r2, [r3, #0]
     c28:	f107 0320 	add.w	r3, r7, #32
     c2c:	4611      	mov	r1, r2
     c2e:	f04f 0210 	mov.w	r2, #16
     c32:	4618      	mov	r0, r3
     c34:	f012 fc78 	bl	13528 <memcpy>
/usr/src/app/examples/example_trustzone/ta1/ta1.c:444
     c38:	f04f 0300 	mov.w	r3, #0
     c3c:	f8c7 308c 	str.w	r3, [r7, #140]	; 0x8c
     c40:	e011      	b.n	c66 <attest+0x196>
/usr/src/app/examples/example_trustzone/ta1/ta1.c:445 (discriminator 3)
     c42:	f107 0220 	add.w	r2, r7, #32
     c46:	f8d7 308c 	ldr.w	r3, [r7, #140]	; 0x8c
     c4a:	4413      	add	r3, r2
     c4c:	781b      	ldrb	r3, [r3, #0]
     c4e:	4619      	mov	r1, r3
     c50:	4b4e      	ldr	r3, [pc, #312]	; (d8c <attest+0x2bc>)
     c52:	447b      	add	r3, pc
     c54:	4618      	mov	r0, r3
     c56:	f004 fae5 	bl	5224 <printf>
/usr/src/app/examples/example_trustzone/ta1/ta1.c:444 (discriminator 3)
     c5a:	f8d7 308c 	ldr.w	r3, [r7, #140]	; 0x8c
     c5e:	f103 0301 	add.w	r3, r3, #1
     c62:	f8c7 308c 	str.w	r3, [r7, #140]	; 0x8c
/usr/src/app/examples/example_trustzone/ta1/ta1.c:444 (discriminator 1)
     c66:	f8d7 308c 	ldr.w	r3, [r7, #140]	; 0x8c
     c6a:	2b0f      	cmp	r3, #15
     c6c:	dde9      	ble.n	c42 <attest+0x172>
/usr/src/app/examples/example_trustzone/ta1/ta1.c:447
     c6e:	f04f 0300 	mov.w	r3, #0
     c72:	673b      	str	r3, [r7, #112]	; 0x70
/usr/src/app/examples/example_trustzone/ta1/ta1.c:448
     c74:	f04f 0300 	mov.w	r3, #0
     c78:	66fb      	str	r3, [r7, #108]	; 0x6c
/usr/src/app/examples/example_trustzone/ta1/ta1.c:449
     c7a:	f04f 0300 	mov.w	r3, #0
     c7e:	66bb      	str	r3, [r7, #104]	; 0x68
/usr/src/app/examples/example_trustzone/ta1/ta1.c:451
     c80:	f04f 0100 	mov.w	r1, #0
     c84:	f04f 0010 	mov.w	r0, #16
     c88:	f004 ffda 	bl	5c40 <TEE_Malloc>
     c8c:	6738      	str	r0, [r7, #112]	; 0x70
/usr/src/app/examples/example_trustzone/ta1/ta1.c:452
     c8e:	f04f 0100 	mov.w	r1, #0
     c92:	f04f 0010 	mov.w	r0, #16
     c96:	f004 ffd3 	bl	5c40 <TEE_Malloc>
     c9a:	66f8      	str	r0, [r7, #108]	; 0x6c
/usr/src/app/examples/example_trustzone/ta1/ta1.c:453
     c9c:	f04f 0100 	mov.w	r1, #0
     ca0:	f04f 0010 	mov.w	r0, #16
     ca4:	f004 ffcc 	bl	5c40 <TEE_Malloc>
     ca8:	66b8      	str	r0, [r7, #104]	; 0x68
/usr/src/app/examples/example_trustzone/ta1/ta1.c:455
     caa:	6ffb      	ldr	r3, [r7, #124]	; 0x7c
     cac:	68d8      	ldr	r0, [r3, #12]
     cae:	687b      	ldr	r3, [r7, #4]
     cb0:	f103 0304 	add.w	r3, r3, #4
     cb4:	687a      	ldr	r2, [r7, #4]
     cb6:	f102 0204 	add.w	r2, r2, #4
     cba:	9202      	str	r2, [sp, #8]
     cbc:	6eba      	ldr	r2, [r7, #104]	; 0x68
     cbe:	9201      	str	r2, [sp, #4]
     cc0:	9300      	str	r3, [sp, #0]
     cc2:	6efb      	ldr	r3, [r7, #108]	; 0x6c
     cc4:	f04f 0210 	mov.w	r2, #16
     cc8:	6f39      	ldr	r1, [r7, #112]	; 0x70
     cca:	f007 fc61 	bl	8590 <TEE_AEEncryptFinal>
     cce:	f8c7 0084 	str.w	r0, [r7, #132]	; 0x84
/usr/src/app/examples/example_trustzone/ta1/ta1.c:459
     cd2:	f8d7 3084 	ldr.w	r3, [r7, #132]	; 0x84
     cd6:	2b00      	cmp	r3, #0
     cd8:	d116      	bne.n	d08 <attest+0x238>
/usr/src/app/examples/example_trustzone/ta1/ta1.c:460
     cda:	4b2d      	ldr	r3, [pc, #180]	; (d90 <attest+0x2c0>)
     cdc:	447b      	add	r3, pc
     cde:	4618      	mov	r0, r3
     ce0:	f004 fada 	bl	5298 <puts>
/usr/src/app/examples/example_trustzone/ta1/ta1.c:461
     ce4:	687b      	ldr	r3, [r7, #4]
     ce6:	f103 0308 	add.w	r3, r3, #8
     cea:	f04f 0210 	mov.w	r2, #16
     cee:	605a      	str	r2, [r3, #4]
/usr/src/app/examples/example_trustzone/ta1/ta1.c:462
     cf0:	687b      	ldr	r3, [r7, #4]
     cf2:	f103 0308 	add.w	r3, r3, #8
     cf6:	6818      	ldr	r0, [r3, #0]
     cf8:	687b      	ldr	r3, [r7, #4]
     cfa:	f103 0308 	add.w	r3, r3, #8
     cfe:	685b      	ldr	r3, [r3, #4]
     d00:	461a      	mov	r2, r3
     d02:	6eb9      	ldr	r1, [r7, #104]	; 0x68
     d04:	f004 feb8 	bl	5a78 <TEE_MemMove>
/usr/src/app/examples/example_trustzone/ta1/ta1.c:464
     d08:	6eba      	ldr	r2, [r7, #104]	; 0x68
     d0a:	f107 0310 	add.w	r3, r7, #16
     d0e:	4611      	mov	r1, r2
     d10:	f04f 0210 	mov.w	r2, #16
     d14:	4618      	mov	r0, r3
     d16:	f012 fc07 	bl	13528 <memcpy>
/usr/src/app/examples/example_trustzone/ta1/ta1.c:465
     d1a:	f04f 0300 	mov.w	r3, #0
     d1e:	f8c7 3088 	str.w	r3, [r7, #136]	; 0x88
     d22:	e011      	b.n	d48 <attest+0x278>
/usr/src/app/examples/example_trustzone/ta1/ta1.c:466 (discriminator 3)
     d24:	f107 0210 	add.w	r2, r7, #16
     d28:	f8d7 3088 	ldr.w	r3, [r7, #136]	; 0x88
     d2c:	4413      	add	r3, r2
     d2e:	781b      	ldrb	r3, [r3, #0]
     d30:	4619      	mov	r1, r3
     d32:	4b18      	ldr	r3, [pc, #96]	; (d94 <attest+0x2c4>)
     d34:	447b      	add	r3, pc
     d36:	4618      	mov	r0, r3
     d38:	f004 fa74 	bl	5224 <printf>
/usr/src/app/examples/example_trustzone/ta1/ta1.c:465 (discriminator 3)
     d3c:	f8d7 3088 	ldr.w	r3, [r7, #136]	; 0x88
     d40:	f103 0301 	add.w	r3, r3, #1
     d44:	f8c7 3088 	str.w	r3, [r7, #136]	; 0x88
/usr/src/app/examples/example_trustzone/ta1/ta1.c:465 (discriminator 1)
     d48:	f8d7 3088 	ldr.w	r3, [r7, #136]	; 0x88
     d4c:	2b0f      	cmp	r3, #15
     d4e:	dde9      	ble.n	d24 <attest+0x254>
/usr/src/app/examples/example_trustzone/ta1/ta1.c:468
     d50:	6ef8      	ldr	r0, [r7, #108]	; 0x6c
     d52:	f004 ffb9 	bl	5cc8 <TEE_Free>
/usr/src/app/examples/example_trustzone/ta1/ta1.c:469
     d56:	6f38      	ldr	r0, [r7, #112]	; 0x70
     d58:	f004 ffb6 	bl	5cc8 <TEE_Free>
/usr/src/app/examples/example_trustzone/ta1/ta1.c:470
     d5c:	6eb8      	ldr	r0, [r7, #104]	; 0x68
     d5e:	f004 ffb3 	bl	5cc8 <TEE_Free>
/usr/src/app/examples/example_trustzone/ta1/ta1.c:472
     d62:	f04f 0300 	mov.w	r3, #0
/usr/src/app/examples/example_trustzone/ta1/ta1.c:474 (discriminator 1)
     d66:	4618      	mov	r0, r3
     d68:	f107 0794 	add.w	r7, r7, #148	; 0x94
     d6c:	46bd      	mov	sp, r7
     d6e:	e9dd 4700 	ldrd	r4, r7, [sp]
     d72:	b002      	add	sp, #8
     d74:	f85d fb04 	ldr.w	pc, [sp], #4
     d78:	000185a0 	.word	0x000185a0
     d7c:	000146f0 	.word	0x000146f0
     d80:	00014a72 	.word	0x00014a72
     d84:	00000044 	.word	0x00000044
     d88:	000143c0 	.word	0x000143c0
     d8c:	000142fa 	.word	0x000142fa
     d90:	00014560 	.word	0x00014560
     d94:	0001451c 	.word	0x0001451c

00000d98 <handle_output>:
handle_output():
/usr/src/app/examples/example_trustzone/ta1/ta1.c:479
     d98:	f84d 4d24 	str.w	r4, [sp, #-36]!
     d9c:	e9cd 5601 	strd	r5, r6, [sp, #4]
     da0:	e9cd 7803 	strd	r7, r8, [sp, #12]
     da4:	e9cd 9a05 	strd	r9, sl, [sp, #20]
     da8:	e9cd be07 	strd	fp, lr, [sp, #28]
     dac:	b0b9      	sub	sp, #228	; 0xe4
     dae:	af08      	add	r7, sp, #32
     db0:	61f8      	str	r0, [r7, #28]
     db2:	617a      	str	r2, [r7, #20]
     db4:	613b      	str	r3, [r7, #16]
     db6:	460b      	mov	r3, r1
     db8:	837b      	strh	r3, [r7, #26]
     dba:	f8df 65e4 	ldr.w	r6, [pc, #1508]	; 13a0 <handle_output+0x608>
     dbe:	447e      	add	r6, pc
     dc0:	466b      	mov	r3, sp
     dc2:	607b      	str	r3, [r7, #4]
/usr/src/app/examples/example_trustzone/ta1/ta1.c:481
     dc4:	f246 7363 	movw	r3, #26467	; 0x6763
     dc8:	f8c7 30a0 	str.w	r3, [r7, #160]	; 0xa0
/usr/src/app/examples/example_trustzone/ta1/ta1.c:486
     dcc:	f8df 35d4 	ldr.w	r3, [pc, #1492]	; 13a4 <handle_output+0x60c>
     dd0:	447b      	add	r3, pc
     dd2:	4618      	mov	r0, r3
     dd4:	f004 fa60 	bl	5298 <puts>
/usr/src/app/examples/example_trustzone/ta1/ta1.c:488
     dd8:	69fb      	ldr	r3, [r7, #28]
     dda:	f8c7 309c 	str.w	r3, [r7, #156]	; 0x9c
/usr/src/app/examples/example_trustzone/ta1/ta1.c:490
     dde:	693b      	ldr	r3, [r7, #16]
     de0:	681b      	ldr	r3, [r3, #0]
     de2:	667b      	str	r3, [r7, #100]	; 0x64
/usr/src/app/examples/example_trustzone/ta1/ta1.c:491
     de4:	6e7b      	ldr	r3, [r7, #100]	; 0x64
     de6:	4619      	mov	r1, r3
     de8:	f8df 35bc 	ldr.w	r3, [pc, #1468]	; 13a8 <handle_output+0x610>
     dec:	447b      	add	r3, pc
     dee:	4618      	mov	r0, r3
     df0:	f004 fa18 	bl	5224 <printf>
/usr/src/app/examples/example_trustzone/ta1/ta1.c:492
     df4:	f04f 0300 	mov.w	r3, #0
     df8:	f887 3063 	strb.w	r3, [r7, #99]	; 0x63
/usr/src/app/examples/example_trustzone/ta1/ta1.c:498
     dfc:	f8df 35ac 	ldr.w	r3, [pc, #1452]	; 13ac <handle_output+0x614>
     e00:	58f3      	ldr	r3, [r6, r3]
     e02:	6819      	ldr	r1, [r3, #0]
     e04:	f101 33ff 	add.w	r3, r1, #4294967295	; 0xffffffff
     e08:	f8c7 3098 	str.w	r3, [r7, #152]	; 0x98
     e0c:	460a      	mov	r2, r1
     e0e:	f04f 0300 	mov.w	r3, #0
     e12:	60ba      	str	r2, [r7, #8]
     e14:	60fb      	str	r3, [r7, #12]
     e16:	f04f 0200 	mov.w	r2, #0
     e1a:	f04f 0300 	mov.w	r3, #0
     e1e:	68f8      	ldr	r0, [r7, #12]
     e20:	ea4f 1340 	mov.w	r3, r0, lsl #5
     e24:	68b8      	ldr	r0, [r7, #8]
     e26:	ea43 63d0 	orr.w	r3, r3, r0, lsr #27
     e2a:	68b8      	ldr	r0, [r7, #8]
     e2c:	ea4f 1240 	mov.w	r2, r0, lsl #5
     e30:	460a      	mov	r2, r1
     e32:	f04f 0300 	mov.w	r3, #0
     e36:	4692      	mov	sl, r2
     e38:	469b      	mov	fp, r3
     e3a:	f04f 0200 	mov.w	r2, #0
     e3e:	f04f 0300 	mov.w	r3, #0
     e42:	ea4f 134b 	mov.w	r3, fp, lsl #5
     e46:	ea43 63da 	orr.w	r3, r3, sl, lsr #27
     e4a:	ea4f 124a 	mov.w	r2, sl, lsl #5
     e4e:	460b      	mov	r3, r1
     e50:	ea4f 0383 	mov.w	r3, r3, lsl #2
     e54:	f103 0307 	add.w	r3, r3, #7
     e58:	ea4f 03d3 	mov.w	r3, r3, lsr #3
     e5c:	ea4f 03c3 	mov.w	r3, r3, lsl #3
     e60:	ebad 0d03 	sub.w	sp, sp, r3
     e64:	ab08      	add	r3, sp, #32
     e66:	f103 0303 	add.w	r3, r3, #3
     e6a:	ea4f 0393 	mov.w	r3, r3, lsr #2
     e6e:	ea4f 0383 	mov.w	r3, r3, lsl #2
     e72:	f8c7 3094 	str.w	r3, [r7, #148]	; 0x94
/usr/src/app/examples/example_trustzone/ta1/ta1.c:499
     e76:	f107 0263 	add.w	r2, r7, #99	; 0x63
     e7a:	8b7b      	ldrh	r3, [r7, #26]
     e7c:	f8d7 1094 	ldr.w	r1, [r7, #148]	; 0x94
     e80:	4618      	mov	r0, r3
     e82:	f7ff f973 	bl	16c <find_connections>
/usr/src/app/examples/example_trustzone/ta1/ta1.c:500
     e86:	f897 3063 	ldrb.w	r3, [r7, #99]	; 0x63
     e8a:	4619      	mov	r1, r3
     e8c:	f8d7 3094 	ldr.w	r3, [r7, #148]	; 0x94
     e90:	681b      	ldr	r3, [r3, #0]
     e92:	461a      	mov	r2, r3
     e94:	f8df 3518 	ldr.w	r3, [pc, #1304]	; 13b0 <handle_output+0x618>
     e98:	447b      	add	r3, pc
     e9a:	4618      	mov	r0, r3
     e9c:	f004 f9c2 	bl	5224 <printf>
/usr/src/app/examples/example_trustzone/ta1/ta1.c:501
     ea0:	f897 3063 	ldrb.w	r3, [r7, #99]	; 0x63
     ea4:	461a      	mov	r2, r3
     ea6:	693b      	ldr	r3, [r7, #16]
     ea8:	601a      	str	r2, [r3, #0]
/usr/src/app/examples/example_trustzone/ta1/ta1.c:502
     eaa:	693b      	ldr	r3, [r7, #16]
     eac:	681b      	ldr	r3, [r3, #0]
     eae:	4619      	mov	r1, r3
     eb0:	f8df 3500 	ldr.w	r3, [pc, #1280]	; 13b4 <handle_output+0x61c>
     eb4:	447b      	add	r3, pc
     eb6:	4618      	mov	r0, r3
     eb8:	f004 f9b4 	bl	5224 <printf>
/usr/src/app/examples/example_trustzone/ta1/ta1.c:503
     ebc:	f897 3063 	ldrb.w	r3, [r7, #99]	; 0x63
     ec0:	ea4f 0343 	mov.w	r3, r3, lsl #1
     ec4:	f04f 0100 	mov.w	r1, #0
     ec8:	4618      	mov	r0, r3
     eca:	f004 feb9 	bl	5c40 <TEE_Malloc>
     ece:	f8c7 0090 	str.w	r0, [r7, #144]	; 0x90
/usr/src/app/examples/example_trustzone/ta1/ta1.c:504
     ed2:	f897 3063 	ldrb.w	r3, [r7, #99]	; 0x63
     ed6:	461a      	mov	r2, r3
     ed8:	6e7b      	ldr	r3, [r7, #100]	; 0x64
     eda:	fb02 f303 	mul.w	r3, r2, r3
     ede:	f04f 0100 	mov.w	r1, #0
     ee2:	4618      	mov	r0, r3
     ee4:	f004 feac 	bl	5c40 <TEE_Malloc>
     ee8:	f8c7 008c 	str.w	r0, [r7, #140]	; 0x8c
/usr/src/app/examples/example_trustzone/ta1/ta1.c:505
     eec:	f897 3063 	ldrb.w	r3, [r7, #99]	; 0x63
     ef0:	ea4f 1303 	mov.w	r3, r3, lsl #4
     ef4:	f04f 0100 	mov.w	r1, #0
     ef8:	4618      	mov	r0, r3
     efa:	f004 fea1 	bl	5c40 <TEE_Malloc>
     efe:	f8c7 0088 	str.w	r0, [r7, #136]	; 0x88
/usr/src/app/examples/example_trustzone/ta1/ta1.c:507
     f02:	f04f 0300 	mov.w	r3, #0
     f06:	f8c7 30a4 	str.w	r3, [r7, #164]	; 0xa4
     f0a:	e1bd      	b.n	1288 <handle_output+0x4f0>
/usr/src/app/examples/example_trustzone/ta1/ta1.c:509
     f0c:	f8d7 3094 	ldr.w	r3, [r7, #148]	; 0x94
     f10:	f8d7 20a4 	ldr.w	r2, [r7, #164]	; 0xa4
     f14:	f853 3022 	ldr.w	r3, [r3, r2, lsl #2]
     f18:	b29b      	uxth	r3, r3
     f1a:	4618      	mov	r0, r3
     f1c:	f7ff f8e2 	bl	e4 <connections_get>
     f20:	f8c7 0084 	str.w	r0, [r7, #132]	; 0x84
/usr/src/app/examples/example_trustzone/ta1/ta1.c:510
     f24:	f04f 0300 	mov.w	r3, #0
     f28:	653b      	str	r3, [r7, #80]	; 0x50
     f2a:	f107 0354 	add.w	r3, r7, #84	; 0x54
     f2e:	efc0 0010 	vmov.i32	d16, #0	; 0x00000000
     f32:	edc3 0b00 	vstr	d16, [r3]
     f36:	edc3 0b01 	vstr	d16, [r3, #4]
/usr/src/app/examples/example_trustzone/ta1/ta1.c:511
     f3a:	f04f 0310 	mov.w	r3, #16
     f3e:	f8c7 3080 	str.w	r3, [r7, #128]	; 0x80
/usr/src/app/examples/example_trustzone/ta1/ta1.c:513
     f42:	f04f 0300 	mov.w	r3, #0
     f46:	f8a7 304c 	strh.w	r3, [r7, #76]	; 0x4c
/usr/src/app/examples/example_trustzone/ta1/ta1.c:514
     f4a:	f04f 0301 	mov.w	r3, #1
     f4e:	f8c7 30a8 	str.w	r3, [r7, #168]	; 0xa8
/usr/src/app/examples/example_trustzone/ta1/ta1.c:515
     f52:	f04f 0300 	mov.w	r3, #0
     f56:	f8c7 30ac 	str.w	r3, [r7, #172]	; 0xac
     f5a:	e01d      	b.n	f98 <handle_output+0x200>
/usr/src/app/examples/example_trustzone/ta1/ta1.c:516 (discriminator 3)
     f5c:	f8d7 3084 	ldr.w	r3, [r7, #132]	; 0x84
     f60:	88db      	ldrh	r3, [r3, #6]
     f62:	461a      	mov	r2, r3
     f64:	f8d7 30a8 	ldr.w	r3, [r7, #168]	; 0xa8
     f68:	ea4f 03c3 	mov.w	r3, r3, lsl #3
     f6c:	fa42 f303 	asr.w	r3, r2, r3
     f70:	b2d9      	uxtb	r1, r3
     f72:	f107 024c 	add.w	r2, r7, #76	; 0x4c
     f76:	f8d7 30ac 	ldr.w	r3, [r7, #172]	; 0xac
     f7a:	4413      	add	r3, r2
     f7c:	460a      	mov	r2, r1
     f7e:	701a      	strb	r2, [r3, #0]
/usr/src/app/examples/example_trustzone/ta1/ta1.c:518 (discriminator 3)
     f80:	f8d7 30a8 	ldr.w	r3, [r7, #168]	; 0xa8
     f84:	f103 33ff 	add.w	r3, r3, #4294967295	; 0xffffffff
     f88:	f8c7 30a8 	str.w	r3, [r7, #168]	; 0xa8
/usr/src/app/examples/example_trustzone/ta1/ta1.c:515 (discriminator 3)
     f8c:	f8d7 30ac 	ldr.w	r3, [r7, #172]	; 0xac
     f90:	f103 0301 	add.w	r3, r3, #1
     f94:	f8c7 30ac 	str.w	r3, [r7, #172]	; 0xac
/usr/src/app/examples/example_trustzone/ta1/ta1.c:515 (discriminator 1)
     f98:	f8d7 30ac 	ldr.w	r3, [r7, #172]	; 0xac
     f9c:	2b01      	cmp	r3, #1
     f9e:	dddd      	ble.n	f5c <handle_output+0x1c4>
/usr/src/app/examples/example_trustzone/ta1/ta1.c:521
     fa0:	f04f 0300 	mov.w	r3, #0
     fa4:	f8a7 3048 	strh.w	r3, [r7, #72]	; 0x48
/usr/src/app/examples/example_trustzone/ta1/ta1.c:522
     fa8:	f04f 0301 	mov.w	r3, #1
     fac:	f8c7 30b0 	str.w	r3, [r7, #176]	; 0xb0
/usr/src/app/examples/example_trustzone/ta1/ta1.c:523
     fb0:	f04f 0300 	mov.w	r3, #0
     fb4:	f8c7 30b4 	str.w	r3, [r7, #180]	; 0xb4
     fb8:	e01d      	b.n	ff6 <handle_output+0x25e>
/usr/src/app/examples/example_trustzone/ta1/ta1.c:524 (discriminator 3)
     fba:	f8d7 3084 	ldr.w	r3, [r7, #132]	; 0x84
     fbe:	885b      	ldrh	r3, [r3, #2]
     fc0:	461a      	mov	r2, r3
     fc2:	f8d7 30a8 	ldr.w	r3, [r7, #168]	; 0xa8
     fc6:	ea4f 03c3 	mov.w	r3, r3, lsl #3
     fca:	fa42 f303 	asr.w	r3, r2, r3
     fce:	b2d9      	uxtb	r1, r3
     fd0:	f107 0248 	add.w	r2, r7, #72	; 0x48
     fd4:	f8d7 30b4 	ldr.w	r3, [r7, #180]	; 0xb4
     fd8:	4413      	add	r3, r2
     fda:	460a      	mov	r2, r1
     fdc:	701a      	strb	r2, [r3, #0]
/usr/src/app/examples/example_trustzone/ta1/ta1.c:525 (discriminator 3)
     fde:	f8d7 30b0 	ldr.w	r3, [r7, #176]	; 0xb0
     fe2:	f103 33ff 	add.w	r3, r3, #4294967295	; 0xffffffff
     fe6:	f8c7 30b0 	str.w	r3, [r7, #176]	; 0xb0
/usr/src/app/examples/example_trustzone/ta1/ta1.c:523 (discriminator 3)
     fea:	f8d7 30b4 	ldr.w	r3, [r7, #180]	; 0xb4
     fee:	f103 0301 	add.w	r3, r3, #1
     ff2:	f8c7 30b4 	str.w	r3, [r7, #180]	; 0xb4
/usr/src/app/examples/example_trustzone/ta1/ta1.c:523 (discriminator 1)
     ff6:	f8d7 30b4 	ldr.w	r3, [r7, #180]	; 0xb4
     ffa:	2b01      	cmp	r3, #1
     ffc:	dddd      	ble.n	fba <handle_output+0x222>
/usr/src/app/examples/example_trustzone/ta1/ta1.c:527
     ffe:	f8d7 30a4 	ldr.w	r3, [r7, #164]	; 0xa4
    1002:	ea4f 0343 	mov.w	r3, r3, lsl #1
    1006:	461a      	mov	r2, r3
    1008:	f8d7 3090 	ldr.w	r3, [r7, #144]	; 0x90
    100c:	4413      	add	r3, r2
    100e:	4618      	mov	r0, r3
    1010:	f107 0348 	add.w	r3, r7, #72	; 0x48
    1014:	f04f 0202 	mov.w	r2, #2
    1018:	4619      	mov	r1, r3
    101a:	f012 fa85 	bl	13528 <memcpy>
/usr/src/app/examples/example_trustzone/ta1/ta1.c:531
    101e:	f8d7 3084 	ldr.w	r3, [r7, #132]	; 0x84
    1022:	781b      	ldrb	r3, [r3, #0]
    1024:	2b00      	cmp	r3, #0
    1026:	f040 80ac 	bne.w	1182 <handle_output+0x3ea>
/usr/src/app/examples/example_trustzone/ta1/ta1.c:533
    102a:	4be3      	ldr	r3, [pc, #908]	; (13b8 <handle_output+0x620>)
    102c:	447b      	add	r3, pc
    102e:	4618      	mov	r0, r3
    1030:	f004 f932 	bl	5298 <puts>
/usr/src/app/examples/example_trustzone/ta1/ta1.c:535
    1034:	f04f 0301 	mov.w	r3, #1
    1038:	f04f 0210 	mov.w	r2, #16
    103c:	f04f 0102 	mov.w	r1, #2
    1040:	f8d7 009c 	ldr.w	r0, [r7, #156]	; 0x9c
    1044:	f7ff f988 	bl	358 <alloc_resources>
/usr/src/app/examples/example_trustzone/ta1/ta1.c:536
    1048:	f8d7 3084 	ldr.w	r3, [r7, #132]	; 0x84
    104c:	f103 0308 	add.w	r3, r3, #8
    1050:	f04f 0210 	mov.w	r2, #16
    1054:	4619      	mov	r1, r3
    1056:	f8d7 009c 	ldr.w	r0, [r7, #156]	; 0x9c
    105a:	f7ff fa9d 	bl	598 <set_aes_key>
/usr/src/app/examples/example_trustzone/ta1/ta1.c:537
    105e:	f107 0250 	add.w	r2, r7, #80	; 0x50
    1062:	f107 014c 	add.w	r1, r7, #76	; 0x4c
    1066:	f8d7 3080 	ldr.w	r3, [r7, #128]	; 0x80
    106a:	9300      	str	r3, [sp, #0]
    106c:	4613      	mov	r3, r2
    106e:	f04f 0202 	mov.w	r2, #2
    1072:	f8d7 009c 	ldr.w	r0, [r7, #156]	; 0x9c
    1076:	f7ff fb45 	bl	704 <reset_aes_iv>
/usr/src/app/examples/example_trustzone/ta1/ta1.c:539
    107a:	f04f 0300 	mov.w	r3, #0
    107e:	677b      	str	r3, [r7, #116]	; 0x74
/usr/src/app/examples/example_trustzone/ta1/ta1.c:540
    1080:	f04f 0300 	mov.w	r3, #0
    1084:	673b      	str	r3, [r7, #112]	; 0x70
/usr/src/app/examples/example_trustzone/ta1/ta1.c:541
    1086:	f04f 0310 	mov.w	r3, #16
    108a:	647b      	str	r3, [r7, #68]	; 0x44
/usr/src/app/examples/example_trustzone/ta1/ta1.c:543
    108c:	6e7b      	ldr	r3, [r7, #100]	; 0x64
    108e:	f04f 0100 	mov.w	r1, #0
    1092:	4618      	mov	r0, r3
    1094:	f004 fdd4 	bl	5c40 <TEE_Malloc>
    1098:	6778      	str	r0, [r7, #116]	; 0x74
/usr/src/app/examples/example_trustzone/ta1/ta1.c:544
    109a:	f04f 0100 	mov.w	r1, #0
    109e:	f04f 0010 	mov.w	r0, #16
    10a2:	f004 fdcd 	bl	5c40 <TEE_Malloc>
    10a6:	6738      	str	r0, [r7, #112]	; 0x70
/usr/src/app/examples/example_trustzone/ta1/ta1.c:546
    10a8:	f04f 0300 	mov.w	r3, #0
    10ac:	66fb      	str	r3, [r7, #108]	; 0x6c
/usr/src/app/examples/example_trustzone/ta1/ta1.c:547
    10ae:	6e7b      	ldr	r3, [r7, #100]	; 0x64
    10b0:	f04f 0100 	mov.w	r1, #0
    10b4:	4618      	mov	r0, r3
    10b6:	f004 fdc3 	bl	5c40 <TEE_Malloc>
    10ba:	66f8      	str	r0, [r7, #108]	; 0x6c
/usr/src/app/examples/example_trustzone/ta1/ta1.c:548
    10bc:	693b      	ldr	r3, [r7, #16]
    10be:	f103 0310 	add.w	r3, r3, #16
    10c2:	681b      	ldr	r3, [r3, #0]
    10c4:	6e7a      	ldr	r2, [r7, #100]	; 0x64
    10c6:	4619      	mov	r1, r3
    10c8:	6ef8      	ldr	r0, [r7, #108]	; 0x6c
    10ca:	f012 fa2d 	bl	13528 <memcpy>
/usr/src/app/examples/example_trustzone/ta1/ta1.c:550
    10ce:	f04f 0300 	mov.w	r3, #0
    10d2:	f8c7 30b8 	str.w	r3, [r7, #184]	; 0xb8
    10d6:	e010      	b.n	10fa <handle_output+0x362>
/usr/src/app/examples/example_trustzone/ta1/ta1.c:551 (discriminator 3)
    10d8:	f8d7 30b8 	ldr.w	r3, [r7, #184]	; 0xb8
    10dc:	6efa      	ldr	r2, [r7, #108]	; 0x6c
    10de:	4413      	add	r3, r2
    10e0:	781b      	ldrb	r3, [r3, #0]
    10e2:	4619      	mov	r1, r3
    10e4:	4bb5      	ldr	r3, [pc, #724]	; (13bc <handle_output+0x624>)
    10e6:	447b      	add	r3, pc
    10e8:	4618      	mov	r0, r3
    10ea:	f004 f89b 	bl	5224 <printf>
/usr/src/app/examples/example_trustzone/ta1/ta1.c:550 (discriminator 3)
    10ee:	f8d7 30b8 	ldr.w	r3, [r7, #184]	; 0xb8
    10f2:	f103 0301 	add.w	r3, r3, #1
    10f6:	f8c7 30b8 	str.w	r3, [r7, #184]	; 0xb8
/usr/src/app/examples/example_trustzone/ta1/ta1.c:550 (discriminator 1)
    10fa:	f8d7 20b8 	ldr.w	r2, [r7, #184]	; 0xb8
    10fe:	6e7b      	ldr	r3, [r7, #100]	; 0x64
    1100:	429a      	cmp	r2, r3
    1102:	d3e9      	bcc.n	10d8 <handle_output+0x340>
/usr/src/app/examples/example_trustzone/ta1/ta1.c:554
    1104:	f8d7 309c 	ldr.w	r3, [r7, #156]	; 0x9c
    1108:	68d8      	ldr	r0, [r3, #12]
    110a:	6e7a      	ldr	r2, [r7, #100]	; 0x64
    110c:	f107 0344 	add.w	r3, r7, #68	; 0x44
    1110:	9302      	str	r3, [sp, #8]
    1112:	6f3b      	ldr	r3, [r7, #112]	; 0x70
    1114:	9301      	str	r3, [sp, #4]
    1116:	f107 0364 	add.w	r3, r7, #100	; 0x64
    111a:	9300      	str	r3, [sp, #0]
    111c:	6f7b      	ldr	r3, [r7, #116]	; 0x74
    111e:	6ef9      	ldr	r1, [r7, #108]	; 0x6c
    1120:	f007 fa36 	bl	8590 <TEE_AEEncryptFinal>
    1124:	66b8      	str	r0, [r7, #104]	; 0x68
/usr/src/app/examples/example_trustzone/ta1/ta1.c:557
    1126:	6ebb      	ldr	r3, [r7, #104]	; 0x68
    1128:	2b00      	cmp	r3, #0
    112a:	f040 809e 	bne.w	126a <handle_output+0x4d2>
/usr/src/app/examples/example_trustzone/ta1/ta1.c:558
    112e:	4ba4      	ldr	r3, [pc, #656]	; (13c0 <handle_output+0x628>)
    1130:	447b      	add	r3, pc
    1132:	4618      	mov	r0, r3
    1134:	f004 f8b0 	bl	5298 <puts>
/usr/src/app/examples/example_trustzone/ta1/ta1.c:559
    1138:	6e7b      	ldr	r3, [r7, #100]	; 0x64
    113a:	f8d7 20a4 	ldr.w	r2, [r7, #164]	; 0xa4
    113e:	fb02 f303 	mul.w	r3, r2, r3
    1142:	f8d7 208c 	ldr.w	r2, [r7, #140]	; 0x8c
    1146:	4413      	add	r3, r2
    1148:	6e7a      	ldr	r2, [r7, #100]	; 0x64
    114a:	6f79      	ldr	r1, [r7, #116]	; 0x74
    114c:	4618      	mov	r0, r3
    114e:	f012 f9eb 	bl	13528 <memcpy>
/usr/src/app/examples/example_trustzone/ta1/ta1.c:560
    1152:	f8d7 30a4 	ldr.w	r3, [r7, #164]	; 0xa4
    1156:	ea4f 1303 	mov.w	r3, r3, lsl #4
    115a:	461a      	mov	r2, r3
    115c:	f8d7 3088 	ldr.w	r3, [r7, #136]	; 0x88
    1160:	4413      	add	r3, r2
    1162:	f04f 0210 	mov.w	r2, #16
    1166:	6f39      	ldr	r1, [r7, #112]	; 0x70
    1168:	4618      	mov	r0, r3
    116a:	f012 f9dd 	bl	13528 <memcpy>
/usr/src/app/examples/example_trustzone/ta1/ta1.c:561
    116e:	6f78      	ldr	r0, [r7, #116]	; 0x74
    1170:	f004 fdaa 	bl	5cc8 <TEE_Free>
/usr/src/app/examples/example_trustzone/ta1/ta1.c:562
    1174:	6f38      	ldr	r0, [r7, #112]	; 0x70
    1176:	f004 fda7 	bl	5cc8 <TEE_Free>
/usr/src/app/examples/example_trustzone/ta1/ta1.c:563
    117a:	6ef8      	ldr	r0, [r7, #108]	; 0x6c
    117c:	f004 fda4 	bl	5cc8 <TEE_Free>
    1180:	e073      	b.n	126a <handle_output+0x4d2>
/usr/src/app/examples/example_trustzone/ta1/ta1.c:566
    1182:	466b      	mov	r3, sp
    1184:	461e      	mov	r6, r3
/usr/src/app/examples/example_trustzone/ta1/ta1.c:571
    1186:	6e79      	ldr	r1, [r7, #100]	; 0x64
    1188:	460b      	mov	r3, r1
    118a:	f103 33ff 	add.w	r3, r3, #4294967295	; 0xffffffff
    118e:	67fb      	str	r3, [r7, #124]	; 0x7c
    1190:	f04f 0300 	mov.w	r3, #0
    1194:	460c      	mov	r4, r1
    1196:	461d      	mov	r5, r3
    1198:	f04f 0200 	mov.w	r2, #0
    119c:	f04f 0300 	mov.w	r3, #0
    11a0:	ea4f 03c5 	mov.w	r3, r5, lsl #3
    11a4:	ea43 7354 	orr.w	r3, r3, r4, lsr #29
    11a8:	ea4f 02c4 	mov.w	r2, r4, lsl #3
    11ac:	f04f 0300 	mov.w	r3, #0
    11b0:	4688      	mov	r8, r1
    11b2:	4699      	mov	r9, r3
    11b4:	f04f 0200 	mov.w	r2, #0
    11b8:	f04f 0300 	mov.w	r3, #0
    11bc:	ea4f 03c9 	mov.w	r3, r9, lsl #3
    11c0:	ea43 7358 	orr.w	r3, r3, r8, lsr #29
    11c4:	ea4f 02c8 	mov.w	r2, r8, lsl #3
    11c8:	f101 0307 	add.w	r3, r1, #7
    11cc:	ea4f 03d3 	mov.w	r3, r3, lsr #3
    11d0:	ea4f 03c3 	mov.w	r3, r3, lsl #3
    11d4:	ebad 0d03 	sub.w	sp, sp, r3
    11d8:	ab08      	add	r3, sp, #32
    11da:	f103 0300 	add.w	r3, r3, #0
    11de:	67bb      	str	r3, [r7, #120]	; 0x78
/usr/src/app/examples/example_trustzone/ta1/ta1.c:572
    11e0:	693b      	ldr	r3, [r7, #16]
    11e2:	f103 0310 	add.w	r3, r3, #16
    11e6:	681b      	ldr	r3, [r3, #0]
    11e8:	6e7a      	ldr	r2, [r7, #100]	; 0x64
    11ea:	4619      	mov	r1, r3
    11ec:	6fb8      	ldr	r0, [r7, #120]	; 0x78
    11ee:	f012 f99b 	bl	13528 <memcpy>
/usr/src/app/examples/example_trustzone/ta1/ta1.c:574
    11f2:	f8d7 3084 	ldr.w	r3, [r7, #132]	; 0x84
    11f6:	f103 0008 	add.w	r0, r3, #8
    11fa:	f107 014c 	add.w	r1, r7, #76	; 0x4c
    11fe:	f04f 0300 	mov.w	r3, #0
    1202:	9306      	str	r3, [sp, #24]
    1204:	f107 0324 	add.w	r3, r7, #36	; 0x24
    1208:	9305      	str	r3, [sp, #20]
    120a:	f107 0334 	add.w	r3, r7, #52	; 0x34
    120e:	9304      	str	r3, [sp, #16]
    1210:	f04f 0280 	mov.w	r2, #128	; 0x80
    1214:	f04f 0300 	mov.w	r3, #0
    1218:	e9cd 2302 	strd	r2, r3, [sp, #8]
    121c:	6fbb      	ldr	r3, [r7, #120]	; 0x78
    121e:	9300      	str	r3, [sp, #0]
    1220:	f04f 0210 	mov.w	r2, #16
    1224:	f04f 0300 	mov.w	r3, #0
    1228:	f000 fe4a 	bl	1ec0 <SpongentWrap>
/usr/src/app/examples/example_trustzone/ta1/ta1.c:576
    122c:	6e7b      	ldr	r3, [r7, #100]	; 0x64
    122e:	f8d7 20a4 	ldr.w	r2, [r7, #164]	; 0xa4
    1232:	fb02 f303 	mul.w	r3, r2, r3
    1236:	f8d7 208c 	ldr.w	r2, [r7, #140]	; 0x8c
    123a:	4413      	add	r3, r2
    123c:	6e7a      	ldr	r2, [r7, #100]	; 0x64
    123e:	f107 0134 	add.w	r1, r7, #52	; 0x34
    1242:	4618      	mov	r0, r3
    1244:	f012 f970 	bl	13528 <memcpy>
/usr/src/app/examples/example_trustzone/ta1/ta1.c:577
    1248:	f8d7 30a4 	ldr.w	r3, [r7, #164]	; 0xa4
    124c:	ea4f 1303 	mov.w	r3, r3, lsl #4
    1250:	461a      	mov	r2, r3
    1252:	f8d7 3088 	ldr.w	r3, [r7, #136]	; 0x88
    1256:	4413      	add	r3, r2
    1258:	4618      	mov	r0, r3
    125a:	f107 0324 	add.w	r3, r7, #36	; 0x24
    125e:	f04f 0210 	mov.w	r2, #16
    1262:	4619      	mov	r1, r3
    1264:	f012 f960 	bl	13528 <memcpy>
    1268:	46b5      	mov	sp, r6
/usr/src/app/examples/example_trustzone/ta1/ta1.c:580 (discriminator 2)
    126a:	f8d7 3084 	ldr.w	r3, [r7, #132]	; 0x84
    126e:	88db      	ldrh	r3, [r3, #6]
    1270:	f103 0301 	add.w	r3, r3, #1
    1274:	b29a      	uxth	r2, r3
    1276:	f8d7 3084 	ldr.w	r3, [r7, #132]	; 0x84
    127a:	80da      	strh	r2, [r3, #6]
/usr/src/app/examples/example_trustzone/ta1/ta1.c:507 (discriminator 2)
    127c:	f8d7 30a4 	ldr.w	r3, [r7, #164]	; 0xa4
    1280:	f103 0301 	add.w	r3, r3, #1
    1284:	f8c7 30a4 	str.w	r3, [r7, #164]	; 0xa4
/usr/src/app/examples/example_trustzone/ta1/ta1.c:507 (discriminator 1)
    1288:	f897 3063 	ldrb.w	r3, [r7, #99]	; 0x63
    128c:	461a      	mov	r2, r3
    128e:	f8d7 30a4 	ldr.w	r3, [r7, #164]	; 0xa4
    1292:	4293      	cmp	r3, r2
    1294:	f6ff ae3a 	blt.w	f0c <handle_output+0x174>
/usr/src/app/examples/example_trustzone/ta1/ta1.c:584
    1298:	f897 3063 	ldrb.w	r3, [r7, #99]	; 0x63
    129c:	ea4f 0243 	mov.w	r2, r3, lsl #1
    12a0:	693b      	ldr	r3, [r7, #16]
    12a2:	f103 0308 	add.w	r3, r3, #8
    12a6:	605a      	str	r2, [r3, #4]
/usr/src/app/examples/example_trustzone/ta1/ta1.c:585
    12a8:	693b      	ldr	r3, [r7, #16]
    12aa:	f103 0308 	add.w	r3, r3, #8
    12ae:	6818      	ldr	r0, [r3, #0]
    12b0:	693b      	ldr	r3, [r7, #16]
    12b2:	f103 0308 	add.w	r3, r3, #8
    12b6:	685b      	ldr	r3, [r3, #4]
    12b8:	461a      	mov	r2, r3
    12ba:	f8d7 1090 	ldr.w	r1, [r7, #144]	; 0x90
    12be:	f004 fbdb 	bl	5a78 <TEE_MemMove>
/usr/src/app/examples/example_trustzone/ta1/ta1.c:586
    12c2:	f897 3063 	ldrb.w	r3, [r7, #99]	; 0x63
    12c6:	4619      	mov	r1, r3
    12c8:	6e7a      	ldr	r2, [r7, #100]	; 0x64
    12ca:	693b      	ldr	r3, [r7, #16]
    12cc:	f103 0310 	add.w	r3, r3, #16
    12d0:	fb01 f202 	mul.w	r2, r1, r2
    12d4:	605a      	str	r2, [r3, #4]
/usr/src/app/examples/example_trustzone/ta1/ta1.c:587
    12d6:	693b      	ldr	r3, [r7, #16]
    12d8:	f103 0310 	add.w	r3, r3, #16
    12dc:	6818      	ldr	r0, [r3, #0]
    12de:	693b      	ldr	r3, [r7, #16]
    12e0:	f103 0310 	add.w	r3, r3, #16
    12e4:	685b      	ldr	r3, [r3, #4]
    12e6:	461a      	mov	r2, r3
    12e8:	f8d7 108c 	ldr.w	r1, [r7, #140]	; 0x8c
    12ec:	f004 fbc4 	bl	5a78 <TEE_MemMove>
/usr/src/app/examples/example_trustzone/ta1/ta1.c:588
    12f0:	f897 3063 	ldrb.w	r3, [r7, #99]	; 0x63
    12f4:	ea4f 1203 	mov.w	r2, r3, lsl #4
    12f8:	693b      	ldr	r3, [r7, #16]
    12fa:	f103 0318 	add.w	r3, r3, #24
    12fe:	605a      	str	r2, [r3, #4]
/usr/src/app/examples/example_trustzone/ta1/ta1.c:589
    1300:	693b      	ldr	r3, [r7, #16]
    1302:	f103 0318 	add.w	r3, r3, #24
    1306:	6818      	ldr	r0, [r3, #0]
    1308:	693b      	ldr	r3, [r7, #16]
    130a:	f103 0318 	add.w	r3, r3, #24
    130e:	685b      	ldr	r3, [r3, #4]
    1310:	461a      	mov	r2, r3
    1312:	f8d7 1088 	ldr.w	r1, [r7, #136]	; 0x88
    1316:	f004 fbaf 	bl	5a78 <TEE_MemMove>
/usr/src/app/examples/example_trustzone/ta1/ta1.c:591
    131a:	4b2a      	ldr	r3, [pc, #168]	; (13c4 <handle_output+0x62c>)
    131c:	447b      	add	r3, pc
    131e:	4618      	mov	r0, r3
    1320:	f003 ffba 	bl	5298 <puts>
/usr/src/app/examples/example_trustzone/ta1/ta1.c:592
    1324:	f04f 0300 	mov.w	r3, #0
    1328:	f8c7 30bc 	str.w	r3, [r7, #188]	; 0xbc
    132c:	e013      	b.n	1356 <handle_output+0x5be>
/usr/src/app/examples/example_trustzone/ta1/ta1.c:593 (discriminator 3)
    132e:	693b      	ldr	r3, [r7, #16]
    1330:	f103 0310 	add.w	r3, r3, #16
    1334:	681a      	ldr	r2, [r3, #0]
    1336:	f8d7 30bc 	ldr.w	r3, [r7, #188]	; 0xbc
    133a:	4413      	add	r3, r2
    133c:	781b      	ldrb	r3, [r3, #0]
    133e:	4619      	mov	r1, r3
    1340:	4b21      	ldr	r3, [pc, #132]	; (13c8 <handle_output+0x630>)
    1342:	447b      	add	r3, pc
    1344:	4618      	mov	r0, r3
    1346:	f003 ff6d 	bl	5224 <printf>
/usr/src/app/examples/example_trustzone/ta1/ta1.c:592 (discriminator 3)
    134a:	f8d7 30bc 	ldr.w	r3, [r7, #188]	; 0xbc
    134e:	f103 0301 	add.w	r3, r3, #1
    1352:	f8c7 30bc 	str.w	r3, [r7, #188]	; 0xbc
/usr/src/app/examples/example_trustzone/ta1/ta1.c:592 (discriminator 1)
    1356:	693b      	ldr	r3, [r7, #16]
    1358:	f103 0310 	add.w	r3, r3, #16
    135c:	685a      	ldr	r2, [r3, #4]
    135e:	f8d7 30bc 	ldr.w	r3, [r7, #188]	; 0xbc
    1362:	429a      	cmp	r2, r3
    1364:	d8e3      	bhi.n	132e <handle_output+0x596>
/usr/src/app/examples/example_trustzone/ta1/ta1.c:595
    1366:	f8d7 0090 	ldr.w	r0, [r7, #144]	; 0x90
    136a:	f004 fcad 	bl	5cc8 <TEE_Free>
/usr/src/app/examples/example_trustzone/ta1/ta1.c:596
    136e:	f8d7 008c 	ldr.w	r0, [r7, #140]	; 0x8c
    1372:	f004 fca9 	bl	5cc8 <TEE_Free>
/usr/src/app/examples/example_trustzone/ta1/ta1.c:597
    1376:	f8d7 0088 	ldr.w	r0, [r7, #136]	; 0x88
    137a:	f004 fca5 	bl	5cc8 <TEE_Free>
    137e:	f8d7 d004 	ldr.w	sp, [r7, #4]
/usr/src/app/examples/example_trustzone/ta1/ta1.c:598
    1382:	bf00      	nop
    1384:	f107 07c4 	add.w	r7, r7, #196	; 0xc4
    1388:	46bd      	mov	sp, r7
    138a:	e9dd 4500 	ldrd	r4, r5, [sp]
    138e:	e9dd 6702 	ldrd	r6, r7, [sp, #8]
    1392:	e9dd 8904 	ldrd	r8, r9, [sp, #16]
    1396:	e9dd ab06 	ldrd	sl, fp, [sp, #24]
    139a:	b008      	add	sp, #32
    139c:	f85d fb04 	ldr.w	pc, [sp], #4
    13a0:	000182c6 	.word	0x000182c6
    13a4:	00014490 	.word	0x00014490
    13a8:	000144a8 	.word	0x000144a8
    13ac:	00000010 	.word	0x00000010
    13b0:	00014414 	.word	0x00014414
    13b4:	0001441c 	.word	0x0001441c
    13b8:	000142b8 	.word	0x000142b8
    13bc:	00013e66 	.word	0x00013e66
    13c0:	000141e4 	.word	0x000141e4
    13c4:	00014010 	.word	0x00014010
    13c8:	00013ff6 	.word	0x00013ff6

000013cc <output>:
output():
/usr/src/app/examples/example_trustzone/ta1/ta1.c:600
    13cc:	e96d 7e02 	strd	r7, lr, [sp, #-8]!
    13d0:	b088      	sub	sp, #32
    13d2:	af00      	add	r7, sp, #0
    13d4:	60f8      	str	r0, [r7, #12]
    13d6:	60b9      	str	r1, [r7, #8]
    13d8:	607a      	str	r2, [r7, #4]
/usr/src/app/examples/example_trustzone/ta1/ta1.c:602
    13da:	f246 7363 	movw	r3, #26467	; 0x6763
    13de:	61fb      	str	r3, [r7, #28]
/usr/src/app/examples/example_trustzone/ta1/ta1.c:606
    13e0:	4b0a      	ldr	r3, [pc, #40]	; (140c <output+0x40>)
    13e2:	447b      	add	r3, pc
    13e4:	4618      	mov	r0, r3
    13e6:	f003 ff57 	bl	5298 <puts>
/usr/src/app/examples/example_trustzone/ta1/ta1.c:608
    13ea:	68fb      	ldr	r3, [r7, #12]
    13ec:	61bb      	str	r3, [r7, #24]
/usr/src/app/examples/example_trustzone/ta1/ta1.c:609
    13ee:	f04f 0300 	mov.w	r3, #0
    13f2:	82fb      	strh	r3, [r7, #22]
/usr/src/app/examples/example_trustzone/ta1/ta1.c:610
    13f4:	8af9      	ldrh	r1, [r7, #22]
    13f6:	687b      	ldr	r3, [r7, #4]
    13f8:	68ba      	ldr	r2, [r7, #8]
    13fa:	69b8      	ldr	r0, [r7, #24]
    13fc:	f7ff fccc 	bl	d98 <handle_output>
/usr/src/app/examples/example_trustzone/ta1/ta1.c:611
    1400:	bf00      	nop
    1402:	f107 0720 	add.w	r7, r7, #32
    1406:	46bd      	mov	sp, r7
    1408:	bd80      	pop	{r7, pc}
    140a:	bf00      	nop
    140c:	00013f5e 	.word	0x00013f5e

00001410 <entry>:
entry():
/usr/src/app/examples/example_trustzone/ta1/ta1.c:614
    1410:	e96d 7e02 	strd	r7, lr, [sp, #-8]!
    1414:	b086      	sub	sp, #24
    1416:	af00      	add	r7, sp, #0
    1418:	60f8      	str	r0, [r7, #12]
    141a:	60b9      	str	r1, [r7, #8]
    141c:	607a      	str	r2, [r7, #4]
/usr/src/app/examples/example_trustzone/ta1/ta1.c:616
    141e:	f246 7363 	movw	r3, #26467	; 0x6763
    1422:	617b      	str	r3, [r7, #20]
/usr/src/app/examples/example_trustzone/ta1/ta1.c:622
    1424:	68fb      	ldr	r3, [r7, #12]
    1426:	613b      	str	r3, [r7, #16]
/usr/src/app/examples/example_trustzone/ta1/ta1.c:623
    1428:	4b08      	ldr	r3, [pc, #32]	; (144c <entry+0x3c>)
    142a:	447b      	add	r3, pc
    142c:	4618      	mov	r0, r3
    142e:	f003 ff33 	bl	5298 <puts>
/usr/src/app/examples/example_trustzone/ta1/ta1.c:626
    1432:	687a      	ldr	r2, [r7, #4]
    1434:	68b9      	ldr	r1, [r7, #8]
    1436:	6938      	ldr	r0, [r7, #16]
    1438:	f7ff ffc8 	bl	13cc <output>
/usr/src/app/examples/example_trustzone/ta1/ta1.c:627
    143c:	f04f 0300 	mov.w	r3, #0
/usr/src/app/examples/example_trustzone/ta1/ta1.c:628
    1440:	4618      	mov	r0, r3
    1442:	f107 0718 	add.w	r7, r7, #24
    1446:	46bd      	mov	sp, r7
    1448:	bd80      	pop	{r7, pc}
    144a:	bf00      	nop
    144c:	00013f42 	.word	0x00013f42

00001450 <TA_CreateEntryPoint>:
TA_CreateEntryPoint():
/usr/src/app/examples/example_trustzone/ta1/ta1.c:633
    1450:	e96d 7e02 	strd	r7, lr, [sp, #-8]!
    1454:	b082      	sub	sp, #8
    1456:	af02      	add	r7, sp, #8
/usr/src/app/examples/example_trustzone/ta1/ta1.c:634
    1458:	4b08      	ldr	r3, [pc, #32]	; (147c <TA_CreateEntryPoint+0x2c>)
    145a:	447b      	add	r3, pc
    145c:	9300      	str	r3, [sp, #0]
    145e:	f04f 0301 	mov.w	r3, #1
    1462:	f04f 0203 	mov.w	r2, #3
    1466:	f240 217a 	movw	r1, #634	; 0x27a
    146a:	4805      	ldr	r0, [pc, #20]	; (1480 <TA_CreateEntryPoint+0x30>)
    146c:	4478      	add	r0, pc
    146e:	f002 fc02 	bl	3c76 <trace_printf>
/usr/src/app/examples/example_trustzone/ta1/ta1.c:635
    1472:	f04f 0300 	mov.w	r3, #0
/usr/src/app/examples/example_trustzone/ta1/ta1.c:636
    1476:	4618      	mov	r0, r3
    1478:	46bd      	mov	sp, r7
    147a:	bd80      	pop	{r7, pc}
    147c:	00013f56 	.word	0x00013f56
    1480:	00014120 	.word	0x00014120

00001484 <TA_DestroyEntryPoint>:
TA_DestroyEntryPoint():
/usr/src/app/examples/example_trustzone/ta1/ta1.c:639
    1484:	e96d 7e02 	strd	r7, lr, [sp, #-8]!
    1488:	b082      	sub	sp, #8
    148a:	af02      	add	r7, sp, #8
/usr/src/app/examples/example_trustzone/ta1/ta1.c:640
    148c:	4b07      	ldr	r3, [pc, #28]	; (14ac <TA_DestroyEntryPoint+0x28>)
    148e:	447b      	add	r3, pc
    1490:	9300      	str	r3, [sp, #0]
    1492:	f04f 0301 	mov.w	r3, #1
    1496:	f04f 0203 	mov.w	r2, #3
    149a:	f44f 7120 	mov.w	r1, #640	; 0x280
    149e:	4804      	ldr	r0, [pc, #16]	; (14b0 <TA_DestroyEntryPoint+0x2c>)
    14a0:	4478      	add	r0, pc
    14a2:	f002 fbe8 	bl	3c76 <trace_printf>
/usr/src/app/examples/example_trustzone/ta1/ta1.c:641
    14a6:	bf00      	nop
    14a8:	46bd      	mov	sp, r7
    14aa:	bd80      	pop	{r7, pc}
    14ac:	00013f5a 	.word	0x00013f5a
    14b0:	00014100 	.word	0x00014100

000014b4 <TA_OpenSessionEntryPoint>:
TA_OpenSessionEntryPoint():
/usr/src/app/examples/example_trustzone/ta1/ta1.c:647
    14b4:	e96d 7e02 	strd	r7, lr, [sp, #-8]!
    14b8:	b088      	sub	sp, #32
    14ba:	af02      	add	r7, sp, #8
    14bc:	60f8      	str	r0, [r7, #12]
    14be:	60b9      	str	r1, [r7, #8]
    14c0:	607a      	str	r2, [r7, #4]
/usr/src/app/examples/example_trustzone/ta1/ta1.c:648
    14c2:	4b1f      	ldr	r3, [pc, #124]	; (1540 <TA_OpenSessionEntryPoint+0x8c>)
    14c4:	447b      	add	r3, pc
    14c6:	9300      	str	r3, [sp, #0]
    14c8:	f04f 0301 	mov.w	r3, #1
    14cc:	f04f 0203 	mov.w	r2, #3
    14d0:	f44f 7122 	mov.w	r1, #648	; 0x288
    14d4:	481b      	ldr	r0, [pc, #108]	; (1544 <TA_OpenSessionEntryPoint+0x90>)
    14d6:	4478      	add	r0, pc
    14d8:	f002 fbcd 	bl	3c76 <trace_printf>
/usr/src/app/examples/example_trustzone/ta1/ta1.c:651
    14dc:	f04f 0100 	mov.w	r1, #0
    14e0:	f04f 0014 	mov.w	r0, #20
    14e4:	f004 fbac 	bl	5c40 <TEE_Malloc>
    14e8:	6178      	str	r0, [r7, #20]
/usr/src/app/examples/example_trustzone/ta1/ta1.c:652
    14ea:	697b      	ldr	r3, [r7, #20]
    14ec:	2b00      	cmp	r3, #0
    14ee:	d104      	bne.n	14fa <TA_OpenSessionEntryPoint+0x46>
/usr/src/app/examples/example_trustzone/ta1/ta1.c:653
    14f0:	f04f 030c 	mov.w	r3, #12
    14f4:	f6cf 73ff 	movt	r3, #65535	; 0xffff
    14f8:	e01c      	b.n	1534 <TA_OpenSessionEntryPoint+0x80>
/usr/src/app/examples/example_trustzone/ta1/ta1.c:655
    14fa:	697b      	ldr	r3, [r7, #20]
    14fc:	f04f 0200 	mov.w	r2, #0
    1500:	611a      	str	r2, [r3, #16]
/usr/src/app/examples/example_trustzone/ta1/ta1.c:656
    1502:	697b      	ldr	r3, [r7, #20]
    1504:	f04f 0200 	mov.w	r2, #0
    1508:	60da      	str	r2, [r3, #12]
/usr/src/app/examples/example_trustzone/ta1/ta1.c:658
    150a:	687b      	ldr	r3, [r7, #4]
    150c:	697a      	ldr	r2, [r7, #20]
    150e:	601a      	str	r2, [r3, #0]
/usr/src/app/examples/example_trustzone/ta1/ta1.c:659
    1510:	687b      	ldr	r3, [r7, #4]
    1512:	681b      	ldr	r3, [r3, #0]
    1514:	9301      	str	r3, [sp, #4]
    1516:	4b0c      	ldr	r3, [pc, #48]	; (1548 <TA_OpenSessionEntryPoint+0x94>)
    1518:	447b      	add	r3, pc
    151a:	9300      	str	r3, [sp, #0]
    151c:	f04f 0301 	mov.w	r3, #1
    1520:	f04f 0203 	mov.w	r2, #3
    1524:	f240 2193 	movw	r1, #659	; 0x293
    1528:	4808      	ldr	r0, [pc, #32]	; (154c <TA_OpenSessionEntryPoint+0x98>)
    152a:	4478      	add	r0, pc
    152c:	f002 fba3 	bl	3c76 <trace_printf>
/usr/src/app/examples/example_trustzone/ta1/ta1.c:661
    1530:	f04f 0300 	mov.w	r3, #0
/usr/src/app/examples/example_trustzone/ta1/ta1.c:662
    1534:	4618      	mov	r0, r3
    1536:	f107 0718 	add.w	r7, r7, #24
    153a:	46bd      	mov	sp, r7
    153c:	bd80      	pop	{r7, pc}
    153e:	bf00      	nop
    1540:	00013f5c 	.word	0x00013f5c
    1544:	000140e2 	.word	0x000140e2
    1548:	00013f40 	.word	0x00013f40
    154c:	0001408e 	.word	0x0001408e

00001550 <TA_CloseSessionEntryPoint>:
TA_CloseSessionEntryPoint():
/usr/src/app/examples/example_trustzone/ta1/ta1.c:666
    1550:	e96d 7e02 	strd	r7, lr, [sp, #-8]!
    1554:	b086      	sub	sp, #24
    1556:	af02      	add	r7, sp, #8
    1558:	6078      	str	r0, [r7, #4]
/usr/src/app/examples/example_trustzone/ta1/ta1.c:667
    155a:	4b1c      	ldr	r3, [pc, #112]	; (15cc <TA_CloseSessionEntryPoint+0x7c>)
    155c:	447b      	add	r3, pc
    155e:	9300      	str	r3, [sp, #0]
    1560:	f04f 0301 	mov.w	r3, #1
    1564:	f04f 0203 	mov.w	r2, #3
    1568:	f240 219b 	movw	r1, #667	; 0x29b
    156c:	4818      	ldr	r0, [pc, #96]	; (15d0 <TA_CloseSessionEntryPoint+0x80>)
    156e:	4478      	add	r0, pc
    1570:	f002 fb81 	bl	3c76 <trace_printf>
/usr/src/app/examples/example_trustzone/ta1/ta1.c:672
    1574:	687b      	ldr	r3, [r7, #4]
    1576:	9301      	str	r3, [sp, #4]
    1578:	4b16      	ldr	r3, [pc, #88]	; (15d4 <TA_CloseSessionEntryPoint+0x84>)
    157a:	447b      	add	r3, pc
    157c:	9300      	str	r3, [sp, #0]
    157e:	f04f 0301 	mov.w	r3, #1
    1582:	f04f 0203 	mov.w	r2, #3
    1586:	f44f 7128 	mov.w	r1, #672	; 0x2a0
    158a:	4813      	ldr	r0, [pc, #76]	; (15d8 <TA_CloseSessionEntryPoint+0x88>)
    158c:	4478      	add	r0, pc
    158e:	f002 fb72 	bl	3c76 <trace_printf>
/usr/src/app/examples/example_trustzone/ta1/ta1.c:673
    1592:	687b      	ldr	r3, [r7, #4]
    1594:	60fb      	str	r3, [r7, #12]
/usr/src/app/examples/example_trustzone/ta1/ta1.c:676
    1596:	68fb      	ldr	r3, [r7, #12]
    1598:	691b      	ldr	r3, [r3, #16]
    159a:	2b00      	cmp	r3, #0
    159c:	d004      	beq.n	15a8 <TA_CloseSessionEntryPoint+0x58>
/usr/src/app/examples/example_trustzone/ta1/ta1.c:677
    159e:	68fb      	ldr	r3, [r7, #12]
    15a0:	691b      	ldr	r3, [r3, #16]
    15a2:	4618      	mov	r0, r3
    15a4:	f012 fdb7 	bl	14116 <TEE_FreeTransientObject>
/usr/src/app/examples/example_trustzone/ta1/ta1.c:678
    15a8:	68fb      	ldr	r3, [r7, #12]
    15aa:	68db      	ldr	r3, [r3, #12]
    15ac:	2b00      	cmp	r3, #0
    15ae:	d004      	beq.n	15ba <TA_CloseSessionEntryPoint+0x6a>
/usr/src/app/examples/example_trustzone/ta1/ta1.c:679
    15b0:	68fb      	ldr	r3, [r7, #12]
    15b2:	68db      	ldr	r3, [r3, #12]
    15b4:	4618      	mov	r0, r3
    15b6:	f005 fc55 	bl	6e64 <TEE_FreeOperation>
/usr/src/app/examples/example_trustzone/ta1/ta1.c:680
    15ba:	68f8      	ldr	r0, [r7, #12]
    15bc:	f004 fb84 	bl	5cc8 <TEE_Free>
/usr/src/app/examples/example_trustzone/ta1/ta1.c:681
    15c0:	bf00      	nop
    15c2:	f107 0710 	add.w	r7, r7, #16
    15c6:	46bd      	mov	sp, r7
    15c8:	bd80      	pop	{r7, pc}
    15ca:	bf00      	nop
    15cc:	00013f18 	.word	0x00013f18
    15d0:	00014066 	.word	0x00014066
    15d4:	00013f32 	.word	0x00013f32
    15d8:	00014048 	.word	0x00014048

000015dc <TA_InvokeCommandEntryPoint>:
TA_InvokeCommandEntryPoint():
/usr/src/app/examples/example_trustzone/ta1/ta1.c:686
    15dc:	e96d 7e02 	strd	r7, lr, [sp, #-8]!
    15e0:	b086      	sub	sp, #24
    15e2:	af02      	add	r7, sp, #8
    15e4:	60f8      	str	r0, [r7, #12]
    15e6:	60b9      	str	r1, [r7, #8]
    15e8:	607a      	str	r2, [r7, #4]
    15ea:	603b      	str	r3, [r7, #0]
/usr/src/app/examples/example_trustzone/ta1/ta1.c:687
    15ec:	4b22      	ldr	r3, [pc, #136]	; (1678 <TA_InvokeCommandEntryPoint+0x9c>)
    15ee:	447b      	add	r3, pc
    15f0:	4618      	mov	r0, r3
    15f2:	f003 fe51 	bl	5298 <puts>
    15f6:	68bb      	ldr	r3, [r7, #8]
    15f8:	2b03      	cmp	r3, #3
    15fa:	d825      	bhi.n	1648 <TA_InvokeCommandEntryPoint+0x6c>
    15fc:	a202      	add	r2, pc, #8	; (adr r2, 1608 <TA_InvokeCommandEntryPoint+0x2c>)
    15fe:	f852 3023 	ldr.w	r3, [r2, r3, lsl #2]
    1602:	441a      	add	r2, r3
    1604:	4710      	bx	r2
    1606:	bf00      	nop
    1608:	00000011 	.word	0x00000011
    160c:	0000001f 	.word	0x0000001f
    1610:	0000002d 	.word	0x0000002d
    1614:	00000033 	.word	0x00000033
/usr/src/app/examples/example_trustzone/ta1/ta1.c:690
    1618:	683a      	ldr	r2, [r7, #0]
    161a:	6879      	ldr	r1, [r7, #4]
    161c:	68f8      	ldr	r0, [r7, #12]
    161e:	f7ff f8f9 	bl	814 <set_key>
    1622:	4603      	mov	r3, r0
    1624:	e023      	b.n	166e <TA_InvokeCommandEntryPoint+0x92>
/usr/src/app/examples/example_trustzone/ta1/ta1.c:692
    1626:	683a      	ldr	r2, [r7, #0]
    1628:	6879      	ldr	r1, [r7, #4]
    162a:	68f8      	ldr	r0, [r7, #12]
    162c:	f7ff fa50 	bl	ad0 <attest>
    1630:	4603      	mov	r3, r0
    1632:	e01c      	b.n	166e <TA_InvokeCommandEntryPoint+0x92>
/usr/src/app/examples/example_trustzone/ta1/ta1.c:694
    1634:	f04f 0300 	mov.w	r3, #0
    1638:	e019      	b.n	166e <TA_InvokeCommandEntryPoint+0x92>
/usr/src/app/examples/example_trustzone/ta1/ta1.c:696
    163a:	683a      	ldr	r2, [r7, #0]
    163c:	6879      	ldr	r1, [r7, #4]
    163e:	68f8      	ldr	r0, [r7, #12]
    1640:	f7ff fee6 	bl	1410 <entry>
    1644:	4603      	mov	r3, r0
    1646:	e012      	b.n	166e <TA_InvokeCommandEntryPoint+0x92>
/usr/src/app/examples/example_trustzone/ta1/ta1.c:698
    1648:	68bb      	ldr	r3, [r7, #8]
    164a:	9301      	str	r3, [sp, #4]
    164c:	4b0b      	ldr	r3, [pc, #44]	; (167c <TA_InvokeCommandEntryPoint+0xa0>)
    164e:	447b      	add	r3, pc
    1650:	9300      	str	r3, [sp, #0]
    1652:	f04f 0301 	mov.w	r3, #1
    1656:	f04f 0201 	mov.w	r2, #1
    165a:	f240 21ba 	movw	r1, #698	; 0x2ba
    165e:	4808      	ldr	r0, [pc, #32]	; (1680 <TA_InvokeCommandEntryPoint+0xa4>)
    1660:	4478      	add	r0, pc
    1662:	f002 fb08 	bl	3c76 <trace_printf>
/usr/src/app/examples/example_trustzone/ta1/ta1.c:699
    1666:	f04f 030a 	mov.w	r3, #10
    166a:	f6cf 73ff 	movt	r3, #65535	; 0xffff
/usr/src/app/examples/example_trustzone/ta1/ta1.c:701
    166e:	4618      	mov	r0, r3
    1670:	f107 0710 	add.w	r7, r7, #16
    1674:	46bd      	mov	sp, r7
    1676:	bd80      	pop	{r7, pc}
    1678:	00013eda 	.word	0x00013eda
    167c:	00013eae 	.word	0x00013eae
    1680:	00013f90 	.word	0x00013f90

00001684 <min>:
min():
/usr/src/app/examples/example_trustzone/ta1/spongent.c:41
    1684:	f84d 7d04 	str.w	r7, [sp, #-4]!
    1688:	b085      	sub	sp, #20
    168a:	af00      	add	r7, sp, #0
    168c:	e9c7 0102 	strd	r0, r1, [r7, #8]
    1690:	e9c7 2300 	strd	r2, r3, [r7]
/usr/src/app/examples/example_trustzone/ta1/spongent.c:42
    1694:	e9d7 2302 	ldrd	r2, r3, [r7, #8]
    1698:	e9d7 0100 	ldrd	r0, r1, [r7]
    169c:	4290      	cmp	r0, r2
    169e:	eb71 0303 	sbcs.w	r3, r1, r3
    16a2:	d302      	bcc.n	16aa <min+0x26>
/usr/src/app/examples/example_trustzone/ta1/spongent.c:43
    16a4:	e9d7 2302 	ldrd	r2, r3, [r7, #8]
    16a8:	e001      	b.n	16ae <min+0x2a>
/usr/src/app/examples/example_trustzone/ta1/spongent.c:46
    16aa:	e9d7 2300 	ldrd	r2, r3, [r7]
/usr/src/app/examples/example_trustzone/ta1/spongent.c:48
    16ae:	4610      	mov	r0, r2
    16b0:	4619      	mov	r1, r3
    16b2:	f107 0714 	add.w	r7, r7, #20
    16b6:	46bd      	mov	sp, r7
    16b8:	f85d 7b04 	ldr.w	r7, [sp], #4
    16bc:	4770      	bx	lr

000016be <copy_n>:
copy_n():
/usr/src/app/examples/example_trustzone/ta1/spongent.c:51
    16be:	f84d 7d04 	str.w	r7, [sp, #-4]!
    16c2:	b087      	sub	sp, #28
    16c4:	af00      	add	r7, sp, #0
    16c6:	60f8      	str	r0, [r7, #12]
    16c8:	60b9      	str	r1, [r7, #8]
    16ca:	607a      	str	r2, [r7, #4]
/usr/src/app/examples/example_trustzone/ta1/spongent.c:53
    16cc:	f04f 0300 	mov.w	r3, #0
    16d0:	617b      	str	r3, [r7, #20]
    16d2:	e00b      	b.n	16ec <copy_n+0x2e>
/usr/src/app/examples/example_trustzone/ta1/spongent.c:54 (discriminator 3)
    16d4:	697b      	ldr	r3, [r7, #20]
    16d6:	68fa      	ldr	r2, [r7, #12]
    16d8:	441a      	add	r2, r3
    16da:	697b      	ldr	r3, [r7, #20]
    16dc:	6879      	ldr	r1, [r7, #4]
    16de:	440b      	add	r3, r1
    16e0:	7812      	ldrb	r2, [r2, #0]
    16e2:	701a      	strb	r2, [r3, #0]
/usr/src/app/examples/example_trustzone/ta1/spongent.c:53 (discriminator 3)
    16e4:	697b      	ldr	r3, [r7, #20]
    16e6:	f103 0301 	add.w	r3, r3, #1
    16ea:	617b      	str	r3, [r7, #20]
/usr/src/app/examples/example_trustzone/ta1/spongent.c:53 (discriminator 1)
    16ec:	697a      	ldr	r2, [r7, #20]
    16ee:	68bb      	ldr	r3, [r7, #8]
    16f0:	429a      	cmp	r2, r3
    16f2:	dbef      	blt.n	16d4 <copy_n+0x16>
/usr/src/app/examples/example_trustzone/ta1/spongent.c:56
    16f4:	bf00      	nop
    16f6:	bf00      	nop
    16f8:	f107 071c 	add.w	r7, r7, #28
    16fc:	46bd      	mov	sp, r7
    16fe:	f85d 7b04 	ldr.w	r7, [sp], #4
    1702:	4770      	bx	lr

00001704 <PrintState>:
PrintState():
/usr/src/app/examples/example_trustzone/ta1/spongent.c:60
    1704:	e96d 7e02 	strd	r7, lr, [sp, #-8]!
    1708:	b084      	sub	sp, #16
    170a:	af00      	add	r7, sp, #0
    170c:	6078      	str	r0, [r7, #4]
/usr/src/app/examples/example_trustzone/ta1/spongent.c:62
    170e:	f04f 0329 	mov.w	r3, #41	; 0x29
    1712:	60fb      	str	r3, [r7, #12]
    1714:	e00d      	b.n	1732 <PrintState+0x2e>
/usr/src/app/examples/example_trustzone/ta1/spongent.c:63 (discriminator 3)
    1716:	687a      	ldr	r2, [r7, #4]
    1718:	68fb      	ldr	r3, [r7, #12]
    171a:	4413      	add	r3, r2
    171c:	781b      	ldrb	r3, [r3, #0]
    171e:	4619      	mov	r1, r3
    1720:	4b0a      	ldr	r3, [pc, #40]	; (174c <PrintState+0x48>)
    1722:	447b      	add	r3, pc
    1724:	4618      	mov	r0, r3
    1726:	f003 fd7d 	bl	5224 <printf>
/usr/src/app/examples/example_trustzone/ta1/spongent.c:62 (discriminator 3)
    172a:	68fb      	ldr	r3, [r7, #12]
    172c:	f103 33ff 	add.w	r3, r3, #4294967295	; 0xffffffff
    1730:	60fb      	str	r3, [r7, #12]
/usr/src/app/examples/example_trustzone/ta1/spongent.c:62 (discriminator 1)
    1732:	68fb      	ldr	r3, [r7, #12]
    1734:	2b00      	cmp	r3, #0
    1736:	daee      	bge.n	1716 <PrintState+0x12>
/usr/src/app/examples/example_trustzone/ta1/spongent.c:64
    1738:	f04f 000a 	mov.w	r0, #10
    173c:	f003 fdc8 	bl	52d0 <putchar>
/usr/src/app/examples/example_trustzone/ta1/spongent.c:65
    1740:	bf00      	nop
    1742:	f107 0710 	add.w	r7, r7, #16
    1746:	46bd      	mov	sp, r7
    1748:	bd80      	pop	{r7, pc}
    174a:	bf00      	nop
    174c:	00013eea 	.word	0x00013eea

00001750 <lCounter>:
lCounter():
/usr/src/app/examples/example_trustzone/ta1/spongent.c:70
    1750:	f84d 7d04 	str.w	r7, [sp, #-4]!
    1754:	b083      	sub	sp, #12
    1756:	af00      	add	r7, sp, #0
    1758:	4603      	mov	r3, r0
    175a:	80fb      	strh	r3, [r7, #6]
/usr/src/app/examples/example_trustzone/ta1/spongent.c:89
    175c:	88fb      	ldrh	r3, [r7, #6]
    175e:	ea4f 0343 	mov.w	r3, r3, lsl #1
    1762:	b21a      	sxth	r2, r3
    1764:	88fb      	ldrh	r3, [r7, #6]
    1766:	ea4f 13d3 	mov.w	r3, r3, lsr #7
    176a:	b299      	uxth	r1, r3
    176c:	88fb      	ldrh	r3, [r7, #6]
    176e:	ea4f 03d3 	mov.w	r3, r3, lsr #3
    1772:	b29b      	uxth	r3, r3
    1774:	ea83 0301 	eor.w	r3, r3, r1
    1778:	b299      	uxth	r1, r3
    177a:	88fb      	ldrh	r3, [r7, #6]
    177c:	ea4f 0393 	mov.w	r3, r3, lsr #2
    1780:	b29b      	uxth	r3, r3
    1782:	ea83 0301 	eor.w	r3, r3, r1
    1786:	b299      	uxth	r1, r3
    1788:	88fb      	ldrh	r3, [r7, #6]
    178a:	ea4f 0353 	mov.w	r3, r3, lsr #1
    178e:	b29b      	uxth	r3, r3
    1790:	ea83 0301 	eor.w	r3, r3, r1
    1794:	b29b      	uxth	r3, r3
    1796:	b21b      	sxth	r3, r3
    1798:	f003 0301 	and.w	r3, r3, #1
    179c:	b21b      	sxth	r3, r3
    179e:	ea43 0302 	orr.w	r3, r3, r2
    17a2:	b21b      	sxth	r3, r3
    17a4:	80fb      	strh	r3, [r7, #6]
/usr/src/app/examples/example_trustzone/ta1/spongent.c:90
    17a6:	88fb      	ldrh	r3, [r7, #6]
    17a8:	b2db      	uxtb	r3, r3
    17aa:	80fb      	strh	r3, [r7, #6]
/usr/src/app/examples/example_trustzone/ta1/spongent.c:91
    17ac:	bf00      	nop
/usr/src/app/examples/example_trustzone/ta1/spongent.c:101
    17ae:	88fb      	ldrh	r3, [r7, #6]
/usr/src/app/examples/example_trustzone/ta1/spongent.c:102
    17b0:	4618      	mov	r0, r3
    17b2:	f107 070c 	add.w	r7, r7, #12
    17b6:	46bd      	mov	sp, r7
    17b8:	f85d 7b04 	ldr.w	r7, [sp], #4
    17bc:	4770      	bx	lr

000017be <retnuoCl>:
retnuoCl():
/usr/src/app/examples/example_trustzone/ta1/spongent.c:107
    17be:	f84d 7d04 	str.w	r7, [sp, #-4]!
    17c2:	b083      	sub	sp, #12
    17c4:	af00      	add	r7, sp, #0
    17c6:	4603      	mov	r3, r0
    17c8:	80fb      	strh	r3, [r7, #6]
/usr/src/app/examples/example_trustzone/ta1/spongent.c:121
    17ca:	88fb      	ldrh	r3, [r7, #6]
    17cc:	ea4f 13c3 	mov.w	r3, r3, lsl #7
    17d0:	b21b      	sxth	r3, r3
    17d2:	b2db      	uxtb	r3, r3
    17d4:	b21a      	sxth	r2, r3
    17d6:	88fb      	ldrh	r3, [r7, #6]
    17d8:	ea4f 1343 	mov.w	r3, r3, lsl #5
    17dc:	b21b      	sxth	r3, r3
    17de:	f003 0340 	and.w	r3, r3, #64	; 0x40
    17e2:	b21b      	sxth	r3, r3
    17e4:	ea43 0302 	orr.w	r3, r3, r2
    17e8:	b21a      	sxth	r2, r3
    17ea:	88fb      	ldrh	r3, [r7, #6]
    17ec:	ea4f 03c3 	mov.w	r3, r3, lsl #3
    17f0:	b21b      	sxth	r3, r3
    17f2:	f003 0320 	and.w	r3, r3, #32
    17f6:	b21b      	sxth	r3, r3
    17f8:	ea43 0302 	orr.w	r3, r3, r2
    17fc:	b21a      	sxth	r2, r3
    17fe:	88fb      	ldrh	r3, [r7, #6]
    1800:	ea4f 0343 	mov.w	r3, r3, lsl #1
    1804:	b21b      	sxth	r3, r3
    1806:	f003 0310 	and.w	r3, r3, #16
    180a:	b21b      	sxth	r3, r3
    180c:	ea43 0302 	orr.w	r3, r3, r2
    1810:	b21a      	sxth	r2, r3
    1812:	88fb      	ldrh	r3, [r7, #6]
    1814:	ea4f 0363 	mov.w	r3, r3, asr #1
    1818:	b21b      	sxth	r3, r3
    181a:	f003 0308 	and.w	r3, r3, #8
    181e:	b21b      	sxth	r3, r3
    1820:	ea43 0302 	orr.w	r3, r3, r2
    1824:	b21a      	sxth	r2, r3
    1826:	88fb      	ldrh	r3, [r7, #6]
    1828:	ea4f 03e3 	mov.w	r3, r3, asr #3
    182c:	b21b      	sxth	r3, r3
    182e:	f003 0304 	and.w	r3, r3, #4
    1832:	b21b      	sxth	r3, r3
    1834:	ea43 0302 	orr.w	r3, r3, r2
    1838:	b21a      	sxth	r2, r3
    183a:	88fb      	ldrh	r3, [r7, #6]
    183c:	ea4f 1363 	mov.w	r3, r3, asr #5
    1840:	b21b      	sxth	r3, r3
    1842:	f003 0302 	and.w	r3, r3, #2
    1846:	b21b      	sxth	r3, r3
    1848:	ea43 0302 	orr.w	r3, r3, r2
    184c:	b21a      	sxth	r2, r3
    184e:	88fb      	ldrh	r3, [r7, #6]
    1850:	ea4f 13e3 	mov.w	r3, r3, asr #7
    1854:	b21b      	sxth	r3, r3
    1856:	f003 0301 	and.w	r3, r3, #1
    185a:	b21b      	sxth	r3, r3
    185c:	ea43 0302 	orr.w	r3, r3, r2
    1860:	b21b      	sxth	r3, r3
    1862:	80fb      	strh	r3, [r7, #6]
/usr/src/app/examples/example_trustzone/ta1/spongent.c:122
    1864:	88fb      	ldrh	r3, [r7, #6]
    1866:	ea4f 2303 	mov.w	r3, r3, lsl #8
    186a:	80fb      	strh	r3, [r7, #6]
/usr/src/app/examples/example_trustzone/ta1/spongent.c:123
    186c:	bf00      	nop
/usr/src/app/examples/example_trustzone/ta1/spongent.c:134
    186e:	88fb      	ldrh	r3, [r7, #6]
/usr/src/app/examples/example_trustzone/ta1/spongent.c:135
    1870:	4618      	mov	r0, r3
    1872:	f107 070c 	add.w	r7, r7, #12
    1876:	46bd      	mov	sp, r7
    1878:	f85d 7b04 	ldr.w	r7, [sp], #4
    187c:	4770      	bx	lr

0000187e <Pi>:
Pi():
/usr/src/app/examples/example_trustzone/ta1/spongent.c:140
    187e:	f84d 7d04 	str.w	r7, [sp, #-4]!
    1882:	b083      	sub	sp, #12
    1884:	af00      	add	r7, sp, #0
    1886:	6078      	str	r0, [r7, #4]
/usr/src/app/examples/example_trustzone/ta1/spongent.c:141
    1888:	687b      	ldr	r3, [r7, #4]
    188a:	f240 124f 	movw	r2, #335	; 0x14f
    188e:	4293      	cmp	r3, r2
    1890:	d018      	beq.n	18c4 <Pi+0x46>
/usr/src/app/examples/example_trustzone/ta1/spongent.c:142
    1892:	687b      	ldr	r3, [r7, #4]
    1894:	f04f 0254 	mov.w	r2, #84	; 0x54
    1898:	fb02 f303 	mul.w	r3, r2, r3
    189c:	f643 52e7 	movw	r2, #15847	; 0x3de7
    18a0:	f2cc 32a1 	movt	r2, #50081	; 0xc3a1
    18a4:	fb82 1203 	smull	r1, r2, r2, r3
    18a8:	441a      	add	r2, r3
    18aa:	ea4f 2122 	mov.w	r1, r2, asr #8
    18ae:	ea4f 72e3 	mov.w	r2, r3, asr #31
    18b2:	eba1 0202 	sub.w	r2, r1, r2
    18b6:	f240 114f 	movw	r1, #335	; 0x14f
    18ba:	fb01 f202 	mul.w	r2, r1, r2
    18be:	eba3 0202 	sub.w	r2, r3, r2
    18c2:	e001      	b.n	18c8 <Pi+0x4a>
/usr/src/app/examples/example_trustzone/ta1/spongent.c:144
    18c4:	f240 124f 	movw	r2, #335	; 0x14f
/usr/src/app/examples/example_trustzone/ta1/spongent.c:145
    18c8:	4613      	mov	r3, r2
    18ca:	4618      	mov	r0, r3
    18cc:	f107 070c 	add.w	r7, r7, #12
    18d0:	46bd      	mov	sp, r7
    18d2:	f85d 7b04 	ldr.w	r7, [sp], #4
    18d6:	4770      	bx	lr

000018d8 <pLayer>:
pLayer():
/usr/src/app/examples/example_trustzone/ta1/spongent.c:150
    18d8:	e96d 7e02 	strd	r7, lr, [sp, #-8]!
    18dc:	b092      	sub	sp, #72	; 0x48
    18de:	af00      	add	r7, sp, #0
    18e0:	6078      	str	r0, [r7, #4]
/usr/src/app/examples/example_trustzone/ta1/spongent.c:154
    18e2:	f04f 0300 	mov.w	r3, #0
    18e6:	647b      	str	r3, [r7, #68]	; 0x44
    18e8:	e00a      	b.n	1900 <pLayer+0x28>
/usr/src/app/examples/example_trustzone/ta1/spongent.c:154 (discriminator 3)
    18ea:	f107 020c 	add.w	r2, r7, #12
    18ee:	6c7b      	ldr	r3, [r7, #68]	; 0x44
    18f0:	4413      	add	r3, r2
    18f2:	f04f 0200 	mov.w	r2, #0
    18f6:	701a      	strb	r2, [r3, #0]
    18f8:	6c7b      	ldr	r3, [r7, #68]	; 0x44
    18fa:	f103 0301 	add.w	r3, r3, #1
    18fe:	647b      	str	r3, [r7, #68]	; 0x44
/usr/src/app/examples/example_trustzone/ta1/spongent.c:154 (discriminator 1)
    1900:	6c7b      	ldr	r3, [r7, #68]	; 0x44
    1902:	2b29      	cmp	r3, #41	; 0x29
    1904:	ddf1      	ble.n	18ea <pLayer+0x12>
/usr/src/app/examples/example_trustzone/ta1/spongent.c:156
    1906:	f04f 0300 	mov.w	r3, #0
    190a:	647b      	str	r3, [r7, #68]	; 0x44
    190c:	e04e      	b.n	19ac <pLayer+0xd4>
/usr/src/app/examples/example_trustzone/ta1/spongent.c:157
    190e:	f04f 0300 	mov.w	r3, #0
    1912:	643b      	str	r3, [r7, #64]	; 0x40
    1914:	e043      	b.n	199e <pLayer+0xc6>
/usr/src/app/examples/example_trustzone/ta1/spongent.c:158 (discriminator 3)
    1916:	687a      	ldr	r2, [r7, #4]
    1918:	6c7b      	ldr	r3, [r7, #68]	; 0x44
    191a:	4413      	add	r3, r2
    191c:	781b      	ldrb	r3, [r3, #0]
    191e:	461a      	mov	r2, r3
    1920:	6c3b      	ldr	r3, [r7, #64]	; 0x40
    1922:	fa42 f303 	asr.w	r3, r2, r3
    1926:	b2db      	uxtb	r3, r3
    1928:	f003 0301 	and.w	r3, r3, #1
    192c:	f887 303f 	strb.w	r3, [r7, #63]	; 0x3f
/usr/src/app/examples/example_trustzone/ta1/spongent.c:159 (discriminator 3)
    1930:	6c7b      	ldr	r3, [r7, #68]	; 0x44
    1932:	ea4f 02c3 	mov.w	r2, r3, lsl #3
    1936:	6c3b      	ldr	r3, [r7, #64]	; 0x40
    1938:	4413      	add	r3, r2
    193a:	4618      	mov	r0, r3
    193c:	f7ff ff9f 	bl	187e <Pi>
    1940:	63b8      	str	r0, [r7, #56]	; 0x38
/usr/src/app/examples/example_trustzone/ta1/spongent.c:160 (discriminator 3)
    1942:	6bbb      	ldr	r3, [r7, #56]	; 0x38
    1944:	f103 0207 	add.w	r2, r3, #7
    1948:	2b00      	cmp	r3, #0
    194a:	bfb4      	ite	lt
    194c:	4613      	movlt	r3, r2
    194e:	461b      	movge	r3, r3
    1950:	ea4f 03e3 	mov.w	r3, r3, asr #3
    1954:	f887 3037 	strb.w	r3, [r7, #55]	; 0x37
/usr/src/app/examples/example_trustzone/ta1/spongent.c:161 (discriminator 3)
    1958:	f897 3037 	ldrb.w	r3, [r7, #55]	; 0x37
    195c:	f107 0248 	add.w	r2, r7, #72	; 0x48
    1960:	4413      	add	r3, r2
    1962:	f813 3c3c 	ldrb.w	r3, [r3, #-60]
    1966:	b25a      	sxtb	r2, r3
    1968:	f897 103f 	ldrb.w	r1, [r7, #63]	; 0x3f
    196c:	f897 3037 	ldrb.w	r3, [r7, #55]	; 0x37
    1970:	ea4f 03c3 	mov.w	r3, r3, lsl #3
    1974:	6bb8      	ldr	r0, [r7, #56]	; 0x38
    1976:	eba0 0303 	sub.w	r3, r0, r3
    197a:	fa01 f303 	lsl.w	r3, r1, r3
    197e:	b25b      	sxtb	r3, r3
    1980:	ea83 0302 	eor.w	r3, r3, r2
    1984:	b25a      	sxtb	r2, r3
    1986:	f897 3037 	ldrb.w	r3, [r7, #55]	; 0x37
    198a:	b2d2      	uxtb	r2, r2
    198c:	f107 0148 	add.w	r1, r7, #72	; 0x48
    1990:	440b      	add	r3, r1
    1992:	f803 2c3c 	strb.w	r2, [r3, #-60]
/usr/src/app/examples/example_trustzone/ta1/spongent.c:157 (discriminator 3)
    1996:	6c3b      	ldr	r3, [r7, #64]	; 0x40
    1998:	f103 0301 	add.w	r3, r3, #1
    199c:	643b      	str	r3, [r7, #64]	; 0x40
/usr/src/app/examples/example_trustzone/ta1/spongent.c:157 (discriminator 1)
    199e:	6c3b      	ldr	r3, [r7, #64]	; 0x40
    19a0:	2b07      	cmp	r3, #7
    19a2:	ddb8      	ble.n	1916 <pLayer+0x3e>
/usr/src/app/examples/example_trustzone/ta1/spongent.c:156 (discriminator 2)
    19a4:	6c7b      	ldr	r3, [r7, #68]	; 0x44
    19a6:	f103 0301 	add.w	r3, r3, #1
    19aa:	647b      	str	r3, [r7, #68]	; 0x44
/usr/src/app/examples/example_trustzone/ta1/spongent.c:156 (discriminator 1)
    19ac:	6c7b      	ldr	r3, [r7, #68]	; 0x44
    19ae:	2b29      	cmp	r3, #41	; 0x29
    19b0:	ddad      	ble.n	190e <pLayer+0x36>
/usr/src/app/examples/example_trustzone/ta1/spongent.c:164
    19b2:	687b      	ldr	r3, [r7, #4]
    19b4:	4618      	mov	r0, r3
    19b6:	f107 030c 	add.w	r3, r7, #12
    19ba:	f04f 022a 	mov.w	r2, #42	; 0x2a
    19be:	4619      	mov	r1, r3
    19c0:	f011 fdb2 	bl	13528 <memcpy>
/usr/src/app/examples/example_trustzone/ta1/spongent.c:165
    19c4:	bf00      	nop
    19c6:	f107 0748 	add.w	r7, r7, #72	; 0x48
    19ca:	46bd      	mov	sp, r7
    19cc:	bd80      	pop	{r7, pc}

000019ce <Permute>:
Permute():
/usr/src/app/examples/example_trustzone/ta1/spongent.c:170
    19ce:	f84d 4d0c 	str.w	r4, [sp, #-12]!
    19d2:	e9cd 7e01 	strd	r7, lr, [sp, #4]
    19d6:	b085      	sub	sp, #20
    19d8:	af00      	add	r7, sp, #0
    19da:	6078      	str	r0, [r7, #4]
    19dc:	4c3b      	ldr	r4, [pc, #236]	; (1acc <Permute+0xfe>)
    19de:	447c      	add	r4, pc
/usr/src/app/examples/example_trustzone/ta1/spongent.c:183
    19e0:	f04f 0352 	mov.w	r3, #82	; 0x52
    19e4:	817b      	strh	r3, [r7, #10]
    19e6:	bf00      	nop
/usr/src/app/examples/example_trustzone/ta1/spongent.c:190
    19e8:	f04f 0300 	mov.w	r3, #0
    19ec:	81fb      	strh	r3, [r7, #14]
    19ee:	e05f      	b.n	1ab0 <Permute+0xe2>
/usr/src/app/examples/example_trustzone/ta1/spongent.c:196
    19f0:	687b      	ldr	r3, [r7, #4]
    19f2:	781b      	ldrb	r3, [r3, #0]
    19f4:	b25a      	sxtb	r2, r3
    19f6:	897b      	ldrh	r3, [r7, #10]
    19f8:	b25b      	sxtb	r3, r3
    19fa:	ea83 0302 	eor.w	r3, r3, r2
    19fe:	b25b      	sxtb	r3, r3
    1a00:	b2da      	uxtb	r2, r3
    1a02:	687b      	ldr	r3, [r7, #4]
    1a04:	701a      	strb	r2, [r3, #0]
/usr/src/app/examples/example_trustzone/ta1/spongent.c:197
    1a06:	687b      	ldr	r3, [r7, #4]
    1a08:	785b      	ldrb	r3, [r3, #1]
    1a0a:	b25a      	sxtb	r2, r3
    1a0c:	897b      	ldrh	r3, [r7, #10]
    1a0e:	ea4f 2313 	mov.w	r3, r3, lsr #8
    1a12:	b29b      	uxth	r3, r3
    1a14:	b25b      	sxtb	r3, r3
    1a16:	ea83 0302 	eor.w	r3, r3, r2
    1a1a:	b25b      	sxtb	r3, r3
    1a1c:	b2da      	uxtb	r2, r3
    1a1e:	687b      	ldr	r3, [r7, #4]
    1a20:	705a      	strb	r2, [r3, #1]
/usr/src/app/examples/example_trustzone/ta1/spongent.c:198
    1a22:	897b      	ldrh	r3, [r7, #10]
    1a24:	4618      	mov	r0, r3
    1a26:	f7ff feca 	bl	17be <retnuoCl>
    1a2a:	4603      	mov	r3, r0
    1a2c:	813b      	strh	r3, [r7, #8]
/usr/src/app/examples/example_trustzone/ta1/spongent.c:199
    1a2e:	687b      	ldr	r3, [r7, #4]
    1a30:	f893 3029 	ldrb.w	r3, [r3, #41]	; 0x29
    1a34:	b25a      	sxtb	r2, r3
    1a36:	893b      	ldrh	r3, [r7, #8]
    1a38:	ea4f 2313 	mov.w	r3, r3, lsr #8
    1a3c:	b29b      	uxth	r3, r3
    1a3e:	b25b      	sxtb	r3, r3
    1a40:	ea83 0302 	eor.w	r3, r3, r2
    1a44:	b25b      	sxtb	r3, r3
    1a46:	b2da      	uxtb	r2, r3
    1a48:	687b      	ldr	r3, [r7, #4]
    1a4a:	f883 2029 	strb.w	r2, [r3, #41]	; 0x29
/usr/src/app/examples/example_trustzone/ta1/spongent.c:200
    1a4e:	687b      	ldr	r3, [r7, #4]
    1a50:	f893 3028 	ldrb.w	r3, [r3, #40]	; 0x28
    1a54:	b25a      	sxtb	r2, r3
    1a56:	893b      	ldrh	r3, [r7, #8]
    1a58:	b25b      	sxtb	r3, r3
    1a5a:	ea83 0302 	eor.w	r3, r3, r2
    1a5e:	b25b      	sxtb	r3, r3
    1a60:	b2da      	uxtb	r2, r3
    1a62:	687b      	ldr	r3, [r7, #4]
    1a64:	f883 2028 	strb.w	r2, [r3, #40]	; 0x28
/usr/src/app/examples/example_trustzone/ta1/spongent.c:201
    1a68:	897b      	ldrh	r3, [r7, #10]
    1a6a:	4618      	mov	r0, r3
    1a6c:	f7ff fe70 	bl	1750 <lCounter>
    1a70:	4603      	mov	r3, r0
    1a72:	817b      	strh	r3, [r7, #10]
/usr/src/app/examples/example_trustzone/ta1/spongent.c:204
    1a74:	f04f 0300 	mov.w	r3, #0
    1a78:	81bb      	strh	r3, [r7, #12]
    1a7a:	e00f      	b.n	1a9c <Permute+0xce>
/usr/src/app/examples/example_trustzone/ta1/spongent.c:205 (discriminator 3)
    1a7c:	89bb      	ldrh	r3, [r7, #12]
    1a7e:	687a      	ldr	r2, [r7, #4]
    1a80:	5cd3      	ldrb	r3, [r2, r3]
    1a82:	461a      	mov	r2, r3
    1a84:	4b12      	ldr	r3, [pc, #72]	; (1ad0 <Permute+0x102>)
    1a86:	58e3      	ldr	r3, [r4, r3]
    1a88:	f853 2022 	ldr.w	r2, [r3, r2, lsl #2]
    1a8c:	89bb      	ldrh	r3, [r7, #12]
    1a8e:	b2d1      	uxtb	r1, r2
    1a90:	687a      	ldr	r2, [r7, #4]
    1a92:	54d1      	strb	r1, [r2, r3]
/usr/src/app/examples/example_trustzone/ta1/spongent.c:204 (discriminator 3)
    1a94:	89bb      	ldrh	r3, [r7, #12]
    1a96:	f103 0301 	add.w	r3, r3, #1
    1a9a:	81bb      	strh	r3, [r7, #12]
/usr/src/app/examples/example_trustzone/ta1/spongent.c:204 (discriminator 1)
    1a9c:	89bb      	ldrh	r3, [r7, #12]
    1a9e:	2b29      	cmp	r3, #41	; 0x29
    1aa0:	d9ec      	bls.n	1a7c <Permute+0xae>
/usr/src/app/examples/example_trustzone/ta1/spongent.c:208 (discriminator 2)
    1aa2:	6878      	ldr	r0, [r7, #4]
    1aa4:	f7ff ff18 	bl	18d8 <pLayer>
/usr/src/app/examples/example_trustzone/ta1/spongent.c:190 (discriminator 2)
    1aa8:	89fb      	ldrh	r3, [r7, #14]
    1aaa:	f103 0301 	add.w	r3, r3, #1
    1aae:	81fb      	strh	r3, [r7, #14]
/usr/src/app/examples/example_trustzone/ta1/spongent.c:190 (discriminator 1)
    1ab0:	89fb      	ldrh	r3, [r7, #14]
    1ab2:	2ba9      	cmp	r3, #169	; 0xa9
    1ab4:	d99c      	bls.n	19f0 <Permute+0x22>
/usr/src/app/examples/example_trustzone/ta1/spongent.c:214
    1ab6:	bf00      	nop
    1ab8:	bf00      	nop
    1aba:	f107 0714 	add.w	r7, r7, #20
    1abe:	46bd      	mov	sp, r7
    1ac0:	e9dd 4700 	ldrd	r4, r7, [sp]
    1ac4:	b002      	add	sp, #8
    1ac6:	f85d fb04 	ldr.w	pc, [sp], #4
    1aca:	bf00      	nop
    1acc:	000176a6 	.word	0x000176a6
    1ad0:	0000004c 	.word	0x0000004c

00001ad4 <Init>:
Init():
/usr/src/app/examples/example_trustzone/ta1/spongent.c:219
    1ad4:	e96d 7e02 	strd	r7, lr, [sp, #-8]!
    1ad8:	b082      	sub	sp, #8
    1ada:	af00      	add	r7, sp, #0
    1adc:	6078      	str	r0, [r7, #4]
    1ade:	6039      	str	r1, [r7, #0]
/usr/src/app/examples/example_trustzone/ta1/spongent.c:221
    1ae0:	687b      	ldr	r3, [r7, #4]
    1ae2:	f04f 022a 	mov.w	r2, #42	; 0x2a
    1ae6:	f04f 0100 	mov.w	r1, #0
    1aea:	4618      	mov	r0, r3
    1aec:	f011 fd95 	bl	1361a <memset>
/usr/src/app/examples/example_trustzone/ta1/spongent.c:222
    1af0:	687b      	ldr	r3, [r7, #4]
    1af2:	f04f 0200 	mov.w	r2, #0
    1af6:	635a      	str	r2, [r3, #52]	; 0x34
/usr/src/app/examples/example_trustzone/ta1/spongent.c:223
    1af8:	687b      	ldr	r3, [r7, #4]
    1afa:	f04f 0200 	mov.w	r2, #0
    1afe:	631a      	str	r2, [r3, #48]	; 0x30
/usr/src/app/examples/example_trustzone/ta1/spongent.c:225
    1b00:	683b      	ldr	r3, [r7, #0]
    1b02:	2b00      	cmp	r3, #0
    1b04:	d006      	beq.n	1b14 <Init+0x40>
/usr/src/app/examples/example_trustzone/ta1/spongent.c:226
    1b06:	f04f 0210 	mov.w	r2, #16
    1b0a:	f04f 0100 	mov.w	r1, #0
    1b0e:	6838      	ldr	r0, [r7, #0]
    1b10:	f011 fd83 	bl	1361a <memset>
/usr/src/app/examples/example_trustzone/ta1/spongent.c:228
    1b14:	f04f 0300 	mov.w	r3, #0
/usr/src/app/examples/example_trustzone/ta1/spongent.c:229
    1b18:	4618      	mov	r0, r3
    1b1a:	f107 0708 	add.w	r7, r7, #8
    1b1e:	46bd      	mov	sp, r7
    1b20:	bd80      	pop	{r7, pc}

00001b22 <Absorb>:
Absorb():
/usr/src/app/examples/example_trustzone/ta1/spongent.c:234
    1b22:	e96d 7e02 	strd	r7, lr, [sp, #-8]!
    1b26:	b084      	sub	sp, #16
    1b28:	af00      	add	r7, sp, #0
    1b2a:	6078      	str	r0, [r7, #4]
/usr/src/app/examples/example_trustzone/ta1/spongent.c:236
    1b2c:	f04f 0300 	mov.w	r3, #0
    1b30:	60fb      	str	r3, [r7, #12]
    1b32:	e015      	b.n	1b60 <Absorb+0x3e>
/usr/src/app/examples/example_trustzone/ta1/spongent.c:237 (discriminator 3)
    1b34:	687a      	ldr	r2, [r7, #4]
    1b36:	68fb      	ldr	r3, [r7, #12]
    1b38:	4413      	add	r3, r2
    1b3a:	781a      	ldrb	r2, [r3, #0]
    1b3c:	6879      	ldr	r1, [r7, #4]
    1b3e:	68fb      	ldr	r3, [r7, #12]
    1b40:	440b      	add	r3, r1
    1b42:	f103 032a 	add.w	r3, r3, #42	; 0x2a
    1b46:	781b      	ldrb	r3, [r3, #0]
    1b48:	ea83 0302 	eor.w	r3, r3, r2
    1b4c:	b2d9      	uxtb	r1, r3
    1b4e:	687a      	ldr	r2, [r7, #4]
    1b50:	68fb      	ldr	r3, [r7, #12]
    1b52:	4413      	add	r3, r2
    1b54:	460a      	mov	r2, r1
    1b56:	701a      	strb	r2, [r3, #0]
/usr/src/app/examples/example_trustzone/ta1/spongent.c:236 (discriminator 3)
    1b58:	68fb      	ldr	r3, [r7, #12]
    1b5a:	f103 0301 	add.w	r3, r3, #1
    1b5e:	60fb      	str	r3, [r7, #12]
/usr/src/app/examples/example_trustzone/ta1/spongent.c:236 (discriminator 1)
    1b60:	68fb      	ldr	r3, [r7, #12]
    1b62:	2b02      	cmp	r3, #2
    1b64:	dde6      	ble.n	1b34 <Absorb+0x12>
/usr/src/app/examples/example_trustzone/ta1/spongent.c:238
    1b66:	6878      	ldr	r0, [r7, #4]
    1b68:	f7ff ff31 	bl	19ce <Permute>
/usr/src/app/examples/example_trustzone/ta1/spongent.c:240
    1b6c:	f04f 0300 	mov.w	r3, #0
/usr/src/app/examples/example_trustzone/ta1/spongent.c:241
    1b70:	4618      	mov	r0, r3
    1b72:	f107 0710 	add.w	r7, r7, #16
    1b76:	46bd      	mov	sp, r7
    1b78:	bd80      	pop	{r7, pc}

00001b7a <Squeeze>:
Squeeze():
/usr/src/app/examples/example_trustzone/ta1/spongent.c:246
    1b7a:	e96d 7e02 	strd	r7, lr, [sp, #-8]!
    1b7e:	b082      	sub	sp, #8
    1b80:	af00      	add	r7, sp, #0
    1b82:	6078      	str	r0, [r7, #4]
/usr/src/app/examples/example_trustzone/ta1/spongent.c:247
    1b84:	687b      	ldr	r3, [r7, #4]
    1b86:	f103 032a 	add.w	r3, r3, #42	; 0x2a
    1b8a:	6879      	ldr	r1, [r7, #4]
    1b8c:	f04f 0203 	mov.w	r2, #3
    1b90:	4618      	mov	r0, r3
    1b92:	f011 fcc9 	bl	13528 <memcpy>
/usr/src/app/examples/example_trustzone/ta1/spongent.c:254
    1b96:	6878      	ldr	r0, [r7, #4]
    1b98:	f7ff ff19 	bl	19ce <Permute>
/usr/src/app/examples/example_trustzone/ta1/spongent.c:256
    1b9c:	f04f 0300 	mov.w	r3, #0
/usr/src/app/examples/example_trustzone/ta1/spongent.c:257
    1ba0:	4618      	mov	r0, r3
    1ba2:	f107 0708 	add.w	r7, r7, #8
    1ba6:	46bd      	mov	sp, r7
    1ba8:	bd80      	pop	{r7, pc}

00001baa <Pad>:
Pad():
/usr/src/app/examples/example_trustzone/ta1/spongent.c:262
    1baa:	f84d 7d04 	str.w	r7, [sp, #-4]!
    1bae:	b085      	sub	sp, #20
    1bb0:	af00      	add	r7, sp, #0
    1bb2:	6078      	str	r0, [r7, #4]
/usr/src/app/examples/example_trustzone/ta1/spongent.c:263
    1bb4:	687b      	ldr	r3, [r7, #4]
    1bb6:	6b1b      	ldr	r3, [r3, #48]	; 0x30
    1bb8:	f103 0207 	add.w	r2, r3, #7
    1bbc:	2b00      	cmp	r3, #0
    1bbe:	bfb4      	ite	lt
    1bc0:	4613      	movlt	r3, r2
    1bc2:	461b      	movge	r3, r3
    1bc4:	ea4f 03e3 	mov.w	r3, r3, asr #3
    1bc8:	60fb      	str	r3, [r7, #12]
/usr/src/app/examples/example_trustzone/ta1/spongent.c:264
    1bca:	687b      	ldr	r3, [r7, #4]
    1bcc:	6b1b      	ldr	r3, [r3, #48]	; 0x30
    1bce:	425a      	negs	r2, r3
    1bd0:	f003 0307 	and.w	r3, r3, #7
    1bd4:	f002 0207 	and.w	r2, r2, #7
    1bd8:	bf58      	it	pl
    1bda:	4253      	negpl	r3, r2
    1bdc:	60bb      	str	r3, [r7, #8]
/usr/src/app/examples/example_trustzone/ta1/spongent.c:267
    1bde:	68bb      	ldr	r3, [r7, #8]
    1be0:	2b00      	cmp	r3, #0
    1be2:	d019      	beq.n	1c18 <Pad+0x6e>
/usr/src/app/examples/example_trustzone/ta1/spongent.c:268
    1be4:	687a      	ldr	r2, [r7, #4]
    1be6:	68fb      	ldr	r3, [r7, #12]
    1be8:	4413      	add	r3, r2
    1bea:	f103 032a 	add.w	r3, r3, #42	; 0x2a
    1bee:	781b      	ldrb	r3, [r3, #0]
    1bf0:	b25a      	sxtb	r2, r3
    1bf2:	68bb      	ldr	r3, [r7, #8]
    1bf4:	f1c3 0308 	rsb	r3, r3, #8
    1bf8:	f04f 01ff 	mov.w	r1, #255	; 0xff
    1bfc:	fa41 f303 	asr.w	r3, r1, r3
    1c00:	b25b      	sxtb	r3, r3
    1c02:	ea03 0302 	and.w	r3, r3, r2
    1c06:	b25b      	sxtb	r3, r3
    1c08:	b2d9      	uxtb	r1, r3
    1c0a:	687a      	ldr	r2, [r7, #4]
    1c0c:	68fb      	ldr	r3, [r7, #12]
    1c0e:	4413      	add	r3, r2
    1c10:	f103 032a 	add.w	r3, r3, #42	; 0x2a
    1c14:	460a      	mov	r2, r1
    1c16:	701a      	strb	r2, [r3, #0]
/usr/src/app/examples/example_trustzone/ta1/spongent.c:271
    1c18:	68bb      	ldr	r3, [r7, #8]
    1c1a:	2b00      	cmp	r3, #0
    1c1c:	d018      	beq.n	1c50 <Pad+0xa6>
/usr/src/app/examples/example_trustzone/ta1/spongent.c:272
    1c1e:	687a      	ldr	r2, [r7, #4]
    1c20:	68fb      	ldr	r3, [r7, #12]
    1c22:	4413      	add	r3, r2
    1c24:	f103 032a 	add.w	r3, r3, #42	; 0x2a
    1c28:	781b      	ldrb	r3, [r3, #0]
    1c2a:	b25a      	sxtb	r2, r3
    1c2c:	f04f 0101 	mov.w	r1, #1
    1c30:	68bb      	ldr	r3, [r7, #8]
    1c32:	fa01 f303 	lsl.w	r3, r1, r3
    1c36:	b25b      	sxtb	r3, r3
    1c38:	ea43 0302 	orr.w	r3, r3, r2
    1c3c:	b25b      	sxtb	r3, r3
    1c3e:	b2d9      	uxtb	r1, r3
    1c40:	687a      	ldr	r2, [r7, #4]
    1c42:	68fb      	ldr	r3, [r7, #12]
    1c44:	4413      	add	r3, r2
    1c46:	f103 032a 	add.w	r3, r3, #42	; 0x2a
    1c4a:	460a      	mov	r2, r1
    1c4c:	701a      	strb	r2, [r3, #0]
    1c4e:	e014      	b.n	1c7a <Pad+0xd0>
/usr/src/app/examples/example_trustzone/ta1/spongent.c:274
    1c50:	687a      	ldr	r2, [r7, #4]
    1c52:	68fb      	ldr	r3, [r7, #12]
    1c54:	4413      	add	r3, r2
    1c56:	f103 032a 	add.w	r3, r3, #42	; 0x2a
    1c5a:	f04f 0201 	mov.w	r2, #1
    1c5e:	701a      	strb	r2, [r3, #0]
/usr/src/app/examples/example_trustzone/ta1/spongent.c:277
    1c60:	e00b      	b.n	1c7a <Pad+0xd0>
/usr/src/app/examples/example_trustzone/ta1/spongent.c:279
    1c62:	68fb      	ldr	r3, [r7, #12]
    1c64:	f103 0301 	add.w	r3, r3, #1
    1c68:	60fb      	str	r3, [r7, #12]
/usr/src/app/examples/example_trustzone/ta1/spongent.c:280
    1c6a:	687a      	ldr	r2, [r7, #4]
    1c6c:	68fb      	ldr	r3, [r7, #12]
    1c6e:	4413      	add	r3, r2
    1c70:	f103 032a 	add.w	r3, r3, #42	; 0x2a
    1c74:	f04f 0200 	mov.w	r2, #0
    1c78:	701a      	strb	r2, [r3, #0]
/usr/src/app/examples/example_trustzone/ta1/spongent.c:277
    1c7a:	68fb      	ldr	r3, [r7, #12]
    1c7c:	2b03      	cmp	r3, #3
    1c7e:	d1f0      	bne.n	1c62 <Pad+0xb8>
/usr/src/app/examples/example_trustzone/ta1/spongent.c:282
    1c80:	f04f 0300 	mov.w	r3, #0
/usr/src/app/examples/example_trustzone/ta1/spongent.c:283
    1c84:	4618      	mov	r0, r3
    1c86:	f107 0714 	add.w	r7, r7, #20
    1c8a:	46bd      	mov	sp, r7
    1c8c:	f85d 7b04 	ldr.w	r7, [sp], #4
    1c90:	4770      	bx	lr

00001c92 <SpongentHash>:
SpongentHash():
/usr/src/app/examples/example_trustzone/ta1/spongent.c:288
    1c92:	e96d 4506 	strd	r4, r5, [sp, #-24]!
    1c96:	e9cd 7802 	strd	r7, r8, [sp, #8]
    1c9a:	e9cd 9e04 	strd	r9, lr, [sp, #16]
    1c9e:	b094      	sub	sp, #80	; 0x50
    1ca0:	af00      	add	r7, sp, #0
    1ca2:	60f8      	str	r0, [r7, #12]
    1ca4:	e9c7 2300 	strd	r2, r3, [r7]
/usr/src/app/examples/example_trustzone/ta1/spongent.c:293
    1ca8:	f107 0314 	add.w	r3, r7, #20
    1cac:	6eb9      	ldr	r1, [r7, #104]	; 0x68
    1cae:	4618      	mov	r0, r3
    1cb0:	f7ff ff10 	bl	1ad4 <Init>
    1cb4:	64f8      	str	r0, [r7, #76]	; 0x4c
/usr/src/app/examples/example_trustzone/ta1/spongent.c:294
    1cb6:	6cfb      	ldr	r3, [r7, #76]	; 0x4c
    1cb8:	2b00      	cmp	r3, #0
    1cba:	d01b      	beq.n	1cf4 <SpongentHash+0x62>
/usr/src/app/examples/example_trustzone/ta1/spongent.c:295
    1cbc:	6cfb      	ldr	r3, [r7, #76]	; 0x4c
    1cbe:	e092      	b.n	1de6 <SpongentHash+0x154>
/usr/src/app/examples/example_trustzone/ta1/spongent.c:300
    1cc0:	68fa      	ldr	r2, [r7, #12]
    1cc2:	f107 033e 	add.w	r3, r7, #62	; 0x3e
    1cc6:	4611      	mov	r1, r2
    1cc8:	f04f 0203 	mov.w	r2, #3
    1ccc:	4618      	mov	r0, r3
    1cce:	f011 fc2b 	bl	13528 <memcpy>
/usr/src/app/examples/example_trustzone/ta1/spongent.c:308
    1cd2:	f107 0314 	add.w	r3, r7, #20
    1cd6:	4618      	mov	r0, r3
    1cd8:	f7ff ff23 	bl	1b22 <Absorb>
/usr/src/app/examples/example_trustzone/ta1/spongent.c:309
    1cdc:	e9d7 2300 	ldrd	r2, r3, [r7]
    1ce0:	f1b2 0812 	subs.w	r8, r2, #18
    1ce4:	f143 39ff 	adc.w	r9, r3, #4294967295	; 0xffffffff
    1ce8:	e9c7 8900 	strd	r8, r9, [r7]
/usr/src/app/examples/example_trustzone/ta1/spongent.c:310
    1cec:	68fb      	ldr	r3, [r7, #12]
    1cee:	f103 0303 	add.w	r3, r3, #3
    1cf2:	60fb      	str	r3, [r7, #12]
/usr/src/app/examples/example_trustzone/ta1/spongent.c:298
    1cf4:	e9d7 2300 	ldrd	r2, r3, [r7]
    1cf8:	2a12      	cmp	r2, #18
    1cfa:	f173 0300 	sbcs.w	r3, r3, #0
    1cfe:	d2df      	bcs.n	1cc0 <SpongentHash+0x2e>
/usr/src/app/examples/example_trustzone/ta1/spongent.c:314
    1d00:	e9d7 2300 	ldrd	r2, r3, [r7]
    1d04:	4313      	orrs	r3, r2
    1d06:	d027      	beq.n	1d58 <SpongentHash+0xc6>
/usr/src/app/examples/example_trustzone/ta1/spongent.c:315
    1d08:	e9d7 0100 	ldrd	r0, r1, [r7]
    1d0c:	f04f 0200 	mov.w	r2, #0
    1d10:	f04f 0300 	mov.w	r3, #0
    1d14:	ea4f 02d0 	mov.w	r2, r0, lsr #3
    1d18:	ea42 7241 	orr.w	r2, r2, r1, lsl #29
    1d1c:	ea4f 03d1 	mov.w	r3, r1, lsr #3
    1d20:	4611      	mov	r1, r2
    1d22:	e9d7 2300 	ldrd	r2, r3, [r7]
    1d26:	f002 0407 	and.w	r4, r2, #7
    1d2a:	f04f 0500 	mov.w	r5, #0
    1d2e:	ea54 0305 	orrs.w	r3, r4, r5
    1d32:	d002      	beq.n	1d3a <SpongentHash+0xa8>
/usr/src/app/examples/example_trustzone/ta1/spongent.c:315 (discriminator 1)
    1d34:	f04f 0301 	mov.w	r3, #1
    1d38:	e001      	b.n	1d3e <SpongentHash+0xac>
/usr/src/app/examples/example_trustzone/ta1/spongent.c:315 (discriminator 2)
    1d3a:	f04f 0300 	mov.w	r3, #0
/usr/src/app/examples/example_trustzone/ta1/spongent.c:315 (discriminator 4)
    1d3e:	eb03 0201 	add.w	r2, r3, r1
    1d42:	f107 0314 	add.w	r3, r7, #20
    1d46:	f103 032a 	add.w	r3, r3, #42	; 0x2a
    1d4a:	68f9      	ldr	r1, [r7, #12]
    1d4c:	4618      	mov	r0, r3
    1d4e:	f011 fbeb 	bl	13528 <memcpy>
/usr/src/app/examples/example_trustzone/ta1/spongent.c:316 (discriminator 4)
    1d52:	683b      	ldr	r3, [r7, #0]
    1d54:	647b      	str	r3, [r7, #68]	; 0x44
    1d56:	e010      	b.n	1d7a <SpongentHash+0xe8>
/usr/src/app/examples/example_trustzone/ta1/spongent.c:318
    1d58:	e9d7 2300 	ldrd	r2, r3, [r7]
    1d5c:	4313      	orrs	r3, r2
    1d5e:	d10c      	bne.n	1d7a <SpongentHash+0xe8>
/usr/src/app/examples/example_trustzone/ta1/spongent.c:319
    1d60:	f107 0314 	add.w	r3, r7, #20
    1d64:	f103 032a 	add.w	r3, r3, #42	; 0x2a
    1d68:	f04f 0203 	mov.w	r2, #3
    1d6c:	f04f 0100 	mov.w	r1, #0
    1d70:	4618      	mov	r0, r3
    1d72:	f011 fc52 	bl	1361a <memset>
/usr/src/app/examples/example_trustzone/ta1/spongent.c:320
    1d76:	683b      	ldr	r3, [r7, #0]
    1d78:	647b      	str	r3, [r7, #68]	; 0x44
/usr/src/app/examples/example_trustzone/ta1/spongent.c:322
    1d7a:	f107 0314 	add.w	r3, r7, #20
    1d7e:	4618      	mov	r0, r3
    1d80:	f7ff ff13 	bl	1baa <Pad>
/usr/src/app/examples/example_trustzone/ta1/spongent.c:330
    1d84:	f107 0314 	add.w	r3, r7, #20
    1d88:	4618      	mov	r0, r3
    1d8a:	f7ff feca 	bl	1b22 <Absorb>
/usr/src/app/examples/example_trustzone/ta1/spongent.c:331
    1d8e:	6cbb      	ldr	r3, [r7, #72]	; 0x48
    1d90:	f103 0312 	add.w	r3, r3, #18
    1d94:	64bb      	str	r3, [r7, #72]	; 0x48
/usr/src/app/examples/example_trustzone/ta1/spongent.c:334
    1d96:	e015      	b.n	1dc4 <SpongentHash+0x132>
/usr/src/app/examples/example_trustzone/ta1/spongent.c:336
    1d98:	f107 0314 	add.w	r3, r7, #20
    1d9c:	4618      	mov	r0, r3
    1d9e:	f7ff feec 	bl	1b7a <Squeeze>
/usr/src/app/examples/example_trustzone/ta1/spongent.c:337
    1da2:	6ebb      	ldr	r3, [r7, #104]	; 0x68
    1da4:	4618      	mov	r0, r3
    1da6:	f107 033e 	add.w	r3, r7, #62	; 0x3e
    1daa:	f04f 0203 	mov.w	r2, #3
    1dae:	4619      	mov	r1, r3
    1db0:	f011 fbba 	bl	13528 <memcpy>
/usr/src/app/examples/example_trustzone/ta1/spongent.c:338
    1db4:	6cbb      	ldr	r3, [r7, #72]	; 0x48
    1db6:	f103 0312 	add.w	r3, r3, #18
    1dba:	64bb      	str	r3, [r7, #72]	; 0x48
/usr/src/app/examples/example_trustzone/ta1/spongent.c:339
    1dbc:	6ebb      	ldr	r3, [r7, #104]	; 0x68
    1dbe:	f103 0303 	add.w	r3, r3, #3
    1dc2:	66bb      	str	r3, [r7, #104]	; 0x68
/usr/src/app/examples/example_trustzone/ta1/spongent.c:334
    1dc4:	6cbb      	ldr	r3, [r7, #72]	; 0x48
    1dc6:	2b7f      	cmp	r3, #127	; 0x7f
    1dc8:	dde6      	ble.n	1d98 <SpongentHash+0x106>
/usr/src/app/examples/example_trustzone/ta1/spongent.c:342
    1dca:	f107 0314 	add.w	r3, r7, #20
    1dce:	f04f 0203 	mov.w	r2, #3
    1dd2:	4619      	mov	r1, r3
    1dd4:	6eb8      	ldr	r0, [r7, #104]	; 0x68
    1dd6:	f011 fba7 	bl	13528 <memcpy>
/usr/src/app/examples/example_trustzone/ta1/spongent.c:343
    1dda:	6ebb      	ldr	r3, [r7, #104]	; 0x68
    1ddc:	f103 0303 	add.w	r3, r3, #3
    1de0:	66bb      	str	r3, [r7, #104]	; 0x68
/usr/src/app/examples/example_trustzone/ta1/spongent.c:351
    1de2:	f04f 0300 	mov.w	r3, #0
/usr/src/app/examples/example_trustzone/ta1/spongent.c:352 (discriminator 1)
    1de6:	4618      	mov	r0, r3
    1de8:	f107 0750 	add.w	r7, r7, #80	; 0x50
    1dec:	46bd      	mov	sp, r7
    1dee:	e9dd 4500 	ldrd	r4, r5, [sp]
    1df2:	e9dd 7802 	ldrd	r7, r8, [sp, #8]
    1df6:	b004      	add	sp, #16
    1df8:	e8bd 8200 	ldmia.w	sp!, {r9, pc}

00001dfc <Duplexing>:
Duplexing():
/usr/src/app/examples/example_trustzone/ta1/spongent.c:359
    1dfc:	e96d 4504 	strd	r4, r5, [sp, #-16]!
    1e00:	e9cd 7e02 	strd	r7, lr, [sp, #8]
    1e04:	b086      	sub	sp, #24
    1e06:	af00      	add	r7, sp, #0
    1e08:	60f8      	str	r0, [r7, #12]
    1e0a:	60b9      	str	r1, [r7, #8]
    1e0c:	e9c7 2300 	strd	r2, r3, [r7]
/usr/src/app/examples/example_trustzone/ta1/spongent.c:360
    1e10:	e9d7 0100 	ldrd	r0, r1, [r7]
    1e14:	f04f 0200 	mov.w	r2, #0
    1e18:	f04f 0300 	mov.w	r3, #0
    1e1c:	ea4f 02d0 	mov.w	r2, r0, lsr #3
    1e20:	ea42 7241 	orr.w	r2, r2, r1, lsl #29
    1e24:	ea4f 03d1 	mov.w	r3, r1, lsr #3
    1e28:	4611      	mov	r1, r2
    1e2a:	e9d7 2300 	ldrd	r2, r3, [r7]
    1e2e:	f002 0407 	and.w	r4, r2, #7
    1e32:	f04f 0500 	mov.w	r5, #0
    1e36:	ea44 0305 	orr.w	r3, r4, r5
    1e3a:	2b00      	cmp	r3, #0
    1e3c:	bf14      	ite	ne
    1e3e:	2301      	movne	r3, #1
    1e40:	2300      	moveq	r3, #0
    1e42:	b2db      	uxtb	r3, r3
    1e44:	440b      	add	r3, r1
    1e46:	4619      	mov	r1, r3
    1e48:	68fb      	ldr	r3, [r7, #12]
    1e4a:	f103 032a 	add.w	r3, r3, #42	; 0x2a
    1e4e:	461a      	mov	r2, r3
    1e50:	68b8      	ldr	r0, [r7, #8]
    1e52:	f7ff fc34 	bl	16be <copy_n>
/usr/src/app/examples/example_trustzone/ta1/spongent.c:361
    1e56:	683a      	ldr	r2, [r7, #0]
    1e58:	68fb      	ldr	r3, [r7, #12]
    1e5a:	631a      	str	r2, [r3, #48]	; 0x30
/usr/src/app/examples/example_trustzone/ta1/spongent.c:362
    1e5c:	68f8      	ldr	r0, [r7, #12]
    1e5e:	f7ff fea4 	bl	1baa <Pad>
    1e62:	6178      	str	r0, [r7, #20]
/usr/src/app/examples/example_trustzone/ta1/spongent.c:364
    1e64:	697b      	ldr	r3, [r7, #20]
    1e66:	2b00      	cmp	r3, #0
    1e68:	d001      	beq.n	1e6e <Duplexing+0x72>
/usr/src/app/examples/example_trustzone/ta1/spongent.c:365
    1e6a:	697b      	ldr	r3, [r7, #20]
    1e6c:	e020      	b.n	1eb0 <Duplexing+0xb4>
/usr/src/app/examples/example_trustzone/ta1/spongent.c:367
    1e6e:	68f8      	ldr	r0, [r7, #12]
    1e70:	f7ff fe57 	bl	1b22 <Absorb>
    1e74:	6178      	str	r0, [r7, #20]
/usr/src/app/examples/example_trustzone/ta1/spongent.c:369
    1e76:	697b      	ldr	r3, [r7, #20]
    1e78:	2b00      	cmp	r3, #0
    1e7a:	d001      	beq.n	1e80 <Duplexing+0x84>
/usr/src/app/examples/example_trustzone/ta1/spongent.c:370
    1e7c:	697b      	ldr	r3, [r7, #20]
    1e7e:	e017      	b.n	1eb0 <Duplexing+0xb4>
/usr/src/app/examples/example_trustzone/ta1/spongent.c:372
    1e80:	6abb      	ldr	r3, [r7, #40]	; 0x28
    1e82:	2b00      	cmp	r3, #0
    1e84:	d012      	beq.n	1eac <Duplexing+0xb0>
/usr/src/app/examples/example_trustzone/ta1/spongent.c:373
    1e86:	68fc      	ldr	r4, [r7, #12]
    1e88:	e9d7 010c 	ldrd	r0, r1, [r7, #48]	; 0x30
    1e8c:	f04f 0200 	mov.w	r2, #0
    1e90:	f04f 0300 	mov.w	r3, #0
    1e94:	ea4f 02d0 	mov.w	r2, r0, lsr #3
    1e98:	ea42 7241 	orr.w	r2, r2, r1, lsl #29
    1e9c:	ea4f 03d1 	mov.w	r3, r1, lsr #3
    1ea0:	4613      	mov	r3, r2
    1ea2:	6aba      	ldr	r2, [r7, #40]	; 0x28
    1ea4:	4619      	mov	r1, r3
    1ea6:	4620      	mov	r0, r4
    1ea8:	f7ff fc09 	bl	16be <copy_n>
/usr/src/app/examples/example_trustzone/ta1/spongent.c:375
    1eac:	f04f 0300 	mov.w	r3, #0
/usr/src/app/examples/example_trustzone/ta1/spongent.c:376
    1eb0:	4618      	mov	r0, r3
    1eb2:	f107 0718 	add.w	r7, r7, #24
    1eb6:	46bd      	mov	sp, r7
    1eb8:	e9dd 4500 	ldrd	r4, r5, [sp]
    1ebc:	b002      	add	sp, #8
    1ebe:	bd80      	pop	{r7, pc}

00001ec0 <SpongentWrap>:
SpongentWrap():
/usr/src/app/examples/example_trustzone/ta1/spongent.c:384
    1ec0:	e96d 4508 	strd	r4, r5, [sp, #-32]!
    1ec4:	e9cd 7802 	strd	r7, r8, [sp, #8]
    1ec8:	e9cd 9a04 	strd	r9, sl, [sp, #16]
    1ecc:	e9cd be06 	strd	fp, lr, [sp, #24]
    1ed0:	b0ba      	sub	sp, #232	; 0xe8
    1ed2:	af04      	add	r7, sp, #16
    1ed4:	6578      	str	r0, [r7, #84]	; 0x54
    1ed6:	6539      	str	r1, [r7, #80]	; 0x50
    1ed8:	e9c7 2312 	strd	r2, r3, [r7, #72]	; 0x48
/usr/src/app/examples/example_trustzone/ta1/spongent.c:385
    1edc:	e9d7 2312 	ldrd	r2, r3, [r7, #72]	; 0x48
    1ee0:	f002 0407 	and.w	r4, r2, #7
    1ee4:	f04f 0500 	mov.w	r5, #0
    1ee8:	ea54 0305 	orrs.w	r3, r4, r5
    1eec:	d108      	bne.n	1f00 <SpongentWrap+0x40>
/usr/src/app/examples/example_trustzone/ta1/spongent.c:385 (discriminator 1)
    1eee:	e9d7 2340 	ldrd	r2, r3, [r7, #256]	; 0x100
    1ef2:	f002 0807 	and.w	r8, r2, #7
    1ef6:	f04f 0900 	mov.w	r9, #0
    1efa:	ea58 0309 	orrs.w	r3, r8, r9
    1efe:	d002      	beq.n	1f06 <SpongentWrap+0x46>
/usr/src/app/examples/example_trustzone/ta1/spongent.c:388
    1f00:	f04f 0301 	mov.w	r3, #1
    1f04:	e2bb      	b.n	247e <SpongentWrap+0x5be>
/usr/src/app/examples/example_trustzone/ta1/spongent.c:392
    1f06:	f107 0360 	add.w	r3, r7, #96	; 0x60
    1f0a:	f04f 0100 	mov.w	r1, #0
    1f0e:	4618      	mov	r0, r3
    1f10:	f7ff fde0 	bl	1ad4 <Init>
    1f14:	f8c7 00b0 	str.w	r0, [r7, #176]	; 0xb0
/usr/src/app/examples/example_trustzone/ta1/spongent.c:394
    1f18:	f8d7 30b0 	ldr.w	r3, [r7, #176]	; 0xb0
    1f1c:	2b00      	cmp	r3, #0
    1f1e:	d002      	beq.n	1f26 <SpongentWrap+0x66>
/usr/src/app/examples/example_trustzone/ta1/spongent.c:395
    1f20:	f8d7 30b0 	ldr.w	r3, [r7, #176]	; 0xb0
    1f24:	e2ab      	b.n	247e <SpongentWrap+0x5be>
/usr/src/app/examples/example_trustzone/ta1/spongent.c:399
    1f26:	f04f 0280 	mov.w	r2, #128	; 0x80
    1f2a:	f04f 0300 	mov.w	r3, #0
    1f2e:	e9c7 2334 	strd	r2, r3, [r7, #208]	; 0xd0
/usr/src/app/examples/example_trustzone/ta1/spongent.c:401
    1f32:	e033      	b.n	1f9c <SpongentWrap+0xdc>
/usr/src/app/examples/example_trustzone/ta1/spongent.c:403
    1f34:	f107 035c 	add.w	r3, r7, #92	; 0x5c
    1f38:	461a      	mov	r2, r3
    1f3a:	f04f 0102 	mov.w	r1, #2
    1f3e:	6d78      	ldr	r0, [r7, #84]	; 0x54
    1f40:	f7ff fbbd 	bl	16be <copy_n>
/usr/src/app/examples/example_trustzone/ta1/spongent.c:404
    1f44:	f04f 0301 	mov.w	r3, #1
    1f48:	f887 305e 	strb.w	r3, [r7, #94]	; 0x5e
/usr/src/app/examples/example_trustzone/ta1/spongent.c:405
    1f4c:	f107 015c 	add.w	r1, r7, #92	; 0x5c
    1f50:	f107 0060 	add.w	r0, r7, #96	; 0x60
    1f54:	f04f 0210 	mov.w	r2, #16
    1f58:	f04f 0300 	mov.w	r3, #0
    1f5c:	e9cd 2302 	strd	r2, r3, [sp, #8]
    1f60:	f04f 0300 	mov.w	r3, #0
    1f64:	9300      	str	r3, [sp, #0]
    1f66:	f04f 0211 	mov.w	r2, #17
    1f6a:	f04f 0300 	mov.w	r3, #0
    1f6e:	f7ff ff45 	bl	1dfc <Duplexing>
    1f72:	f8c7 00b0 	str.w	r0, [r7, #176]	; 0xb0
/usr/src/app/examples/example_trustzone/ta1/spongent.c:408
    1f76:	f8d7 30b0 	ldr.w	r3, [r7, #176]	; 0xb0
    1f7a:	2b00      	cmp	r3, #0
    1f7c:	d002      	beq.n	1f84 <SpongentWrap+0xc4>
/usr/src/app/examples/example_trustzone/ta1/spongent.c:409
    1f7e:	f8d7 30b0 	ldr.w	r3, [r7, #176]	; 0xb0
    1f82:	e27c      	b.n	247e <SpongentWrap+0x5be>
/usr/src/app/examples/example_trustzone/ta1/spongent.c:411
    1f84:	e9d7 2334 	ldrd	r2, r3, [r7, #208]	; 0xd0
    1f88:	f1b2 0a10 	subs.w	sl, r2, #16
    1f8c:	f143 3bff 	adc.w	fp, r3, #4294967295	; 0xffffffff
    1f90:	e9c7 ab34 	strd	sl, fp, [r7, #208]	; 0xd0
/usr/src/app/examples/example_trustzone/ta1/spongent.c:412
    1f94:	6d7b      	ldr	r3, [r7, #84]	; 0x54
    1f96:	f103 0302 	add.w	r3, r3, #2
    1f9a:	657b      	str	r3, [r7, #84]	; 0x54
/usr/src/app/examples/example_trustzone/ta1/spongent.c:401
    1f9c:	e9d7 2334 	ldrd	r2, r3, [r7, #208]	; 0xd0
    1fa0:	2a11      	cmp	r2, #17
    1fa2:	f173 0300 	sbcs.w	r3, r3, #0
    1fa6:	d2c5      	bcs.n	1f34 <SpongentWrap+0x74>
/usr/src/app/examples/example_trustzone/ta1/spongent.c:415
    1fa8:	e9d7 2334 	ldrd	r2, r3, [r7, #208]	; 0xd0
    1fac:	f04f 0000 	mov.w	r0, #0
    1fb0:	f04f 0100 	mov.w	r1, #0
    1fb4:	ea4f 00d2 	mov.w	r0, r2, lsr #3
    1fb8:	ea40 7043 	orr.w	r0, r0, r3, lsl #29
    1fbc:	ea4f 01d3 	mov.w	r1, r3, lsr #3
    1fc0:	4601      	mov	r1, r0
    1fc2:	f107 035c 	add.w	r3, r7, #92	; 0x5c
    1fc6:	461a      	mov	r2, r3
    1fc8:	6d78      	ldr	r0, [r7, #84]	; 0x54
    1fca:	f7ff fb78 	bl	16be <copy_n>
/usr/src/app/examples/example_trustzone/ta1/spongent.c:416
    1fce:	e9d7 2334 	ldrd	r2, r3, [r7, #208]	; 0xd0
    1fd2:	f04f 0000 	mov.w	r0, #0
    1fd6:	f04f 0100 	mov.w	r1, #0
    1fda:	ea4f 00d2 	mov.w	r0, r2, lsr #3
    1fde:	ea40 7043 	orr.w	r0, r0, r3, lsl #29
    1fe2:	ea4f 01d3 	mov.w	r1, r3, lsr #3
    1fe6:	f107 035c 	add.w	r3, r7, #92	; 0x5c
    1fea:	eb03 0200 	add.w	r2, r3, r0
    1fee:	f04f 0300 	mov.w	r3, #0
    1ff2:	7013      	strb	r3, [r2, #0]
/usr/src/app/examples/example_trustzone/ta1/spongent.c:417
    1ff4:	e9d7 2334 	ldrd	r2, r3, [r7, #208]	; 0xd0
    1ff8:	1c51      	adds	r1, r2, #1
    1ffa:	6439      	str	r1, [r7, #64]	; 0x40
    1ffc:	f143 0300 	adc.w	r3, r3, #0
    2000:	647b      	str	r3, [r7, #68]	; 0x44
    2002:	f107 015c 	add.w	r1, r7, #92	; 0x5c
    2006:	f107 0060 	add.w	r0, r7, #96	; 0x60
    200a:	f04f 0210 	mov.w	r2, #16
    200e:	f04f 0300 	mov.w	r3, #0
    2012:	e9cd 2302 	strd	r2, r3, [sp, #8]
    2016:	f04f 0300 	mov.w	r3, #0
    201a:	9300      	str	r3, [sp, #0]
    201c:	e9d7 2310 	ldrd	r2, r3, [r7, #64]	; 0x40
    2020:	f7ff feec 	bl	1dfc <Duplexing>
    2024:	f8c7 00b0 	str.w	r0, [r7, #176]	; 0xb0
/usr/src/app/examples/example_trustzone/ta1/spongent.c:419
    2028:	f8d7 30b0 	ldr.w	r3, [r7, #176]	; 0xb0
    202c:	2b00      	cmp	r3, #0
    202e:	d002      	beq.n	2036 <SpongentWrap+0x176>
/usr/src/app/examples/example_trustzone/ta1/spongent.c:420
    2030:	f8d7 30b0 	ldr.w	r3, [r7, #176]	; 0xb0
    2034:	e223      	b.n	247e <SpongentWrap+0x5be>
/usr/src/app/examples/example_trustzone/ta1/spongent.c:422
    2036:	e9d7 2312 	ldrd	r2, r3, [r7, #72]	; 0x48
    203a:	e9c7 2334 	strd	r2, r3, [r7, #208]	; 0xd0
/usr/src/app/examples/example_trustzone/ta1/spongent.c:424
    203e:	e037      	b.n	20b0 <SpongentWrap+0x1f0>
/usr/src/app/examples/example_trustzone/ta1/spongent.c:426
    2040:	f107 035c 	add.w	r3, r7, #92	; 0x5c
    2044:	461a      	mov	r2, r3
    2046:	f04f 0102 	mov.w	r1, #2
    204a:	6d38      	ldr	r0, [r7, #80]	; 0x50
    204c:	f7ff fb37 	bl	16be <copy_n>
/usr/src/app/examples/example_trustzone/ta1/spongent.c:427
    2050:	f04f 0300 	mov.w	r3, #0
    2054:	f887 305e 	strb.w	r3, [r7, #94]	; 0x5e
/usr/src/app/examples/example_trustzone/ta1/spongent.c:428
    2058:	f107 015c 	add.w	r1, r7, #92	; 0x5c
    205c:	f107 0060 	add.w	r0, r7, #96	; 0x60
    2060:	f04f 0210 	mov.w	r2, #16
    2064:	f04f 0300 	mov.w	r3, #0
    2068:	e9cd 2302 	strd	r2, r3, [sp, #8]
    206c:	f04f 0300 	mov.w	r3, #0
    2070:	9300      	str	r3, [sp, #0]
    2072:	f04f 0211 	mov.w	r2, #17
    2076:	f04f 0300 	mov.w	r3, #0
    207a:	f7ff febf 	bl	1dfc <Duplexing>
    207e:	f8c7 00b0 	str.w	r0, [r7, #176]	; 0xb0
/usr/src/app/examples/example_trustzone/ta1/spongent.c:430
    2082:	f8d7 30b0 	ldr.w	r3, [r7, #176]	; 0xb0
    2086:	2b00      	cmp	r3, #0
    2088:	d002      	beq.n	2090 <SpongentWrap+0x1d0>
/usr/src/app/examples/example_trustzone/ta1/spongent.c:431
    208a:	f8d7 30b0 	ldr.w	r3, [r7, #176]	; 0xb0
    208e:	e1f6      	b.n	247e <SpongentWrap+0x5be>
/usr/src/app/examples/example_trustzone/ta1/spongent.c:433
    2090:	e9d7 2334 	ldrd	r2, r3, [r7, #208]	; 0xd0
    2094:	f1b2 0110 	subs.w	r1, r2, #16
    2098:	6239      	str	r1, [r7, #32]
    209a:	f143 33ff 	adc.w	r3, r3, #4294967295	; 0xffffffff
    209e:	627b      	str	r3, [r7, #36]	; 0x24
    20a0:	e9d7 3408 	ldrd	r3, r4, [r7, #32]
    20a4:	e9c7 3434 	strd	r3, r4, [r7, #208]	; 0xd0
/usr/src/app/examples/example_trustzone/ta1/spongent.c:434
    20a8:	6d3b      	ldr	r3, [r7, #80]	; 0x50
    20aa:	f103 0302 	add.w	r3, r3, #2
    20ae:	653b      	str	r3, [r7, #80]	; 0x50
/usr/src/app/examples/example_trustzone/ta1/spongent.c:424
    20b0:	e9d7 2334 	ldrd	r2, r3, [r7, #208]	; 0xd0
    20b4:	2a11      	cmp	r2, #17
    20b6:	f173 0300 	sbcs.w	r3, r3, #0
    20ba:	d2c1      	bcs.n	2040 <SpongentWrap+0x180>
/usr/src/app/examples/example_trustzone/ta1/spongent.c:437
    20bc:	e9d7 2334 	ldrd	r2, r3, [r7, #208]	; 0xd0
    20c0:	f04f 0000 	mov.w	r0, #0
    20c4:	f04f 0100 	mov.w	r1, #0
    20c8:	ea4f 00d2 	mov.w	r0, r2, lsr #3
    20cc:	ea40 7043 	orr.w	r0, r0, r3, lsl #29
    20d0:	ea4f 01d3 	mov.w	r1, r3, lsr #3
    20d4:	4601      	mov	r1, r0
    20d6:	f107 035c 	add.w	r3, r7, #92	; 0x5c
    20da:	461a      	mov	r2, r3
    20dc:	6d38      	ldr	r0, [r7, #80]	; 0x50
    20de:	f7ff faee 	bl	16be <copy_n>
/usr/src/app/examples/example_trustzone/ta1/spongent.c:438
    20e2:	e9d7 2334 	ldrd	r2, r3, [r7, #208]	; 0xd0
    20e6:	f04f 0000 	mov.w	r0, #0
    20ea:	f04f 0100 	mov.w	r1, #0
    20ee:	ea4f 00d2 	mov.w	r0, r2, lsr #3
    20f2:	ea40 7043 	orr.w	r0, r0, r3, lsl #29
    20f6:	ea4f 01d3 	mov.w	r1, r3, lsr #3
    20fa:	f107 035c 	add.w	r3, r7, #92	; 0x5c
    20fe:	eb03 0200 	add.w	r2, r3, r0
    2102:	f04f 0301 	mov.w	r3, #1
    2106:	7013      	strb	r3, [r2, #0]
/usr/src/app/examples/example_trustzone/ta1/spongent.c:439
    2108:	e9d7 2334 	ldrd	r2, r3, [r7, #208]	; 0xd0
    210c:	1c51      	adds	r1, r2, #1
    210e:	63b9      	str	r1, [r7, #56]	; 0x38
    2110:	f143 0300 	adc.w	r3, r3, #0
    2114:	63fb      	str	r3, [r7, #60]	; 0x3c
    2116:	f107 015c 	add.w	r1, r7, #92	; 0x5c
    211a:	f107 0060 	add.w	r0, r7, #96	; 0x60
    211e:	f04f 0210 	mov.w	r2, #16
    2122:	f04f 0300 	mov.w	r3, #0
    2126:	e9cd 2302 	strd	r2, r3, [sp, #8]
    212a:	f107 0358 	add.w	r3, r7, #88	; 0x58
    212e:	9300      	str	r3, [sp, #0]
    2130:	e9d7 230e 	ldrd	r2, r3, [r7, #56]	; 0x38
    2134:	f7ff fe62 	bl	1dfc <Duplexing>
    2138:	f8c7 00b0 	str.w	r0, [r7, #176]	; 0xb0
/usr/src/app/examples/example_trustzone/ta1/spongent.c:441
    213c:	f8d7 30b0 	ldr.w	r3, [r7, #176]	; 0xb0
    2140:	2b00      	cmp	r3, #0
    2142:	d002      	beq.n	214a <SpongentWrap+0x28a>
/usr/src/app/examples/example_trustzone/ta1/spongent.c:442
    2144:	f8d7 30b0 	ldr.w	r3, [r7, #176]	; 0xb0
    2148:	e199      	b.n	247e <SpongentWrap+0x5be>
/usr/src/app/examples/example_trustzone/ta1/spongent.c:444
    214a:	f04f 0210 	mov.w	r2, #16
    214e:	f04f 0300 	mov.w	r3, #0
    2152:	e9d7 0140 	ldrd	r0, r1, [r7, #256]	; 0x100
    2156:	f7ff fa95 	bl	1684 <min>
    215a:	4602      	mov	r2, r0
    215c:	460b      	mov	r3, r1
    215e:	f04f 0000 	mov.w	r0, #0
    2162:	f04f 0100 	mov.w	r1, #0
    2166:	ea4f 00d2 	mov.w	r0, r2, lsr #3
    216a:	ea40 7043 	orr.w	r0, r0, r3, lsl #29
    216e:	ea4f 01d3 	mov.w	r1, r3, lsr #3
    2172:	e9c7 012a 	strd	r0, r1, [r7, #168]	; 0xa8
/usr/src/app/examples/example_trustzone/ta1/spongent.c:446
    2176:	efc0 0010 	vmov.i32	d16, #0	; 0x00000000
    217a:	edc7 0b32 	vstr	d16, [r7, #200]	; 0xc8
    217e:	e01f      	b.n	21c0 <SpongentWrap+0x300>
/usr/src/app/examples/example_trustzone/ta1/spongent.c:447 (discriminator 3)
    2180:	f8d7 30c8 	ldr.w	r3, [r7, #200]	; 0xc8
    2184:	f8d7 20f8 	ldr.w	r2, [r7, #248]	; 0xf8
    2188:	4413      	add	r3, r2
    218a:	7818      	ldrb	r0, [r3, #0]
    218c:	f107 0258 	add.w	r2, r7, #88	; 0x58
    2190:	f8d7 30c8 	ldr.w	r3, [r7, #200]	; 0xc8
    2194:	4413      	add	r3, r2
    2196:	7819      	ldrb	r1, [r3, #0]
    2198:	f8d7 20c8 	ldr.w	r2, [r7, #200]	; 0xc8
    219c:	f8d7 3108 	ldr.w	r3, [r7, #264]	; 0x108
    21a0:	441a      	add	r2, r3
    21a2:	ea80 0301 	eor.w	r3, r0, r1
    21a6:	b2db      	uxtb	r3, r3
    21a8:	7013      	strb	r3, [r2, #0]
/usr/src/app/examples/example_trustzone/ta1/spongent.c:446 (discriminator 3)
    21aa:	e9d7 2332 	ldrd	r2, r3, [r7, #200]	; 0xc8
    21ae:	1c51      	adds	r1, r2, #1
    21b0:	61b9      	str	r1, [r7, #24]
    21b2:	f143 0300 	adc.w	r3, r3, #0
    21b6:	61fb      	str	r3, [r7, #28]
    21b8:	e9d7 3406 	ldrd	r3, r4, [r7, #24]
    21bc:	e9c7 3432 	strd	r3, r4, [r7, #200]	; 0xc8
/usr/src/app/examples/example_trustzone/ta1/spongent.c:446 (discriminator 1)
    21c0:	e9d7 0132 	ldrd	r0, r1, [r7, #200]	; 0xc8
    21c4:	e9d7 232a 	ldrd	r2, r3, [r7, #168]	; 0xa8
    21c8:	4290      	cmp	r0, r2
    21ca:	eb71 0303 	sbcs.w	r3, r1, r3
    21ce:	d3d7      	bcc.n	2180 <SpongentWrap+0x2c0>
/usr/src/app/examples/example_trustzone/ta1/spongent.c:449
    21d0:	e9d7 2340 	ldrd	r2, r3, [r7, #256]	; 0x100
    21d4:	e9c7 2334 	strd	r2, r3, [r7, #208]	; 0xd0
/usr/src/app/examples/example_trustzone/ta1/spongent.c:451
    21d8:	e088      	b.n	22ec <SpongentWrap+0x42c>
/usr/src/app/examples/example_trustzone/ta1/spongent.c:453
    21da:	f897 3110 	ldrb.w	r3, [r7, #272]	; 0x110
    21de:	2b00      	cmp	r3, #0
    21e0:	d002      	beq.n	21e8 <SpongentWrap+0x328>
/usr/src/app/examples/example_trustzone/ta1/spongent.c:453 (discriminator 1)
    21e2:	f8d7 3108 	ldr.w	r3, [r7, #264]	; 0x108
    21e6:	e001      	b.n	21ec <SpongentWrap+0x32c>
/usr/src/app/examples/example_trustzone/ta1/spongent.c:453 (discriminator 2)
    21e8:	f8d7 30f8 	ldr.w	r3, [r7, #248]	; 0xf8
/usr/src/app/examples/example_trustzone/ta1/spongent.c:453 (discriminator 4)
    21ec:	f107 025c 	add.w	r2, r7, #92	; 0x5c
    21f0:	f04f 0102 	mov.w	r1, #2
    21f4:	4618      	mov	r0, r3
    21f6:	f7ff fa62 	bl	16be <copy_n>
/usr/src/app/examples/example_trustzone/ta1/spongent.c:454 (discriminator 4)
    21fa:	f04f 0301 	mov.w	r3, #1
    21fe:	f887 305e 	strb.w	r3, [r7, #94]	; 0x5e
/usr/src/app/examples/example_trustzone/ta1/spongent.c:455 (discriminator 4)
    2202:	f107 015c 	add.w	r1, r7, #92	; 0x5c
    2206:	f107 0060 	add.w	r0, r7, #96	; 0x60
    220a:	f04f 0210 	mov.w	r2, #16
    220e:	f04f 0300 	mov.w	r3, #0
    2212:	e9cd 2302 	strd	r2, r3, [sp, #8]
    2216:	f107 0358 	add.w	r3, r7, #88	; 0x58
    221a:	9300      	str	r3, [sp, #0]
    221c:	f04f 0211 	mov.w	r2, #17
    2220:	f04f 0300 	mov.w	r3, #0
    2224:	f7ff fdea 	bl	1dfc <Duplexing>
    2228:	f8c7 00a4 	str.w	r0, [r7, #164]	; 0xa4
/usr/src/app/examples/example_trustzone/ta1/spongent.c:457 (discriminator 4)
    222c:	f8d7 30a4 	ldr.w	r3, [r7, #164]	; 0xa4
    2230:	2b00      	cmp	r3, #0
    2232:	d002      	beq.n	223a <SpongentWrap+0x37a>
/usr/src/app/examples/example_trustzone/ta1/spongent.c:458
    2234:	f8d7 30a4 	ldr.w	r3, [r7, #164]	; 0xa4
    2238:	e121      	b.n	247e <SpongentWrap+0x5be>
/usr/src/app/examples/example_trustzone/ta1/spongent.c:460
    223a:	e9d7 2334 	ldrd	r2, r3, [r7, #208]	; 0xd0
    223e:	f1b2 0110 	subs.w	r1, r2, #16
    2242:	6139      	str	r1, [r7, #16]
    2244:	f143 33ff 	adc.w	r3, r3, #4294967295	; 0xffffffff
    2248:	617b      	str	r3, [r7, #20]
    224a:	e9d7 3404 	ldrd	r3, r4, [r7, #16]
    224e:	e9c7 3434 	strd	r3, r4, [r7, #208]	; 0xd0
/usr/src/app/examples/example_trustzone/ta1/spongent.c:461
    2252:	f8d7 30f8 	ldr.w	r3, [r7, #248]	; 0xf8
    2256:	f103 0302 	add.w	r3, r3, #2
    225a:	f8c7 30f8 	str.w	r3, [r7, #248]	; 0xf8
/usr/src/app/examples/example_trustzone/ta1/spongent.c:462
    225e:	f8d7 3108 	ldr.w	r3, [r7, #264]	; 0x108
    2262:	f103 0302 	add.w	r3, r3, #2
    2266:	f8c7 3108 	str.w	r3, [r7, #264]	; 0x108
/usr/src/app/examples/example_trustzone/ta1/spongent.c:464
    226a:	f04f 0210 	mov.w	r2, #16
    226e:	f04f 0300 	mov.w	r3, #0
    2272:	e9d7 0134 	ldrd	r0, r1, [r7, #208]	; 0xd0
    2276:	f7ff fa05 	bl	1684 <min>
    227a:	f04f 0200 	mov.w	r2, #0
    227e:	f04f 0300 	mov.w	r3, #0
    2282:	ea4f 02d0 	mov.w	r2, r0, lsr #3
    2286:	ea42 7241 	orr.w	r2, r2, r1, lsl #29
    228a:	ea4f 03d1 	mov.w	r3, r1, lsr #3
    228e:	e9c7 2326 	strd	r2, r3, [r7, #152]	; 0x98
/usr/src/app/examples/example_trustzone/ta1/spongent.c:466
    2292:	efc0 0010 	vmov.i32	d16, #0	; 0x00000000
    2296:	edc7 0b30 	vstr	d16, [r7, #192]	; 0xc0
    229a:	e01f      	b.n	22dc <SpongentWrap+0x41c>
/usr/src/app/examples/example_trustzone/ta1/spongent.c:467 (discriminator 3)
    229c:	f8d7 30c0 	ldr.w	r3, [r7, #192]	; 0xc0
    22a0:	f8d7 20f8 	ldr.w	r2, [r7, #248]	; 0xf8
    22a4:	4413      	add	r3, r2
    22a6:	7819      	ldrb	r1, [r3, #0]
    22a8:	f107 0258 	add.w	r2, r7, #88	; 0x58
    22ac:	f8d7 30c0 	ldr.w	r3, [r7, #192]	; 0xc0
    22b0:	4413      	add	r3, r2
    22b2:	781a      	ldrb	r2, [r3, #0]
    22b4:	f8d7 30c0 	ldr.w	r3, [r7, #192]	; 0xc0
    22b8:	f8d7 0108 	ldr.w	r0, [r7, #264]	; 0x108
    22bc:	4403      	add	r3, r0
    22be:	ea82 0201 	eor.w	r2, r2, r1
    22c2:	b2d2      	uxtb	r2, r2
    22c4:	701a      	strb	r2, [r3, #0]
/usr/src/app/examples/example_trustzone/ta1/spongent.c:466 (discriminator 3)
    22c6:	e9d7 2330 	ldrd	r2, r3, [r7, #192]	; 0xc0
    22ca:	1c51      	adds	r1, r2, #1
    22cc:	60b9      	str	r1, [r7, #8]
    22ce:	f143 0300 	adc.w	r3, r3, #0
    22d2:	60fb      	str	r3, [r7, #12]
    22d4:	e9d7 3402 	ldrd	r3, r4, [r7, #8]
    22d8:	e9c7 3430 	strd	r3, r4, [r7, #192]	; 0xc0
/usr/src/app/examples/example_trustzone/ta1/spongent.c:466 (discriminator 1)
    22dc:	e9d7 0130 	ldrd	r0, r1, [r7, #192]	; 0xc0
    22e0:	e9d7 2326 	ldrd	r2, r3, [r7, #152]	; 0x98
    22e4:	4290      	cmp	r0, r2
    22e6:	eb71 0303 	sbcs.w	r3, r1, r3
    22ea:	d3d7      	bcc.n	229c <SpongentWrap+0x3dc>
/usr/src/app/examples/example_trustzone/ta1/spongent.c:451
    22ec:	e9d7 2334 	ldrd	r2, r3, [r7, #208]	; 0xd0
    22f0:	2a11      	cmp	r2, #17
    22f2:	f173 0300 	sbcs.w	r3, r3, #0
    22f6:	f4bf af70 	bcs.w	21da <SpongentWrap+0x31a>
/usr/src/app/examples/example_trustzone/ta1/spongent.c:470
    22fa:	f897 3110 	ldrb.w	r3, [r7, #272]	; 0x110
    22fe:	2b00      	cmp	r3, #0
    2300:	d002      	beq.n	2308 <SpongentWrap+0x448>
/usr/src/app/examples/example_trustzone/ta1/spongent.c:470 (discriminator 1)
    2302:	f8d7 4108 	ldr.w	r4, [r7, #264]	; 0x108
    2306:	e001      	b.n	230c <SpongentWrap+0x44c>
/usr/src/app/examples/example_trustzone/ta1/spongent.c:470 (discriminator 2)
    2308:	f8d7 40f8 	ldr.w	r4, [r7, #248]	; 0xf8
/usr/src/app/examples/example_trustzone/ta1/spongent.c:470 (discriminator 4)
    230c:	e9d7 0134 	ldrd	r0, r1, [r7, #208]	; 0xd0
    2310:	f04f 0200 	mov.w	r2, #0
    2314:	f04f 0300 	mov.w	r3, #0
    2318:	ea4f 02d0 	mov.w	r2, r0, lsr #3
    231c:	ea42 7241 	orr.w	r2, r2, r1, lsl #29
    2320:	ea4f 03d1 	mov.w	r3, r1, lsr #3
    2324:	4611      	mov	r1, r2
    2326:	f107 035c 	add.w	r3, r7, #92	; 0x5c
    232a:	461a      	mov	r2, r3
    232c:	4620      	mov	r0, r4
    232e:	f7ff f9c6 	bl	16be <copy_n>
/usr/src/app/examples/example_trustzone/ta1/spongent.c:471 (discriminator 4)
    2332:	e9d7 0134 	ldrd	r0, r1, [r7, #208]	; 0xd0
    2336:	f04f 0200 	mov.w	r2, #0
    233a:	f04f 0300 	mov.w	r3, #0
    233e:	ea4f 02d0 	mov.w	r2, r0, lsr #3
    2342:	ea42 7241 	orr.w	r2, r2, r1, lsl #29
    2346:	ea4f 03d1 	mov.w	r3, r1, lsr #3
    234a:	f107 015c 	add.w	r1, r7, #92	; 0x5c
    234e:	eb01 0302 	add.w	r3, r1, r2
    2352:	f04f 0200 	mov.w	r2, #0
    2356:	701a      	strb	r2, [r3, #0]
/usr/src/app/examples/example_trustzone/ta1/spongent.c:472 (discriminator 4)
    2358:	e9d7 2334 	ldrd	r2, r3, [r7, #208]	; 0xd0
    235c:	1c51      	adds	r1, r2, #1
    235e:	6339      	str	r1, [r7, #48]	; 0x30
    2360:	f143 0300 	adc.w	r3, r3, #0
    2364:	637b      	str	r3, [r7, #52]	; 0x34
    2366:	f04f 0210 	mov.w	r2, #16
    236a:	f04f 0300 	mov.w	r3, #0
    236e:	f04f 0080 	mov.w	r0, #128	; 0x80
    2372:	f04f 0100 	mov.w	r1, #0
    2376:	f7ff f985 	bl	1684 <min>
    237a:	4602      	mov	r2, r0
    237c:	460b      	mov	r3, r1
    237e:	f107 015c 	add.w	r1, r7, #92	; 0x5c
    2382:	f107 0060 	add.w	r0, r7, #96	; 0x60
    2386:	e9cd 2302 	strd	r2, r3, [sp, #8]
    238a:	f8d7 310c 	ldr.w	r3, [r7, #268]	; 0x10c
    238e:	9300      	str	r3, [sp, #0]
    2390:	e9d7 230c 	ldrd	r2, r3, [r7, #48]	; 0x30
    2394:	f7ff fd32 	bl	1dfc <Duplexing>
    2398:	f8c7 00b0 	str.w	r0, [r7, #176]	; 0xb0
/usr/src/app/examples/example_trustzone/ta1/spongent.c:475 (discriminator 4)
    239c:	f8d7 30b0 	ldr.w	r3, [r7, #176]	; 0xb0
    23a0:	2b00      	cmp	r3, #0
    23a2:	d002      	beq.n	23aa <SpongentWrap+0x4ea>
/usr/src/app/examples/example_trustzone/ta1/spongent.c:476
    23a4:	f8d7 30b0 	ldr.w	r3, [r7, #176]	; 0xb0
    23a8:	e069      	b.n	247e <SpongentWrap+0x5be>
/usr/src/app/examples/example_trustzone/ta1/spongent.c:478
    23aa:	f04f 0210 	mov.w	r2, #16
    23ae:	f04f 0300 	mov.w	r3, #0
    23b2:	e9c7 232e 	strd	r2, r3, [r7, #184]	; 0xb8
/usr/src/app/examples/example_trustzone/ta1/spongent.c:479
    23b6:	f8d7 310c 	ldr.w	r3, [r7, #268]	; 0x10c
    23ba:	f103 0302 	add.w	r3, r3, #2
    23be:	f8c7 310c 	str.w	r3, [r7, #268]	; 0x10c
/usr/src/app/examples/example_trustzone/ta1/spongent.c:480
    23c2:	f04f 0300 	mov.w	r3, #0
    23c6:	f8c7 30b4 	str.w	r3, [r7, #180]	; 0xb4
    23ca:	e00d      	b.n	23e8 <SpongentWrap+0x528>
/usr/src/app/examples/example_trustzone/ta1/spongent.c:481 (discriminator 3)
    23cc:	f107 025c 	add.w	r2, r7, #92	; 0x5c
    23d0:	f8d7 30b4 	ldr.w	r3, [r7, #180]	; 0xb4
    23d4:	4413      	add	r3, r2
    23d6:	f04f 0200 	mov.w	r2, #0
    23da:	701a      	strb	r2, [r3, #0]
/usr/src/app/examples/example_trustzone/ta1/spongent.c:480 (discriminator 3)
    23dc:	f8d7 30b4 	ldr.w	r3, [r7, #180]	; 0xb4
    23e0:	f103 0301 	add.w	r3, r3, #1
    23e4:	f8c7 30b4 	str.w	r3, [r7, #180]	; 0xb4
/usr/src/app/examples/example_trustzone/ta1/spongent.c:480 (discriminator 1)
    23e8:	f8d7 30b4 	ldr.w	r3, [r7, #180]	; 0xb4
    23ec:	2b02      	cmp	r3, #2
    23ee:	d9ed      	bls.n	23cc <SpongentWrap+0x50c>
/usr/src/app/examples/example_trustzone/ta1/spongent.c:485
    23f0:	e03d      	b.n	246e <SpongentWrap+0x5ae>
/usr/src/app/examples/example_trustzone/ta1/spongent.c:487
    23f2:	e9d7 232e 	ldrd	r2, r3, [r7, #184]	; 0xb8
    23f6:	f04f 0100 	mov.w	r1, #0
    23fa:	f1d2 0080 	rsbs	r0, r2, #128	; 0x80
    23fe:	62b8      	str	r0, [r7, #40]	; 0x28
    2400:	eb61 0303 	sbc.w	r3, r1, r3
    2404:	62fb      	str	r3, [r7, #44]	; 0x2c
    2406:	f04f 0210 	mov.w	r2, #16
    240a:	f04f 0300 	mov.w	r3, #0
    240e:	e9d7 010a 	ldrd	r0, r1, [r7, #40]	; 0x28
    2412:	f7ff f937 	bl	1684 <min>
    2416:	4602      	mov	r2, r0
    2418:	460b      	mov	r3, r1
    241a:	f107 015c 	add.w	r1, r7, #92	; 0x5c
    241e:	f107 0060 	add.w	r0, r7, #96	; 0x60
    2422:	e9cd 2302 	strd	r2, r3, [sp, #8]
    2426:	f8d7 310c 	ldr.w	r3, [r7, #268]	; 0x10c
    242a:	9300      	str	r3, [sp, #0]
    242c:	f04f 0200 	mov.w	r2, #0
    2430:	f04f 0300 	mov.w	r3, #0
    2434:	f7ff fce2 	bl	1dfc <Duplexing>
    2438:	f8c7 00b0 	str.w	r0, [r7, #176]	; 0xb0
/usr/src/app/examples/example_trustzone/ta1/spongent.c:490
    243c:	f8d7 30b0 	ldr.w	r3, [r7, #176]	; 0xb0
    2440:	2b00      	cmp	r3, #0
    2442:	d002      	beq.n	244a <SpongentWrap+0x58a>
/usr/src/app/examples/example_trustzone/ta1/spongent.c:491
    2444:	f8d7 30b0 	ldr.w	r3, [r7, #176]	; 0xb0
    2448:	e019      	b.n	247e <SpongentWrap+0x5be>
/usr/src/app/examples/example_trustzone/ta1/spongent.c:493
    244a:	e9d7 232e 	ldrd	r2, r3, [r7, #184]	; 0xb8
    244e:	f112 0110 	adds.w	r1, r2, #16
    2452:	6039      	str	r1, [r7, #0]
    2454:	f143 0300 	adc.w	r3, r3, #0
    2458:	607b      	str	r3, [r7, #4]
    245a:	e9d7 3400 	ldrd	r3, r4, [r7]
    245e:	e9c7 342e 	strd	r3, r4, [r7, #184]	; 0xb8
/usr/src/app/examples/example_trustzone/ta1/spongent.c:494
    2462:	f8d7 310c 	ldr.w	r3, [r7, #268]	; 0x10c
    2466:	f103 0302 	add.w	r3, r3, #2
    246a:	f8c7 310c 	str.w	r3, [r7, #268]	; 0x10c
/usr/src/app/examples/example_trustzone/ta1/spongent.c:485
    246e:	e9d7 232e 	ldrd	r2, r3, [r7, #184]	; 0xb8
    2472:	2a80      	cmp	r2, #128	; 0x80
    2474:	f173 0300 	sbcs.w	r3, r3, #0
    2478:	d3bb      	bcc.n	23f2 <SpongentWrap+0x532>
/usr/src/app/examples/example_trustzone/ta1/spongent.c:497
    247a:	f04f 0300 	mov.w	r3, #0
/usr/src/app/examples/example_trustzone/ta1/spongent.c:498 (discriminator 1)
    247e:	4618      	mov	r0, r3
    2480:	f107 07d8 	add.w	r7, r7, #216	; 0xd8
    2484:	46bd      	mov	sp, r7
    2486:	e9dd 4500 	ldrd	r4, r5, [sp]
    248a:	e9dd 7802 	ldrd	r7, r8, [sp, #8]
    248e:	e9dd 9a04 	ldrd	r9, sl, [sp, #16]
    2492:	b006      	add	sp, #24
    2494:	e8bd 8800 	ldmia.w	sp!, {fp, pc}

00002498 <SpongentUnwrap>:
SpongentUnwrap():
/usr/src/app/examples/example_trustzone/ta1/spongent.c:505
    2498:	e96d 7e02 	strd	r7, lr, [sp, #-8]!
    249c:	b092      	sub	sp, #72	; 0x48
    249e:	af08      	add	r7, sp, #32
    24a0:	60f8      	str	r0, [r7, #12]
    24a2:	60b9      	str	r1, [r7, #8]
    24a4:	e9c7 2300 	strd	r2, r3, [r7]
/usr/src/app/examples/example_trustzone/ta1/spongent.c:507
    24a8:	f04f 0301 	mov.w	r3, #1
    24ac:	9306      	str	r3, [sp, #24]
    24ae:	f107 0314 	add.w	r3, r7, #20
    24b2:	9305      	str	r3, [sp, #20]
    24b4:	6c3b      	ldr	r3, [r7, #64]	; 0x40
    24b6:	9304      	str	r3, [sp, #16]
    24b8:	e9d7 230e 	ldrd	r2, r3, [r7, #56]	; 0x38
    24bc:	e9cd 2302 	strd	r2, r3, [sp, #8]
    24c0:	6b3b      	ldr	r3, [r7, #48]	; 0x30
    24c2:	9300      	str	r3, [sp, #0]
    24c4:	e9d7 2300 	ldrd	r2, r3, [r7]
    24c8:	68b9      	ldr	r1, [r7, #8]
    24ca:	68f8      	ldr	r0, [r7, #12]
    24cc:	f7ff fcf8 	bl	1ec0 <SpongentWrap>
    24d0:	6278      	str	r0, [r7, #36]	; 0x24
/usr/src/app/examples/example_trustzone/ta1/spongent.c:512
    24d2:	6a7b      	ldr	r3, [r7, #36]	; 0x24
    24d4:	2b00      	cmp	r3, #0
    24d6:	d001      	beq.n	24dc <SpongentUnwrap+0x44>
/usr/src/app/examples/example_trustzone/ta1/spongent.c:513
    24d8:	6a7b      	ldr	r3, [r7, #36]	; 0x24
    24da:	e00f      	b.n	24fc <SpongentUnwrap+0x64>
/usr/src/app/examples/example_trustzone/ta1/spongent.c:516
    24dc:	f107 0314 	add.w	r3, r7, #20
    24e0:	f04f 0210 	mov.w	r2, #16
    24e4:	6c79      	ldr	r1, [r7, #68]	; 0x44
    24e6:	4618      	mov	r0, r3
    24e8:	f010 ffc2 	bl	13470 <memcmp>
    24ec:	4603      	mov	r3, r0
    24ee:	2b00      	cmp	r3, #0
    24f0:	d102      	bne.n	24f8 <SpongentUnwrap+0x60>
/usr/src/app/examples/example_trustzone/ta1/spongent.c:517
    24f2:	f04f 0303 	mov.w	r3, #3
    24f6:	e001      	b.n	24fc <SpongentUnwrap+0x64>
/usr/src/app/examples/example_trustzone/ta1/spongent.c:519
    24f8:	f04f 0300 	mov.w	r3, #0
/usr/src/app/examples/example_trustzone/ta1/spongent.c:520 (discriminator 1)
    24fc:	4618      	mov	r0, r3
    24fe:	f107 0728 	add.w	r7, r7, #40	; 0x28
    2502:	46bd      	mov	sp, r7
    2504:	bd80      	pop	{r7, pc}

00002506 <SpongentMac>:
SpongentMac():
/usr/src/app/examples/example_trustzone/ta1/spongent.c:525
    2506:	e96d 7e02 	strd	r7, lr, [sp, #-8]!
    250a:	b08c      	sub	sp, #48	; 0x30
    250c:	af08      	add	r7, sp, #32
    250e:	60f8      	str	r0, [r7, #12]
    2510:	60b9      	str	r1, [r7, #8]
    2512:	e9c7 2300 	strd	r2, r3, [r7]
/usr/src/app/examples/example_trustzone/ta1/spongent.c:526
    2516:	f04f 0300 	mov.w	r3, #0
    251a:	9306      	str	r3, [sp, #24]
    251c:	69bb      	ldr	r3, [r7, #24]
    251e:	9305      	str	r3, [sp, #20]
    2520:	f04f 0300 	mov.w	r3, #0
    2524:	9304      	str	r3, [sp, #16]
    2526:	efc0 0010 	vmov.i32	d16, #0	; 0x00000000
    252a:	edcd 0b02 	vstr	d16, [sp, #8]
    252e:	f04f 0300 	mov.w	r3, #0
    2532:	9300      	str	r3, [sp, #0]
    2534:	e9d7 2300 	ldrd	r2, r3, [r7]
    2538:	68b9      	ldr	r1, [r7, #8]
    253a:	68f8      	ldr	r0, [r7, #12]
    253c:	f7ff fcc0 	bl	1ec0 <SpongentWrap>
    2540:	4603      	mov	r3, r0
/usr/src/app/examples/example_trustzone/ta1/spongent.c:527
    2542:	4618      	mov	r0, r3
    2544:	f107 0710 	add.w	r7, r7, #16
    2548:	46bd      	mov	sp, r7
    254a:	bd80      	pop	{r7, pc}

0000254c <__ta_entry>:
__ta_entry():
/optee/optee_os/out/arm/export-ta_arm32/src/ta_entry_a32.S:20
    254c:	fa0043b9 	blx	13438 <__ta_entry_c>

00002550 <tag_asan_free>:
tag_asan_free():
/optee/optee_os/lib/libutils/isoc/bget_malloc.c:122
    2550:	f84d 7d04 	str.w	r7, [sp, #-4]!
    2554:	b083      	sub	sp, #12
    2556:	af00      	add	r7, sp, #0
    2558:	6078      	str	r0, [r7, #4]
    255a:	6039      	str	r1, [r7, #0]
/optee/optee_os/lib/libutils/isoc/bget_malloc.c:123
    255c:	bf00      	nop
    255e:	f107 070c 	add.w	r7, r7, #12
    2562:	46bd      	mov	sp, r7
    2564:	f85d 7b04 	ldr.w	r7, [sp], #4
    2568:	4770      	bx	lr

0000256a <tag_asan_alloced>:
tag_asan_alloced():
/optee/optee_os/lib/libutils/isoc/bget_malloc.c:126
    256a:	f84d 7d04 	str.w	r7, [sp, #-4]!
    256e:	b083      	sub	sp, #12
    2570:	af00      	add	r7, sp, #0
    2572:	6078      	str	r0, [r7, #4]
    2574:	6039      	str	r1, [r7, #0]
/optee/optee_os/lib/libutils/isoc/bget_malloc.c:127
    2576:	bf00      	nop
    2578:	f107 070c 	add.w	r7, r7, #12
    257c:	46bd      	mov	sp, r7
    257e:	f85d 7b04 	ldr.w	r7, [sp], #4
    2582:	4770      	bx	lr

00002584 <memset_unchecked>:
memset_unchecked():
/optee/optee_os/lib/libutils/isoc/bget_malloc.c:130
    2584:	e96d 7e02 	strd	r7, lr, [sp, #-8]!
    2588:	b084      	sub	sp, #16
    258a:	af00      	add	r7, sp, #0
    258c:	60f8      	str	r0, [r7, #12]
    258e:	60b9      	str	r1, [r7, #8]
    2590:	607a      	str	r2, [r7, #4]
/optee/optee_os/lib/libutils/isoc/bget_malloc.c:131
    2592:	687a      	ldr	r2, [r7, #4]
    2594:	68b9      	ldr	r1, [r7, #8]
    2596:	68f8      	ldr	r0, [r7, #12]
    2598:	f011 f83f 	bl	1361a <memset>
    259c:	4603      	mov	r3, r0
/optee/optee_os/lib/libutils/isoc/bget_malloc.c:132
    259e:	4618      	mov	r0, r3
    25a0:	f107 0710 	add.w	r7, r7, #16
    25a4:	46bd      	mov	sp, r7
    25a6:	bd80      	pop	{r7, pc}

000025a8 <memcpy_unchecked>:
memcpy_unchecked():
/optee/optee_os/lib/libutils/isoc/bget_malloc.c:136
    25a8:	e96d 7e02 	strd	r7, lr, [sp, #-8]!
    25ac:	b084      	sub	sp, #16
    25ae:	af00      	add	r7, sp, #0
    25b0:	60f8      	str	r0, [r7, #12]
    25b2:	60b9      	str	r1, [r7, #8]
    25b4:	607a      	str	r2, [r7, #4]
/optee/optee_os/lib/libutils/isoc/bget_malloc.c:137
    25b6:	687a      	ldr	r2, [r7, #4]
    25b8:	68b9      	ldr	r1, [r7, #8]
    25ba:	68f8      	ldr	r0, [r7, #12]
    25bc:	f010 ffb4 	bl	13528 <memcpy>
    25c0:	4603      	mov	r3, r0
/optee/optee_os/lib/libutils/isoc/bget_malloc.c:138
    25c2:	4618      	mov	r0, r3
    25c4:	f107 0710 	add.w	r7, r7, #16
    25c8:	46bd      	mov	sp, r7
    25ca:	bd80      	pop	{r7, pc}

000025cc <buf_get_pos>:
buf_get_pos():
/optee/optee_os/lib/libutils/isoc/bget.c:581
    25cc:	f84d 7d04 	str.w	r7, [sp, #-4]!
    25d0:	b087      	sub	sp, #28
    25d2:	af00      	add	r7, sp, #0
    25d4:	60f8      	str	r0, [r7, #12]
    25d6:	60b9      	str	r1, [r7, #8]
    25d8:	607a      	str	r2, [r7, #4]
    25da:	603b      	str	r3, [r7, #0]
/optee/optee_os/lib/libutils/isoc/bget.c:582
    25dc:	f04f 0300 	mov.w	r3, #0
    25e0:	617b      	str	r3, [r7, #20]
/optee/optee_os/lib/libutils/isoc/bget.c:583
    25e2:	f04f 0300 	mov.w	r3, #0
    25e6:	613b      	str	r3, [r7, #16]
/optee/optee_os/lib/libutils/isoc/bget.c:585
    25e8:	68fb      	ldr	r3, [r7, #12]
    25ea:	685b      	ldr	r3, [r3, #4]
    25ec:	683a      	ldr	r2, [r7, #0]
    25ee:	429a      	cmp	r2, r3
    25f0:	dd02      	ble.n	25f8 <buf_get_pos+0x2c>
/optee/optee_os/lib/libutils/isoc/bget.c:586
    25f2:	f04f 33ff 	mov.w	r3, #4294967295	; 0xffffffff
    25f6:	e02a      	b.n	264e <buf_get_pos+0x82>
/optee/optee_os/lib/libutils/isoc/bget.c:592
    25f8:	68fb      	ldr	r3, [r7, #12]
    25fa:	685b      	ldr	r3, [r3, #4]
    25fc:	461a      	mov	r2, r3
    25fe:	68fb      	ldr	r3, [r7, #12]
    2600:	441a      	add	r2, r3
    2602:	683b      	ldr	r3, [r7, #0]
    2604:	eba2 0203 	sub.w	r2, r2, r3
    2608:	687b      	ldr	r3, [r7, #4]
    260a:	4413      	add	r3, r2
    260c:	f103 0308 	add.w	r3, r3, #8
    2610:	617b      	str	r3, [r7, #20]
/optee/optee_os/lib/libutils/isoc/bget.c:594
    2612:	68bb      	ldr	r3, [r7, #8]
    2614:	f1c3 0300 	rsb	r3, r3, #0
    2618:	461a      	mov	r2, r3
    261a:	697b      	ldr	r3, [r7, #20]
    261c:	ea03 0302 	and.w	r3, r3, r2
    2620:	617b      	str	r3, [r7, #20]
/optee/optee_os/lib/libutils/isoc/bget.c:595
    2622:	68fb      	ldr	r3, [r7, #12]
    2624:	697a      	ldr	r2, [r7, #20]
    2626:	eba2 0203 	sub.w	r2, r2, r3
    262a:	687b      	ldr	r3, [r7, #4]
    262c:	eba2 0303 	sub.w	r3, r2, r3
    2630:	f1a3 0308 	sub.w	r3, r3, #8
    2634:	613b      	str	r3, [r7, #16]
/optee/optee_os/lib/libutils/isoc/bget.c:597
    2636:	693b      	ldr	r3, [r7, #16]
    2638:	2b00      	cmp	r3, #0
    263a:	d101      	bne.n	2640 <buf_get_pos+0x74>
/optee/optee_os/lib/libutils/isoc/bget.c:598
    263c:	693b      	ldr	r3, [r7, #16]
    263e:	e006      	b.n	264e <buf_get_pos+0x82>
/optee/optee_os/lib/libutils/isoc/bget.c:599
    2640:	693b      	ldr	r3, [r7, #16]
    2642:	2b0f      	cmp	r3, #15
    2644:	d901      	bls.n	264a <buf_get_pos+0x7e>
/optee/optee_os/lib/libutils/isoc/bget.c:600
    2646:	693b      	ldr	r3, [r7, #16]
    2648:	e001      	b.n	264e <buf_get_pos+0x82>
/optee/optee_os/lib/libutils/isoc/bget.c:602
    264a:	f04f 33ff 	mov.w	r3, #4294967295	; 0xffffffff
/optee/optee_os/lib/libutils/isoc/bget.c:603
    264e:	4618      	mov	r0, r3
    2650:	f107 071c 	add.w	r7, r7, #28
    2654:	46bd      	mov	sp, r7
    2656:	f85d 7b04 	ldr.w	r7, [sp], #4
    265a:	4770      	bx	lr

0000265c <bget>:
bget():
/optee/optee_os/lib/libutils/isoc/bget.c:612
    265c:	e96d 7e02 	strd	r7, lr, [sp, #-8]!
    2660:	b08c      	sub	sp, #48	; 0x30
    2662:	af00      	add	r7, sp, #0
    2664:	60f8      	str	r0, [r7, #12]
    2666:	60b9      	str	r1, [r7, #8]
    2668:	607a      	str	r2, [r7, #4]
    266a:	603b      	str	r3, [r7, #0]
/optee/optee_os/lib/libutils/isoc/bget.c:613
    266c:	68fb      	ldr	r3, [r7, #12]
    266e:	62fb      	str	r3, [r7, #44]	; 0x2c
/optee/optee_os/lib/libutils/isoc/bget.c:614
    2670:	687b      	ldr	r3, [r7, #4]
    2672:	617b      	str	r3, [r7, #20]
/optee/optee_os/lib/libutils/isoc/bget.c:625
    2674:	697b      	ldr	r3, [r7, #20]
    2676:	2b00      	cmp	r3, #0
    2678:	dc0b      	bgt.n	2692 <bget+0x36>
/optee/optee_os/lib/libutils/isoc/bget.c:625 (discriminator 1)
    267a:	4bc3      	ldr	r3, [pc, #780]	; (2988 <bget+0x32c>)
    267c:	447b      	add	r3, pc
    267e:	f240 2271 	movw	r2, #625	; 0x271
    2682:	49c2      	ldr	r1, [pc, #776]	; (298c <bget+0x330>)
    2684:	4479      	add	r1, pc
    2686:	48c2      	ldr	r0, [pc, #776]	; (2990 <bget+0x334>)
    2688:	4478      	add	r0, pc
    268a:	f002 fd81 	bl	5190 <_assert_log>
    268e:	f002 fda3 	bl	51d8 <_assert_break>
/optee/optee_os/lib/libutils/isoc/bget.c:626
    2692:	bf00      	nop
/optee/optee_os/lib/libutils/isoc/bget.c:628
    2694:	6afb      	ldr	r3, [r7, #44]	; 0x2c
    2696:	2b00      	cmp	r3, #0
    2698:	db0e      	blt.n	26b8 <bget+0x5c>
/optee/optee_os/lib/libutils/isoc/bget.c:628 (discriminator 1)
    269a:	6afb      	ldr	r3, [r7, #44]	; 0x2c
    269c:	2b00      	cmp	r3, #0
    269e:	dd0e      	ble.n	26be <bget+0x62>
/optee/optee_os/lib/libutils/isoc/bget.c:628 (discriminator 2)
    26a0:	6afb      	ldr	r3, [r7, #44]	; 0x2c
    26a2:	2b00      	cmp	r3, #0
    26a4:	d008      	beq.n	26b8 <bget+0x5c>
/optee/optee_os/lib/libutils/isoc/bget.c:628 (discriminator 3)
    26a6:	6afb      	ldr	r3, [r7, #44]	; 0x2c
    26a8:	f1c3 0200 	rsb	r2, r3, #0
    26ac:	6afb      	ldr	r3, [r7, #44]	; 0x2c
    26ae:	ea02 0203 	and.w	r2, r2, r3
    26b2:	6afb      	ldr	r3, [r7, #44]	; 0x2c
    26b4:	429a      	cmp	r2, r3
    26b6:	d002      	beq.n	26be <bget+0x62>
/optee/optee_os/lib/libutils/isoc/bget.c:629
    26b8:	f04f 0300 	mov.w	r3, #0
    26bc:	e15e      	b.n	297c <bget+0x320>
/optee/optee_os/lib/libutils/isoc/bget.c:630
    26be:	68bb      	ldr	r3, [r7, #8]
    26c0:	f003 0307 	and.w	r3, r3, #7
    26c4:	2b00      	cmp	r3, #0
    26c6:	d002      	beq.n	26ce <bget+0x72>
/optee/optee_os/lib/libutils/isoc/bget.c:631
    26c8:	f04f 0300 	mov.w	r3, #0
    26cc:	e156      	b.n	297c <bget+0x320>
/optee/optee_os/lib/libutils/isoc/bget.c:633
    26ce:	697b      	ldr	r3, [r7, #20]
    26d0:	2b07      	cmp	r3, #7
    26d2:	d802      	bhi.n	26da <bget+0x7e>
/optee/optee_os/lib/libutils/isoc/bget.c:634
    26d4:	f04f 0308 	mov.w	r3, #8
    26d8:	617b      	str	r3, [r7, #20]
/optee/optee_os/lib/libutils/isoc/bget.c:636
    26da:	6afb      	ldr	r3, [r7, #44]	; 0x2c
    26dc:	2b07      	cmp	r3, #7
    26de:	d802      	bhi.n	26e6 <bget+0x8a>
/optee/optee_os/lib/libutils/isoc/bget.c:637
    26e0:	f04f 0308 	mov.w	r3, #8
    26e4:	62fb      	str	r3, [r7, #44]	; 0x2c
/optee/optee_os/lib/libutils/isoc/bget.c:640
    26e6:	697b      	ldr	r3, [r7, #20]
    26e8:	f04f 0200 	mov.w	r2, #0
    26ec:	3307      	adds	r3, #7
    26ee:	d701      	bvc.n	26f4 <bget+0x98>
    26f0:	f04f 0201 	mov.w	r2, #1
    26f4:	617b      	str	r3, [r7, #20]
    26f6:	4613      	mov	r3, r2
    26f8:	f003 0301 	and.w	r3, r3, #1
    26fc:	b2db      	uxtb	r3, r3
    26fe:	2b00      	cmp	r3, #0
    2700:	d002      	beq.n	2708 <bget+0xac>
/optee/optee_os/lib/libutils/isoc/bget.c:641
    2702:	f04f 0300 	mov.w	r3, #0
    2706:	e139      	b.n	297c <bget+0x320>
/optee/optee_os/lib/libutils/isoc/bget.c:643
    2708:	697b      	ldr	r3, [r7, #20]
    270a:	f023 0307 	bic.w	r3, r3, #7
    270e:	617b      	str	r3, [r7, #20]
/optee/optee_os/lib/libutils/isoc/bget.c:648
    2710:	697b      	ldr	r3, [r7, #20]
    2712:	f04f 0200 	mov.w	r2, #0
    2716:	3308      	adds	r3, #8
    2718:	d701      	bvc.n	271e <bget+0xc2>
    271a:	f04f 0201 	mov.w	r2, #1
    271e:	617b      	str	r3, [r7, #20]
    2720:	4613      	mov	r3, r2
    2722:	f003 0301 	and.w	r3, r3, #1
    2726:	b2db      	uxtb	r3, r3
    2728:	2b00      	cmp	r3, #0
    272a:	d002      	beq.n	2732 <bget+0xd6>
/optee/optee_os/lib/libutils/isoc/bget.c:649
    272c:	f04f 0300 	mov.w	r3, #0
    2730:	e124      	b.n	297c <bget+0x320>
/optee/optee_os/lib/libutils/isoc/bget.c:650
    2732:	697a      	ldr	r2, [r7, #20]
    2734:	f04f 0100 	mov.w	r1, #0
    2738:	68bb      	ldr	r3, [r7, #8]
    273a:	18d3      	adds	r3, r2, r3
    273c:	d701      	bvc.n	2742 <bget+0xe6>
    273e:	f04f 0101 	mov.w	r1, #1
    2742:	617b      	str	r3, [r7, #20]
    2744:	460b      	mov	r3, r1
    2746:	f003 0301 	and.w	r3, r3, #1
    274a:	b2db      	uxtb	r3, r3
    274c:	2b00      	cmp	r3, #0
    274e:	d002      	beq.n	2756 <bget+0xfa>
/optee/optee_os/lib/libutils/isoc/bget.c:651
    2750:	f04f 0300 	mov.w	r3, #0
    2754:	e112      	b.n	297c <bget+0x320>
/optee/optee_os/lib/libutils/isoc/bget.c:660
    2756:	683b      	ldr	r3, [r7, #0]
    2758:	689b      	ldr	r3, [r3, #8]
    275a:	62bb      	str	r3, [r7, #40]	; 0x28
/optee/optee_os/lib/libutils/isoc/bget.c:684
    275c:	e107      	b.n	296e <bget+0x312>
/optee/optee_os/lib/libutils/isoc/bget.c:685
    275e:	697b      	ldr	r3, [r7, #20]
    2760:	68ba      	ldr	r2, [r7, #8]
    2762:	6af9      	ldr	r1, [r7, #44]	; 0x2c
    2764:	6ab8      	ldr	r0, [r7, #40]	; 0x28
    2766:	f7ff ff31 	bl	25cc <buf_get_pos>
    276a:	6278      	str	r0, [r7, #36]	; 0x24
/optee/optee_os/lib/libutils/isoc/bget.c:686
    276c:	6a7b      	ldr	r3, [r7, #36]	; 0x24
    276e:	2b00      	cmp	r3, #0
    2770:	f2c0 80fa 	blt.w	2968 <bget+0x30c>
/optee/optee_os/lib/libutils/isoc/bget.c:687
    2774:	6a7b      	ldr	r3, [r7, #36]	; 0x24
    2776:	6aba      	ldr	r2, [r7, #40]	; 0x28
    2778:	4413      	add	r3, r2
    277a:	623b      	str	r3, [r7, #32]
/optee/optee_os/lib/libutils/isoc/bget.c:688
    277c:	6abb      	ldr	r3, [r7, #40]	; 0x28
    277e:	685b      	ldr	r3, [r3, #4]
    2780:	461a      	mov	r2, r3
    2782:	6abb      	ldr	r3, [r7, #40]	; 0x28
    2784:	4413      	add	r3, r2
    2786:	61fb      	str	r3, [r7, #28]
/optee/optee_os/lib/libutils/isoc/bget.c:690
    2788:	69fb      	ldr	r3, [r7, #28]
    278a:	681a      	ldr	r2, [r3, #0]
    278c:	6abb      	ldr	r3, [r7, #40]	; 0x28
    278e:	685b      	ldr	r3, [r3, #4]
    2790:	429a      	cmp	r2, r3
    2792:	d00b      	beq.n	27ac <bget+0x150>
/optee/optee_os/lib/libutils/isoc/bget.c:690 (discriminator 1)
    2794:	4b7f      	ldr	r3, [pc, #508]	; (2994 <bget+0x338>)
    2796:	447b      	add	r3, pc
    2798:	f240 22b2 	movw	r2, #690	; 0x2b2
    279c:	497e      	ldr	r1, [pc, #504]	; (2998 <bget+0x33c>)
    279e:	4479      	add	r1, pc
    27a0:	487e      	ldr	r0, [pc, #504]	; (299c <bget+0x340>)
    27a2:	4478      	add	r0, pc
    27a4:	f002 fcf4 	bl	5190 <_assert_log>
    27a8:	f002 fd16 	bl	51d8 <_assert_break>
/optee/optee_os/lib/libutils/isoc/bget.c:696
    27ac:	69fb      	ldr	r3, [r7, #28]
    27ae:	f04f 0200 	mov.w	r2, #0
    27b2:	601a      	str	r2, [r3, #0]
/optee/optee_os/lib/libutils/isoc/bget.c:698
    27b4:	6abb      	ldr	r3, [r7, #40]	; 0x28
    27b6:	68db      	ldr	r3, [r3, #12]
    27b8:	689b      	ldr	r3, [r3, #8]
    27ba:	6aba      	ldr	r2, [r7, #40]	; 0x28
    27bc:	429a      	cmp	r2, r3
    27be:	d00b      	beq.n	27d8 <bget+0x17c>
/optee/optee_os/lib/libutils/isoc/bget.c:698 (discriminator 1)
    27c0:	4b77      	ldr	r3, [pc, #476]	; (29a0 <bget+0x344>)
    27c2:	447b      	add	r3, pc
    27c4:	f240 22ba 	movw	r2, #698	; 0x2ba
    27c8:	4976      	ldr	r1, [pc, #472]	; (29a4 <bget+0x348>)
    27ca:	4479      	add	r1, pc
    27cc:	4876      	ldr	r0, [pc, #472]	; (29a8 <bget+0x34c>)
    27ce:	4478      	add	r0, pc
    27d0:	f002 fcde 	bl	5190 <_assert_log>
    27d4:	f002 fd00 	bl	51d8 <_assert_break>
/optee/optee_os/lib/libutils/isoc/bget.c:699
    27d8:	6abb      	ldr	r3, [r7, #40]	; 0x28
    27da:	689b      	ldr	r3, [r3, #8]
    27dc:	68db      	ldr	r3, [r3, #12]
    27de:	6aba      	ldr	r2, [r7, #40]	; 0x28
    27e0:	429a      	cmp	r2, r3
    27e2:	d00b      	beq.n	27fc <bget+0x1a0>
/optee/optee_os/lib/libutils/isoc/bget.c:699 (discriminator 1)
    27e4:	4b71      	ldr	r3, [pc, #452]	; (29ac <bget+0x350>)
    27e6:	447b      	add	r3, pc
    27e8:	f240 22bb 	movw	r2, #699	; 0x2bb
    27ec:	4970      	ldr	r1, [pc, #448]	; (29b0 <bget+0x354>)
    27ee:	4479      	add	r1, pc
    27f0:	4870      	ldr	r0, [pc, #448]	; (29b4 <bget+0x358>)
    27f2:	4478      	add	r0, pc
    27f4:	f002 fccc 	bl	5190 <_assert_log>
    27f8:	f002 fcee 	bl	51d8 <_assert_break>
/optee/optee_os/lib/libutils/isoc/bget.c:701
    27fc:	6a7b      	ldr	r3, [r7, #36]	; 0x24
    27fe:	2b00      	cmp	r3, #0
    2800:	d110      	bne.n	2824 <bget+0x1c8>
/optee/optee_os/lib/libutils/isoc/bget.c:706
    2802:	6abb      	ldr	r3, [r7, #40]	; 0x28
    2804:	68db      	ldr	r3, [r3, #12]
    2806:	6aba      	ldr	r2, [r7, #40]	; 0x28
    2808:	6892      	ldr	r2, [r2, #8]
    280a:	609a      	str	r2, [r3, #8]
/optee/optee_os/lib/libutils/isoc/bget.c:707
    280c:	6abb      	ldr	r3, [r7, #40]	; 0x28
    280e:	689b      	ldr	r3, [r3, #8]
    2810:	6aba      	ldr	r2, [r7, #40]	; 0x28
    2812:	68d2      	ldr	r2, [r2, #12]
    2814:	60da      	str	r2, [r3, #12]
/optee/optee_os/lib/libutils/isoc/bget.c:710
    2816:	6abb      	ldr	r3, [r7, #40]	; 0x28
    2818:	685b      	ldr	r3, [r3, #4]
    281a:	f1c3 0200 	rsb	r2, r3, #0
    281e:	6abb      	ldr	r3, [r7, #40]	; 0x28
    2820:	605a      	str	r2, [r3, #4]
    2822:	e00c      	b.n	283e <bget+0x1e2>
/optee/optee_os/lib/libutils/isoc/bget.c:716
    2824:	6abb      	ldr	r3, [r7, #40]	; 0x28
    2826:	685b      	ldr	r3, [r3, #4]
    2828:	6a7a      	ldr	r2, [r7, #36]	; 0x24
    282a:	eba2 0203 	sub.w	r2, r2, r3
    282e:	6a3b      	ldr	r3, [r7, #32]
    2830:	605a      	str	r2, [r3, #4]
/optee/optee_os/lib/libutils/isoc/bget.c:717
    2832:	6a3b      	ldr	r3, [r7, #32]
    2834:	6a7a      	ldr	r2, [r7, #36]	; 0x24
    2836:	601a      	str	r2, [r3, #0]
/optee/optee_os/lib/libutils/isoc/bget.c:718
    2838:	6abb      	ldr	r3, [r7, #40]	; 0x28
    283a:	6a7a      	ldr	r2, [r7, #36]	; 0x24
    283c:	605a      	str	r2, [r3, #4]
/optee/optee_os/lib/libutils/isoc/bget.c:721
    283e:	6a3b      	ldr	r3, [r7, #32]
    2840:	685b      	ldr	r3, [r3, #4]
    2842:	2b00      	cmp	r3, #0
    2844:	db0b      	blt.n	285e <bget+0x202>
/optee/optee_os/lib/libutils/isoc/bget.c:721 (discriminator 1)
    2846:	4b5c      	ldr	r3, [pc, #368]	; (29b8 <bget+0x35c>)
    2848:	447b      	add	r3, pc
    284a:	f240 22d1 	movw	r2, #721	; 0x2d1
    284e:	495b      	ldr	r1, [pc, #364]	; (29bc <bget+0x360>)
    2850:	4479      	add	r1, pc
    2852:	485b      	ldr	r0, [pc, #364]	; (29c0 <bget+0x364>)
    2854:	4478      	add	r0, pc
    2856:	f002 fc9b 	bl	5190 <_assert_log>
    285a:	f002 fcbd 	bl	51d8 <_assert_break>
/optee/optee_os/lib/libutils/isoc/bget.c:727
    285e:	6a3b      	ldr	r3, [r7, #32]
    2860:	685b      	ldr	r3, [r3, #4]
    2862:	f1c3 0200 	rsb	r2, r3, #0
    2866:	697b      	ldr	r3, [r7, #20]
    2868:	eba2 0303 	sub.w	r3, r2, r3
    286c:	2b10      	cmp	r3, #16
    286e:	d962      	bls.n	2936 <bget+0x2da>
/optee/optee_os/lib/libutils/isoc/bget.c:733
    2870:	697b      	ldr	r3, [r7, #20]
    2872:	461a      	mov	r2, r3
    2874:	6a3b      	ldr	r3, [r7, #32]
    2876:	4413      	add	r3, r2
    2878:	62bb      	str	r3, [r7, #40]	; 0x28
/optee/optee_os/lib/libutils/isoc/bget.c:734
    287a:	6a3b      	ldr	r3, [r7, #32]
    287c:	685b      	ldr	r3, [r3, #4]
    287e:	f1c3 0200 	rsb	r2, r3, #0
    2882:	697b      	ldr	r3, [r7, #20]
    2884:	eba2 0203 	sub.w	r2, r2, r3
    2888:	6abb      	ldr	r3, [r7, #40]	; 0x28
    288a:	605a      	str	r2, [r3, #4]
/optee/optee_os/lib/libutils/isoc/bget.c:735
    288c:	6abb      	ldr	r3, [r7, #40]	; 0x28
    288e:	f04f 0200 	mov.w	r2, #0
    2892:	601a      	str	r2, [r3, #0]
/optee/optee_os/lib/libutils/isoc/bget.c:736
    2894:	6a3b      	ldr	r3, [r7, #32]
    2896:	685a      	ldr	r2, [r3, #4]
    2898:	6abb      	ldr	r3, [r7, #40]	; 0x28
    289a:	685b      	ldr	r3, [r3, #4]
    289c:	441a      	add	r2, r3
    289e:	6a3b      	ldr	r3, [r7, #32]
    28a0:	605a      	str	r2, [r3, #4]
/optee/optee_os/lib/libutils/isoc/bget.c:738
    28a2:	683b      	ldr	r3, [r7, #0]
    28a4:	68db      	ldr	r3, [r3, #12]
    28a6:	689a      	ldr	r2, [r3, #8]
    28a8:	683b      	ldr	r3, [r7, #0]
    28aa:	429a      	cmp	r2, r3
    28ac:	d00b      	beq.n	28c6 <bget+0x26a>
/optee/optee_os/lib/libutils/isoc/bget.c:738 (discriminator 1)
    28ae:	4b45      	ldr	r3, [pc, #276]	; (29c4 <bget+0x368>)
    28b0:	447b      	add	r3, pc
    28b2:	f240 22e2 	movw	r2, #738	; 0x2e2
    28b6:	4944      	ldr	r1, [pc, #272]	; (29c8 <bget+0x36c>)
    28b8:	4479      	add	r1, pc
    28ba:	4844      	ldr	r0, [pc, #272]	; (29cc <bget+0x370>)
    28bc:	4478      	add	r0, pc
    28be:	f002 fc67 	bl	5190 <_assert_log>
    28c2:	f002 fc89 	bl	51d8 <_assert_break>
/optee/optee_os/lib/libutils/isoc/bget.c:740
    28c6:	683b      	ldr	r3, [r7, #0]
    28c8:	689b      	ldr	r3, [r3, #8]
    28ca:	68da      	ldr	r2, [r3, #12]
    28cc:	683b      	ldr	r3, [r7, #0]
    28ce:	429a      	cmp	r2, r3
    28d0:	d00b      	beq.n	28ea <bget+0x28e>
/optee/optee_os/lib/libutils/isoc/bget.c:740 (discriminator 1)
    28d2:	4b3f      	ldr	r3, [pc, #252]	; (29d0 <bget+0x374>)
    28d4:	447b      	add	r3, pc
    28d6:	f44f 7239 	mov.w	r2, #740	; 0x2e4
    28da:	493e      	ldr	r1, [pc, #248]	; (29d4 <bget+0x378>)
    28dc:	4479      	add	r1, pc
    28de:	483e      	ldr	r0, [pc, #248]	; (29d8 <bget+0x37c>)
    28e0:	4478      	add	r0, pc
    28e2:	f002 fc55 	bl	5190 <_assert_log>
    28e6:	f002 fc77 	bl	51d8 <_assert_break>
/optee/optee_os/lib/libutils/isoc/bget.c:742
    28ea:	683a      	ldr	r2, [r7, #0]
    28ec:	6abb      	ldr	r3, [r7, #40]	; 0x28
    28ee:	609a      	str	r2, [r3, #8]
/optee/optee_os/lib/libutils/isoc/bget.c:743
    28f0:	683b      	ldr	r3, [r7, #0]
    28f2:	68da      	ldr	r2, [r3, #12]
    28f4:	6abb      	ldr	r3, [r7, #40]	; 0x28
    28f6:	60da      	str	r2, [r3, #12]
/optee/optee_os/lib/libutils/isoc/bget.c:744
    28f8:	683b      	ldr	r3, [r7, #0]
    28fa:	6aba      	ldr	r2, [r7, #40]	; 0x28
    28fc:	60da      	str	r2, [r3, #12]
/optee/optee_os/lib/libutils/isoc/bget.c:745
    28fe:	6abb      	ldr	r3, [r7, #40]	; 0x28
    2900:	68db      	ldr	r3, [r3, #12]
    2902:	6aba      	ldr	r2, [r7, #40]	; 0x28
    2904:	609a      	str	r2, [r3, #8]
/optee/optee_os/lib/libutils/isoc/bget.c:747
    2906:	6abb      	ldr	r3, [r7, #40]	; 0x28
    2908:	685b      	ldr	r3, [r3, #4]
    290a:	461a      	mov	r2, r3
    290c:	6abb      	ldr	r3, [r7, #40]	; 0x28
    290e:	4413      	add	r3, r2
    2910:	69fa      	ldr	r2, [r7, #28]
    2912:	429a      	cmp	r2, r3
    2914:	d00b      	beq.n	292e <bget+0x2d2>
/optee/optee_os/lib/libutils/isoc/bget.c:747 (discriminator 1)
    2916:	4b31      	ldr	r3, [pc, #196]	; (29dc <bget+0x380>)
    2918:	447b      	add	r3, pc
    291a:	f240 22eb 	movw	r2, #747	; 0x2eb
    291e:	4930      	ldr	r1, [pc, #192]	; (29e0 <bget+0x384>)
    2920:	4479      	add	r1, pc
    2922:	4830      	ldr	r0, [pc, #192]	; (29e4 <bget+0x388>)
    2924:	4478      	add	r0, pc
    2926:	f002 fc33 	bl	5190 <_assert_log>
    292a:	f002 fc55 	bl	51d8 <_assert_break>
/optee/optee_os/lib/libutils/isoc/bget.c:748
    292e:	6abb      	ldr	r3, [r7, #40]	; 0x28
    2930:	685a      	ldr	r2, [r3, #4]
    2932:	69fb      	ldr	r3, [r7, #28]
    2934:	601a      	str	r2, [r3, #0]
/optee/optee_os/lib/libutils/isoc/bget.c:752
    2936:	683b      	ldr	r3, [r7, #0]
    2938:	691a      	ldr	r2, [r3, #16]
    293a:	6a3b      	ldr	r3, [r7, #32]
    293c:	685b      	ldr	r3, [r3, #4]
    293e:	eba2 0203 	sub.w	r2, r2, r3
    2942:	683b      	ldr	r3, [r7, #0]
    2944:	611a      	str	r2, [r3, #16]
/optee/optee_os/lib/libutils/isoc/bget.c:753
    2946:	683b      	ldr	r3, [r7, #0]
    2948:	695b      	ldr	r3, [r3, #20]
    294a:	f103 0201 	add.w	r2, r3, #1
    294e:	683b      	ldr	r3, [r7, #0]
    2950:	615a      	str	r2, [r3, #20]
/optee/optee_os/lib/libutils/isoc/bget.c:755
    2952:	6a3b      	ldr	r3, [r7, #32]
    2954:	f103 0308 	add.w	r3, r3, #8
    2958:	61bb      	str	r3, [r7, #24]
/optee/optee_os/lib/libutils/isoc/bget.c:756
    295a:	697b      	ldr	r3, [r7, #20]
    295c:	4619      	mov	r1, r3
    295e:	69b8      	ldr	r0, [r7, #24]
    2960:	f7ff fe03 	bl	256a <tag_asan_alloced>
/optee/optee_os/lib/libutils/isoc/bget.c:757
    2964:	69bb      	ldr	r3, [r7, #24]
    2966:	e009      	b.n	297c <bget+0x320>
/optee/optee_os/lib/libutils/isoc/bget.c:759
    2968:	6abb      	ldr	r3, [r7, #40]	; 0x28
    296a:	689b      	ldr	r3, [r3, #8]
    296c:	62bb      	str	r3, [r7, #40]	; 0x28
/optee/optee_os/lib/libutils/isoc/bget.c:684
    296e:	683b      	ldr	r3, [r7, #0]
    2970:	6aba      	ldr	r2, [r7, #40]	; 0x28
    2972:	429a      	cmp	r2, r3
    2974:	f47f aef3 	bne.w	275e <bget+0x102>
/optee/optee_os/lib/libutils/isoc/bget.c:838
    2978:	f04f 0300 	mov.w	r3, #0
/optee/optee_os/lib/libutils/isoc/bget.c:839 (discriminator 1)
    297c:	4618      	mov	r0, r3
    297e:	f107 0730 	add.w	r7, r7, #48	; 0x30
    2982:	46bd      	mov	sp, r7
    2984:	bd80      	pop	{r7, pc}
    2986:	bf00      	nop
    2988:	00013354 	.word	0x00013354
    298c:	00013064 	.word	0x00013064
    2990:	0001307c 	.word	0x0001307c
    2994:	0001323a 	.word	0x0001323a
    2998:	00012f4a 	.word	0x00012f4a
    299c:	00012f6e 	.word	0x00012f6e
    29a0:	0001320e 	.word	0x0001320e
    29a4:	00012f1e 	.word	0x00012f1e
    29a8:	00012f62 	.word	0x00012f62
    29ac:	000131ea 	.word	0x000131ea
    29b0:	00012efa 	.word	0x00012efa
    29b4:	00012f5a 	.word	0x00012f5a
    29b8:	00013188 	.word	0x00013188
    29bc:	00012e98 	.word	0x00012e98
    29c0:	00012f14 	.word	0x00012f14
    29c4:	00013120 	.word	0x00013120
    29c8:	00012e30 	.word	0x00012e30
    29cc:	00012ec0 	.word	0x00012ec0
    29d0:	000130fc 	.word	0x000130fc
    29d4:	00012e0c 	.word	0x00012e0c
    29d8:	00012ed8 	.word	0x00012ed8
    29dc:	000130b8 	.word	0x000130b8
    29e0:	00012dc8 	.word	0x00012dc8
    29e4:	00012ed0 	.word	0x00012ed0

000029e8 <bgetz>:
bgetz():
/optee/optee_os/lib/libutils/isoc/bget.c:850
    29e8:	e96d 7e02 	strd	r7, lr, [sp, #-8]!
    29ec:	b088      	sub	sp, #32
    29ee:	af00      	add	r7, sp, #0
    29f0:	60f8      	str	r0, [r7, #12]
    29f2:	60b9      	str	r1, [r7, #8]
    29f4:	607a      	str	r2, [r7, #4]
    29f6:	603b      	str	r3, [r7, #0]
/optee/optee_os/lib/libutils/isoc/bget.c:851
    29f8:	683b      	ldr	r3, [r7, #0]
    29fa:	687a      	ldr	r2, [r7, #4]
    29fc:	68b9      	ldr	r1, [r7, #8]
    29fe:	68f8      	ldr	r0, [r7, #12]
    2a00:	f7ff fe2c 	bl	265c <bget>
    2a04:	61b8      	str	r0, [r7, #24]
/optee/optee_os/lib/libutils/isoc/bget.c:853
    2a06:	69bb      	ldr	r3, [r7, #24]
    2a08:	2b00      	cmp	r3, #0
    2a0a:	d035      	beq.n	2a78 <bgetz+0x90>
/optee/optee_os/lib/libutils/isoc/bget.c:857
    2a0c:	69bb      	ldr	r3, [r7, #24]
    2a0e:	f1a3 0308 	sub.w	r3, r3, #8
    2a12:	617b      	str	r3, [r7, #20]
/optee/optee_os/lib/libutils/isoc/bget.c:858
    2a14:	697b      	ldr	r3, [r7, #20]
    2a16:	685b      	ldr	r3, [r3, #4]
    2a18:	f1c3 0300 	rsb	r3, r3, #0
    2a1c:	61fb      	str	r3, [r7, #28]
/optee/optee_os/lib/libutils/isoc/bget.c:859
    2a1e:	69fb      	ldr	r3, [r7, #28]
    2a20:	2b00      	cmp	r3, #0
    2a22:	d10e      	bne.n	2a42 <bgetz+0x5a>
/optee/optee_os/lib/libutils/isoc/bget.c:862
    2a24:	69bb      	ldr	r3, [r7, #24]
    2a26:	f1a3 0310 	sub.w	r3, r3, #16
    2a2a:	613b      	str	r3, [r7, #16]
/optee/optee_os/lib/libutils/isoc/bget.c:863
    2a2c:	693b      	ldr	r3, [r7, #16]
    2a2e:	681b      	ldr	r3, [r3, #0]
    2a30:	461a      	mov	r2, r3
    2a32:	693b      	ldr	r3, [r7, #16]
    2a34:	685b      	ldr	r3, [r3, #4]
    2a36:	eba2 0303 	sub.w	r3, r2, r3
    2a3a:	f1a3 0310 	sub.w	r3, r3, #16
    2a3e:	61fb      	str	r3, [r7, #28]
    2a40:	e003      	b.n	2a4a <bgetz+0x62>
/optee/optee_os/lib/libutils/isoc/bget.c:865
    2a42:	69fb      	ldr	r3, [r7, #28]
    2a44:	f1a3 0308 	sub.w	r3, r3, #8
    2a48:	61fb      	str	r3, [r7, #28]
/optee/optee_os/lib/libutils/isoc/bget.c:867
    2a4a:	69fa      	ldr	r2, [r7, #28]
    2a4c:	687b      	ldr	r3, [r7, #4]
    2a4e:	429a      	cmp	r2, r3
    2a50:	da0b      	bge.n	2a6a <bgetz+0x82>
/optee/optee_os/lib/libutils/isoc/bget.c:867 (discriminator 1)
    2a52:	4b0c      	ldr	r3, [pc, #48]	; (2a84 <bgetz+0x9c>)
    2a54:	447b      	add	r3, pc
    2a56:	f240 3263 	movw	r2, #867	; 0x363
    2a5a:	490b      	ldr	r1, [pc, #44]	; (2a88 <bgetz+0xa0>)
    2a5c:	4479      	add	r1, pc
    2a5e:	480b      	ldr	r0, [pc, #44]	; (2a8c <bgetz+0xa4>)
    2a60:	4478      	add	r0, pc
    2a62:	f002 fb95 	bl	5190 <_assert_log>
    2a66:	f002 fbb7 	bl	51d8 <_assert_break>
/optee/optee_os/lib/libutils/isoc/bget.c:868
    2a6a:	69fb      	ldr	r3, [r7, #28]
    2a6c:	461a      	mov	r2, r3
    2a6e:	f04f 0100 	mov.w	r1, #0
    2a72:	69b8      	ldr	r0, [r7, #24]
    2a74:	f7ff fd86 	bl	2584 <memset_unchecked>
/optee/optee_os/lib/libutils/isoc/bget.c:870
    2a78:	69bb      	ldr	r3, [r7, #24]
/optee/optee_os/lib/libutils/isoc/bget.c:871
    2a7a:	4618      	mov	r0, r3
    2a7c:	f107 0720 	add.w	r7, r7, #32
    2a80:	46bd      	mov	sp, r7
    2a82:	bd80      	pop	{r7, pc}
    2a84:	00012f84 	.word	0x00012f84
    2a88:	00012c8c 	.word	0x00012c8c
    2a8c:	00012dbc 	.word	0x00012dbc

00002a90 <bgetr>:
bgetr():
/optee/optee_os/lib/libutils/isoc/bget.c:884
    2a90:	e96d 7e02 	strd	r7, lr, [sp, #-8]!
    2a94:	b088      	sub	sp, #32
    2a96:	af00      	add	r7, sp, #0
    2a98:	60f8      	str	r0, [r7, #12]
    2a9a:	60b9      	str	r1, [r7, #8]
    2a9c:	607a      	str	r2, [r7, #4]
    2a9e:	603b      	str	r3, [r7, #0]
/optee/optee_os/lib/libutils/isoc/bget.c:889
    2aa0:	6abb      	ldr	r3, [r7, #40]	; 0x28
    2aa2:	683a      	ldr	r2, [r7, #0]
    2aa4:	6879      	ldr	r1, [r7, #4]
    2aa6:	68b8      	ldr	r0, [r7, #8]
    2aa8:	f7ff fdd8 	bl	265c <bget>
    2aac:	61f8      	str	r0, [r7, #28]
    2aae:	69fb      	ldr	r3, [r7, #28]
    2ab0:	2b00      	cmp	r3, #0
    2ab2:	d102      	bne.n	2aba <bgetr+0x2a>
/optee/optee_os/lib/libutils/isoc/bget.c:890
    2ab4:	f04f 0300 	mov.w	r3, #0
    2ab8:	e042      	b.n	2b40 <bgetr+0xb0>
/optee/optee_os/lib/libutils/isoc/bget.c:892
    2aba:	68fb      	ldr	r3, [r7, #12]
    2abc:	2b00      	cmp	r3, #0
    2abe:	d101      	bne.n	2ac4 <bgetr+0x34>
/optee/optee_os/lib/libutils/isoc/bget.c:893
    2ac0:	69fb      	ldr	r3, [r7, #28]
    2ac2:	e03d      	b.n	2b40 <bgetr+0xb0>
/optee/optee_os/lib/libutils/isoc/bget.c:895
    2ac4:	68fb      	ldr	r3, [r7, #12]
    2ac6:	f1a3 0308 	sub.w	r3, r3, #8
    2aca:	61bb      	str	r3, [r7, #24]
/optee/optee_os/lib/libutils/isoc/bget.c:896
    2acc:	69bb      	ldr	r3, [r7, #24]
    2ace:	685b      	ldr	r3, [r3, #4]
    2ad0:	f1c3 0300 	rsb	r3, r3, #0
    2ad4:	617b      	str	r3, [r7, #20]
/optee/optee_os/lib/libutils/isoc/bget.c:906
    2ad6:	697b      	ldr	r3, [r7, #20]
    2ad8:	f1a3 0308 	sub.w	r3, r3, #8
    2adc:	617b      	str	r3, [r7, #20]
/optee/optee_os/lib/libutils/isoc/bget.c:907
    2ade:	697b      	ldr	r3, [r7, #20]
    2ae0:	2b00      	cmp	r3, #0
    2ae2:	dc0b      	bgt.n	2afc <bgetr+0x6c>
/optee/optee_os/lib/libutils/isoc/bget.c:907 (discriminator 1)
    2ae4:	4b19      	ldr	r3, [pc, #100]	; (2b4c <bgetr+0xbc>)
    2ae6:	447b      	add	r3, pc
    2ae8:	f240 328b 	movw	r2, #907	; 0x38b
    2aec:	4918      	ldr	r1, [pc, #96]	; (2b50 <bgetr+0xc0>)
    2aee:	4479      	add	r1, pc
    2af0:	4818      	ldr	r0, [pc, #96]	; (2b54 <bgetr+0xc4>)
    2af2:	4478      	add	r0, pc
    2af4:	f002 fb4c 	bl	5190 <_assert_log>
    2af8:	f002 fb6e 	bl	51d8 <_assert_break>
/optee/optee_os/lib/libutils/isoc/bget.c:909
    2afc:	697a      	ldr	r2, [r7, #20]
    2afe:	683b      	ldr	r3, [r7, #0]
    2b00:	4293      	cmp	r3, r2
    2b02:	bfa8      	it	ge
    2b04:	4613      	movge	r3, r2
/optee/optee_os/lib/libutils/isoc/bget.c:908
    2b06:	461a      	mov	r2, r3
    2b08:	68f9      	ldr	r1, [r7, #12]
    2b0a:	69f8      	ldr	r0, [r7, #28]
    2b0c:	f010 fd0c 	bl	13528 <memcpy>
/optee/optee_os/lib/libutils/isoc/bget.c:912
    2b10:	683a      	ldr	r2, [r7, #0]
    2b12:	697b      	ldr	r3, [r7, #20]
    2b14:	429a      	cmp	r2, r3
    2b16:	dd0c      	ble.n	2b32 <bgetr+0xa2>
/optee/optee_os/lib/libutils/isoc/bget.c:913
    2b18:	697b      	ldr	r3, [r7, #20]
    2b1a:	69fa      	ldr	r2, [r7, #28]
    2b1c:	eb02 0003 	add.w	r0, r2, r3
    2b20:	683a      	ldr	r2, [r7, #0]
    2b22:	697b      	ldr	r3, [r7, #20]
    2b24:	eba2 0303 	sub.w	r3, r2, r3
    2b28:	461a      	mov	r2, r3
    2b2a:	f04f 0100 	mov.w	r1, #0
    2b2e:	f010 fd74 	bl	1361a <memset>
/optee/optee_os/lib/libutils/isoc/bget.c:915
    2b32:	f04f 0200 	mov.w	r2, #0
    2b36:	6ab9      	ldr	r1, [r7, #40]	; 0x28
    2b38:	68f8      	ldr	r0, [r7, #12]
    2b3a:	f000 f80d 	bl	2b58 <brel>
/optee/optee_os/lib/libutils/isoc/bget.c:916
    2b3e:	69fb      	ldr	r3, [r7, #28]
/optee/optee_os/lib/libutils/isoc/bget.c:917
    2b40:	4618      	mov	r0, r3
    2b42:	f107 0720 	add.w	r7, r7, #32
    2b46:	46bd      	mov	sp, r7
    2b48:	bd80      	pop	{r7, pc}
    2b4a:	bf00      	nop
    2b4c:	00012efa 	.word	0x00012efa
    2b50:	00012bfa 	.word	0x00012bfa
    2b54:	00012d3a 	.word	0x00012d3a

00002b58 <brel>:
brel():
/optee/optee_os/lib/libutils/isoc/bget.c:925
    2b58:	f84d 4d0c 	str.w	r4, [sp, #-12]!
    2b5c:	e9cd 7e01 	strd	r7, lr, [sp, #4]
    2b60:	b089      	sub	sp, #36	; 0x24
    2b62:	af00      	add	r7, sp, #0
    2b64:	60f8      	str	r0, [r7, #12]
    2b66:	60b9      	str	r1, [r7, #8]
    2b68:	607a      	str	r2, [r7, #4]
/optee/optee_os/lib/libutils/isoc/bget.c:929
    2b6a:	68fb      	ldr	r3, [r7, #12]
    2b6c:	f1a3 0308 	sub.w	r3, r3, #8
    2b70:	61fb      	str	r3, [r7, #28]
/optee/optee_os/lib/libutils/isoc/bget.c:931
    2b72:	68bb      	ldr	r3, [r7, #8]
    2b74:	699b      	ldr	r3, [r3, #24]
    2b76:	f103 0201 	add.w	r2, r3, #1
    2b7a:	68bb      	ldr	r3, [r7, #8]
    2b7c:	619a      	str	r2, [r3, #24]
/optee/optee_os/lib/libutils/isoc/bget.c:933
    2b7e:	68fb      	ldr	r3, [r7, #12]
    2b80:	2b00      	cmp	r3, #0
    2b82:	d10b      	bne.n	2b9c <brel+0x44>
/optee/optee_os/lib/libutils/isoc/bget.c:933 (discriminator 1)
    2b84:	4ba1      	ldr	r3, [pc, #644]	; (2e0c <brel+0x2b4>)
    2b86:	447b      	add	r3, pc
    2b88:	f240 32a5 	movw	r2, #933	; 0x3a5
    2b8c:	49a0      	ldr	r1, [pc, #640]	; (2e10 <brel+0x2b8>)
    2b8e:	4479      	add	r1, pc
    2b90:	48a0      	ldr	r0, [pc, #640]	; (2e14 <brel+0x2bc>)
    2b92:	4478      	add	r0, pc
    2b94:	f002 fafc 	bl	5190 <_assert_log>
    2b98:	f002 fb1e 	bl	51d8 <_assert_break>
/optee/optee_os/lib/libutils/isoc/bget.c:965
    2b9c:	69fb      	ldr	r3, [r7, #28]
    2b9e:	685b      	ldr	r3, [r3, #4]
    2ba0:	2b00      	cmp	r3, #0
    2ba2:	db02      	blt.n	2baa <brel+0x52>
/optee/optee_os/lib/libutils/isoc/bget.c:966
    2ba4:	f04f 0300 	mov.w	r3, #0
    2ba8:	61bb      	str	r3, [r7, #24]
/optee/optee_os/lib/libutils/isoc/bget.c:968
    2baa:	69fb      	ldr	r3, [r7, #28]
    2bac:	685b      	ldr	r3, [r3, #4]
    2bae:	2b00      	cmp	r3, #0
    2bb0:	db0b      	blt.n	2bca <brel+0x72>
/optee/optee_os/lib/libutils/isoc/bget.c:968 (discriminator 1)
    2bb2:	4b99      	ldr	r3, [pc, #612]	; (2e18 <brel+0x2c0>)
    2bb4:	447b      	add	r3, pc
    2bb6:	f44f 7272 	mov.w	r2, #968	; 0x3c8
    2bba:	4998      	ldr	r1, [pc, #608]	; (2e1c <brel+0x2c4>)
    2bbc:	4479      	add	r1, pc
    2bbe:	4898      	ldr	r0, [pc, #608]	; (2e20 <brel+0x2c8>)
    2bc0:	4478      	add	r0, pc
    2bc2:	f002 fae5 	bl	5190 <_assert_log>
    2bc6:	f002 fb07 	bl	51d8 <_assert_break>
/optee/optee_os/lib/libutils/isoc/bget.c:969
    2bca:	69fb      	ldr	r3, [r7, #28]
    2bcc:	685b      	ldr	r3, [r3, #4]
    2bce:	f1c3 0300 	rsb	r3, r3, #0
    2bd2:	617b      	str	r3, [r7, #20]
/optee/optee_os/lib/libutils/isoc/bget.c:974
    2bd4:	69fb      	ldr	r3, [r7, #28]
    2bd6:	685b      	ldr	r3, [r3, #4]
    2bd8:	f1c3 0300 	rsb	r3, r3, #0
    2bdc:	69fa      	ldr	r2, [r7, #28]
    2bde:	4413      	add	r3, r2
    2be0:	681b      	ldr	r3, [r3, #0]
    2be2:	2b00      	cmp	r3, #0
    2be4:	d00b      	beq.n	2bfe <brel+0xa6>
/optee/optee_os/lib/libutils/isoc/bget.c:974 (discriminator 1)
    2be6:	4b8f      	ldr	r3, [pc, #572]	; (2e24 <brel+0x2cc>)
    2be8:	447b      	add	r3, pc
    2bea:	f240 32ce 	movw	r2, #974	; 0x3ce
    2bee:	498e      	ldr	r1, [pc, #568]	; (2e28 <brel+0x2d0>)
    2bf0:	4479      	add	r1, pc
    2bf2:	488e      	ldr	r0, [pc, #568]	; (2e2c <brel+0x2d4>)
    2bf4:	4478      	add	r0, pc
    2bf6:	f002 facb 	bl	5190 <_assert_log>
    2bfa:	f002 faed 	bl	51d8 <_assert_break>
/optee/optee_os/lib/libutils/isoc/bget.c:977
    2bfe:	68bb      	ldr	r3, [r7, #8]
    2c00:	691a      	ldr	r2, [r3, #16]
    2c02:	69fb      	ldr	r3, [r7, #28]
    2c04:	685b      	ldr	r3, [r3, #4]
    2c06:	441a      	add	r2, r3
    2c08:	68bb      	ldr	r3, [r7, #8]
    2c0a:	611a      	str	r2, [r3, #16]
/optee/optee_os/lib/libutils/isoc/bget.c:978
    2c0c:	68bb      	ldr	r3, [r7, #8]
    2c0e:	691b      	ldr	r3, [r3, #16]
    2c10:	2b00      	cmp	r3, #0
    2c12:	da0b      	bge.n	2c2c <brel+0xd4>
/optee/optee_os/lib/libutils/isoc/bget.c:978 (discriminator 1)
    2c14:	4b86      	ldr	r3, [pc, #536]	; (2e30 <brel+0x2d8>)
    2c16:	447b      	add	r3, pc
    2c18:	f240 32d2 	movw	r2, #978	; 0x3d2
    2c1c:	4985      	ldr	r1, [pc, #532]	; (2e34 <brel+0x2dc>)
    2c1e:	4479      	add	r1, pc
    2c20:	4885      	ldr	r0, [pc, #532]	; (2e38 <brel+0x2e0>)
    2c22:	4478      	add	r0, pc
    2c24:	f002 fab4 	bl	5190 <_assert_log>
    2c28:	f002 fad6 	bl	51d8 <_assert_break>
/optee/optee_os/lib/libutils/isoc/bget.c:983
    2c2c:	69fb      	ldr	r3, [r7, #28]
    2c2e:	681b      	ldr	r3, [r3, #0]
    2c30:	2b00      	cmp	r3, #0
    2c32:	d026      	beq.n	2c82 <brel+0x12a>
/optee/optee_os/lib/libutils/isoc/bget.c:991
    2c34:	69fb      	ldr	r3, [r7, #28]
    2c36:	685c      	ldr	r4, [r3, #4]
/optee/optee_os/lib/libutils/isoc/bget.c:994
    2c38:	69fb      	ldr	r3, [r7, #28]
    2c3a:	681b      	ldr	r3, [r3, #0]
    2c3c:	f1c3 0300 	rsb	r3, r3, #0
    2c40:	69fa      	ldr	r2, [r7, #28]
    2c42:	4413      	add	r3, r2
    2c44:	685a      	ldr	r2, [r3, #4]
    2c46:	69fb      	ldr	r3, [r7, #28]
    2c48:	681b      	ldr	r3, [r3, #0]
    2c4a:	429a      	cmp	r2, r3
    2c4c:	d00b      	beq.n	2c66 <brel+0x10e>
/optee/optee_os/lib/libutils/isoc/bget.c:994 (discriminator 1)
    2c4e:	4b7b      	ldr	r3, [pc, #492]	; (2e3c <brel+0x2e4>)
    2c50:	447b      	add	r3, pc
    2c52:	f240 32e2 	movw	r2, #994	; 0x3e2
    2c56:	497a      	ldr	r1, [pc, #488]	; (2e40 <brel+0x2e8>)
    2c58:	4479      	add	r1, pc
    2c5a:	487a      	ldr	r0, [pc, #488]	; (2e44 <brel+0x2ec>)
    2c5c:	4478      	add	r0, pc
    2c5e:	f002 fa97 	bl	5190 <_assert_log>
    2c62:	f002 fab9 	bl	51d8 <_assert_break>
/optee/optee_os/lib/libutils/isoc/bget.c:995
    2c66:	69fb      	ldr	r3, [r7, #28]
    2c68:	681b      	ldr	r3, [r3, #0]
    2c6a:	f1c3 0300 	rsb	r3, r3, #0
    2c6e:	69fa      	ldr	r2, [r7, #28]
    2c70:	4413      	add	r3, r2
    2c72:	61fb      	str	r3, [r7, #28]
/optee/optee_os/lib/libutils/isoc/bget.c:996
    2c74:	69fb      	ldr	r3, [r7, #28]
    2c76:	685b      	ldr	r3, [r3, #4]
    2c78:	eba3 0204 	sub.w	r2, r3, r4
    2c7c:	69fb      	ldr	r3, [r7, #28]
    2c7e:	605a      	str	r2, [r3, #4]
    2c80:	e037      	b.n	2cf2 <brel+0x19a>
/optee/optee_os/lib/libutils/isoc/bget.c:1002
    2c82:	68bb      	ldr	r3, [r7, #8]
    2c84:	68db      	ldr	r3, [r3, #12]
    2c86:	689a      	ldr	r2, [r3, #8]
    2c88:	68bb      	ldr	r3, [r7, #8]
    2c8a:	429a      	cmp	r2, r3
    2c8c:	d00b      	beq.n	2ca6 <brel+0x14e>
/optee/optee_os/lib/libutils/isoc/bget.c:1002 (discriminator 1)
    2c8e:	4b6e      	ldr	r3, [pc, #440]	; (2e48 <brel+0x2f0>)
    2c90:	447b      	add	r3, pc
    2c92:	f240 32ea 	movw	r2, #1002	; 0x3ea
    2c96:	496d      	ldr	r1, [pc, #436]	; (2e4c <brel+0x2f4>)
    2c98:	4479      	add	r1, pc
    2c9a:	486d      	ldr	r0, [pc, #436]	; (2e50 <brel+0x2f8>)
    2c9c:	4478      	add	r0, pc
    2c9e:	f002 fa77 	bl	5190 <_assert_log>
    2ca2:	f002 fa99 	bl	51d8 <_assert_break>
/optee/optee_os/lib/libutils/isoc/bget.c:1003
    2ca6:	68bb      	ldr	r3, [r7, #8]
    2ca8:	689b      	ldr	r3, [r3, #8]
    2caa:	68da      	ldr	r2, [r3, #12]
    2cac:	68bb      	ldr	r3, [r7, #8]
    2cae:	429a      	cmp	r2, r3
    2cb0:	d00b      	beq.n	2cca <brel+0x172>
/optee/optee_os/lib/libutils/isoc/bget.c:1003 (discriminator 1)
    2cb2:	4b68      	ldr	r3, [pc, #416]	; (2e54 <brel+0x2fc>)
    2cb4:	447b      	add	r3, pc
    2cb6:	f240 32eb 	movw	r2, #1003	; 0x3eb
    2cba:	4967      	ldr	r1, [pc, #412]	; (2e58 <brel+0x300>)
    2cbc:	4479      	add	r1, pc
    2cbe:	4867      	ldr	r0, [pc, #412]	; (2e5c <brel+0x304>)
    2cc0:	4478      	add	r0, pc
    2cc2:	f002 fa65 	bl	5190 <_assert_log>
    2cc6:	f002 fa87 	bl	51d8 <_assert_break>
/optee/optee_os/lib/libutils/isoc/bget.c:1004
    2cca:	68ba      	ldr	r2, [r7, #8]
    2ccc:	69fb      	ldr	r3, [r7, #28]
    2cce:	609a      	str	r2, [r3, #8]
/optee/optee_os/lib/libutils/isoc/bget.c:1005
    2cd0:	68bb      	ldr	r3, [r7, #8]
    2cd2:	68da      	ldr	r2, [r3, #12]
    2cd4:	69fb      	ldr	r3, [r7, #28]
    2cd6:	60da      	str	r2, [r3, #12]
/optee/optee_os/lib/libutils/isoc/bget.c:1006
    2cd8:	68bb      	ldr	r3, [r7, #8]
    2cda:	69fa      	ldr	r2, [r7, #28]
    2cdc:	60da      	str	r2, [r3, #12]
/optee/optee_os/lib/libutils/isoc/bget.c:1007
    2cde:	69fb      	ldr	r3, [r7, #28]
    2ce0:	68db      	ldr	r3, [r3, #12]
    2ce2:	69fa      	ldr	r2, [r7, #28]
    2ce4:	609a      	str	r2, [r3, #8]
/optee/optee_os/lib/libutils/isoc/bget.c:1008
    2ce6:	69fb      	ldr	r3, [r7, #28]
    2ce8:	685b      	ldr	r3, [r3, #4]
    2cea:	f1c3 0200 	rsb	r2, r3, #0
    2cee:	69fb      	ldr	r3, [r7, #28]
    2cf0:	605a      	str	r2, [r3, #4]
/optee/optee_os/lib/libutils/isoc/bget.c:1016
    2cf2:	69fb      	ldr	r3, [r7, #28]
    2cf4:	685b      	ldr	r3, [r3, #4]
    2cf6:	461a      	mov	r2, r3
    2cf8:	69fb      	ldr	r3, [r7, #28]
    2cfa:	4413      	add	r3, r2
    2cfc:	61bb      	str	r3, [r7, #24]
/optee/optee_os/lib/libutils/isoc/bget.c:1017
    2cfe:	69bb      	ldr	r3, [r7, #24]
    2d00:	685b      	ldr	r3, [r3, #4]
    2d02:	2b00      	cmp	r3, #0
    2d04:	dd50      	ble.n	2da8 <brel+0x250>
/optee/optee_os/lib/libutils/isoc/bget.c:1022
    2d06:	69bb      	ldr	r3, [r7, #24]
    2d08:	685b      	ldr	r3, [r3, #4]
    2d0a:	461a      	mov	r2, r3
    2d0c:	69bb      	ldr	r3, [r7, #24]
    2d0e:	4413      	add	r3, r2
    2d10:	681a      	ldr	r2, [r3, #0]
    2d12:	69bb      	ldr	r3, [r7, #24]
    2d14:	685b      	ldr	r3, [r3, #4]
    2d16:	429a      	cmp	r2, r3
    2d18:	d00b      	beq.n	2d32 <brel+0x1da>
/optee/optee_os/lib/libutils/isoc/bget.c:1022 (discriminator 1)
    2d1a:	4b51      	ldr	r3, [pc, #324]	; (2e60 <brel+0x308>)
    2d1c:	447b      	add	r3, pc
    2d1e:	f240 32fe 	movw	r2, #1022	; 0x3fe
    2d22:	4950      	ldr	r1, [pc, #320]	; (2e64 <brel+0x30c>)
    2d24:	4479      	add	r1, pc
    2d26:	4850      	ldr	r0, [pc, #320]	; (2e68 <brel+0x310>)
    2d28:	4478      	add	r0, pc
    2d2a:	f002 fa31 	bl	5190 <_assert_log>
    2d2e:	f002 fa53 	bl	51d8 <_assert_break>
/optee/optee_os/lib/libutils/isoc/bget.c:1023
    2d32:	69bb      	ldr	r3, [r7, #24]
    2d34:	68db      	ldr	r3, [r3, #12]
    2d36:	689b      	ldr	r3, [r3, #8]
    2d38:	69ba      	ldr	r2, [r7, #24]
    2d3a:	429a      	cmp	r2, r3
    2d3c:	d00b      	beq.n	2d56 <brel+0x1fe>
/optee/optee_os/lib/libutils/isoc/bget.c:1023 (discriminator 1)
    2d3e:	4b4b      	ldr	r3, [pc, #300]	; (2e6c <brel+0x314>)
    2d40:	447b      	add	r3, pc
    2d42:	f240 32ff 	movw	r2, #1023	; 0x3ff
    2d46:	494a      	ldr	r1, [pc, #296]	; (2e70 <brel+0x318>)
    2d48:	4479      	add	r1, pc
    2d4a:	484a      	ldr	r0, [pc, #296]	; (2e74 <brel+0x31c>)
    2d4c:	4478      	add	r0, pc
    2d4e:	f002 fa1f 	bl	5190 <_assert_log>
    2d52:	f002 fa41 	bl	51d8 <_assert_break>
/optee/optee_os/lib/libutils/isoc/bget.c:1024
    2d56:	69bb      	ldr	r3, [r7, #24]
    2d58:	689b      	ldr	r3, [r3, #8]
    2d5a:	68db      	ldr	r3, [r3, #12]
    2d5c:	69ba      	ldr	r2, [r7, #24]
    2d5e:	429a      	cmp	r2, r3
    2d60:	d00b      	beq.n	2d7a <brel+0x222>
/optee/optee_os/lib/libutils/isoc/bget.c:1024 (discriminator 1)
    2d62:	4b45      	ldr	r3, [pc, #276]	; (2e78 <brel+0x320>)
    2d64:	447b      	add	r3, pc
    2d66:	f44f 6280 	mov.w	r2, #1024	; 0x400
    2d6a:	4944      	ldr	r1, [pc, #272]	; (2e7c <brel+0x324>)
    2d6c:	4479      	add	r1, pc
    2d6e:	4844      	ldr	r0, [pc, #272]	; (2e80 <brel+0x328>)
